

Microchip Technology PIC18 LITE Macro Assembler V1.34 build -361300703 
                                                                                               Wed Dec 02 20:29:44 2020

Microchip Technology Omniscient Code Generator (Lite mode) build 201502162209
     1                           	processor	18F26J50
     2                           	fnconf	rparam,??,?,0
     3                           	opt	pw 120
     4                           	opt	lm
     5                           	psect	idataCOMRAM,global,class=CODE,delta=1
     6                           	psect	idataBANK0,global,class=CODE,delta=1
     7                           	psect	idataBANK1,global,class=CODE,delta=1
     8                           	psect	mediumconst,global,reloc=2,class=MEDIUMCONST,delta=1
     9                           	psect	nvBANK0,global,class=BANK0,space=1,delta=1
    10                           	psect	cinit,global,reloc=2,class=CODE,delta=1
    11                           	psect	dataCOMRAM,global,class=COMRAM,space=1,delta=1
    12                           	psect	bssBANK0,global,class=BANK0,space=1,delta=1
    13                           	psect	dataBANK0,global,class=BANK0,space=1,delta=1
    14                           	psect	bssBANK1,global,class=BANK1,space=1,delta=1
    15                           	psect	dataBANK1,global,class=BANK1,space=1,delta=1
    16                           	psect	cstackBANK0,global,class=BANK0,space=1,delta=1
    17                           	psect	cstackCOMRAM,global,class=COMRAM,space=1,delta=1
    18                           	psect	text0,global,reloc=2,class=CODE,delta=1
    19                           	psect	text1,global,reloc=2,class=CODE,delta=1
    20                           	psect	text2,global,reloc=2,class=CODE,delta=1
    21                           	psect	text3,global,reloc=2,class=CODE,delta=1
    22                           	psect	text4,global,reloc=2,class=CODE,delta=1
    23                           	psect	text5,global,reloc=2,class=CODE,delta=1
    24                           	psect	text6,global,reloc=2,class=CODE,delta=1
    25                           	psect	text7,global,reloc=2,class=CODE,delta=1
    26                           	psect	text8,global,reloc=2,class=CODE,delta=1
    27                           	psect	text9,global,reloc=2,class=CODE,delta=1
    28                           	psect	text10,global,reloc=2,class=CODE,delta=1
    29                           	psect	text11,global,reloc=2,class=CODE,delta=1
    30                           	psect	text12,global,reloc=2,class=CODE,delta=1
    31                           	psect	text13,global,reloc=2,class=CODE,delta=1
    32                           	psect	text14,global,reloc=2,class=CODE,delta=1
    33                           	psect	text15,global,reloc=2,class=CODE,delta=1
    34                           	psect	text16,global,reloc=2,class=CODE,delta=1
    35                           	psect	text17,global,reloc=2,class=CODE,delta=1
    36                           	psect	text18,global,reloc=2,class=CODE,delta=1
    37                           	psect	text19,global,reloc=2,class=CODE,delta=1
    38                           	psect	text20,global,reloc=2,class=CODE,delta=1
    39                           	psect	text21,global,reloc=2,class=CODE,delta=1
    40                           	psect	text22,global,reloc=2,class=CODE,delta=1
    41                           	psect	text23,global,reloc=2,class=CODE,delta=1
    42                           	psect	text24,global,reloc=2,class=CODE,delta=1
    43                           	psect	text25,global,reloc=2,class=CODE,delta=1
    44                           	psect	text26,global,reloc=2,class=CODE,delta=1
    45                           	psect	text27,global,reloc=2,class=CODE,delta=1
    46                           	psect	text28,global,reloc=2,class=CODE,delta=1
    47                           	psect	text29,global,reloc=2,class=CODE,delta=1
    48                           	psect	text30,global,reloc=2,class=CODE,delta=1
    49                           	psect	text31,global,reloc=2,class=CODE,delta=1
    50                           	psect	text32,global,reloc=2,class=CODE,delta=1
    51                           	psect	text33,global,reloc=2,class=CODE,delta=1
    52                           	psect	text34,global,reloc=2,class=CODE,delta=1
    53                           	psect	text35,global,reloc=2,class=CODE,delta=1
    54                           	psect	text36,global,reloc=2,class=CODE,delta=1
    55                           	psect	text37,global,reloc=2,class=CODE,delta=1
    56                           	psect	text38,global,reloc=2,class=CODE,delta=1
    57                           	psect	text39,global,reloc=2,class=CODE,delta=1
    58                           	psect	text40,global,reloc=2,class=CODE,delta=1
    59                           	psect	text41,global,reloc=2,class=CODE,delta=1
    60                           	psect	text42,global,reloc=2,class=CODE,delta=1
    61                           	psect	text43,global,reloc=2,class=CODE,delta=1
    62                           	psect	text44,global,reloc=2,class=CODE,delta=1
    63                           	psect	intsave_regs,global,class=BIGRAM,space=1,delta=1
    64                           	psect	rparam,global,class=COMRAM,space=1,delta=1
    65  0000                     
    66                           	psect	idataCOMRAM
    67  00B472                     __pidataCOMRAM:
    68                           	opt stack 0
    69                           
    70                           ;initializer for _hora
    71  00B472  0016               	dw	22
    72                           
    73                           	psect	idataBANK0
    74  00B487                     __pidataBANK0:
    75                           	opt stack 0
    76                           
    77                           ;initializer for _grados
    78  00B487  00                 	db	0
    79  00B488  A0                 	db	160
    80  00B489  41                 	db	65
    81                           
    82                           ;initializer for _temp_prog
    83  00B48A  00                 	db	0
    84  00B48B  CC                 	db	204
    85  00B48C  41                 	db	65
    86                           
    87                           ;initializer for _anio
    88  00B48D  0014               	dw	20
    89                           
    90                           ;initializer for _dia
    91  00B48F  0006               	dw	6
    92                           
    93                           ;initializer for _mes
    94  00B491  000B               	dw	11
    95                           
    96                           ;initializer for _minuto
    97  00B493  0037               	dw	55
    98                           
    99                           ;initializer for _fin_hora_ilum
   100  00B495  16                 	db	22
   101                           
   102                           ;initializer for _fin_hora_riego
   103  00B496  15                 	db	21
   104                           
   105                           ;initializer for _fin_min_riego
   106  00B497  37                 	db	55
   107                           
   108                           ;initializer for _inicio_hora_ilum
   109  00B498  14                 	db	20
   110                           
   111                           ;initializer for _inicio_hora_riego
   112  00B499  16                 	db	22
   113                           
   114                           	psect	idataBANK1
   115  00B54E                     __pidataBANK1:
   116                           	opt stack 0
   117                           
   118                           ;initializer for _posicionesUp
   119  00B54E  0002               	dw	2
   120  00B550  0005               	dw	5
   121  00B552  0002               	dw	2
   122  00B554  0008               	dw	8
   123  00B556  0002               	dw	2
   124  00B558  000F               	dw	15
   125  00B55A  0002               	dw	2
   126  00B55C  0012               	dw	18
   127  00B55E  0004               	dw	4
   128  00B560  0005               	dw	5
   129  00B562  0004               	dw	4
   130  00B564  0008               	dw	8
   131  00B566  0004               	dw	4
   132  00B568  000F               	dw	15
   133  00B56A  0004               	dw	4
   134  00B56C  0012               	dw	18
   135                           
   136                           ;initializer for _posicionesLeft
   137  00B56E  0002               	dw	2
   138  00B570  0000               	dw	0
   139  00B572  0003               	dw	3
   140  00B574  0000               	dw	0
   141  00B576  0003               	dw	3
   142  00B578  0003               	dw	3
   143  00B57A  0003               	dw	3
   144  00B57C  0006               	dw	6
   145  00B57E  0004               	dw	4
   146  00B580  0000               	dw	0
   147  00B582  0004               	dw	4
   148  00B584  0003               	dw	3
   149                           
   150                           	psect	mediumconst
   151  00FCFE                     __pmediumconst:
   152                           	opt stack 0
   153  00FCFE  00                 	db	0
   154  00FCFF                     _octpowers:
   155                           	opt stack 0
   156  00FCFF  0001               	dw	1
   157  00FD01  0000               	dw	0
   158  00FD03  0008               	dw	8
   159  00FD05  0000               	dw	0
   160  00FD07  0040               	dw	64
   161  00FD09  0000               	dw	0
   162  00FD0B  0200               	dw	512
   163  00FD0D  0000               	dw	0
   164  00FD0F  1000               	dw	4096
   165  00FD11  0000               	dw	0
   166  00FD13  8000               	dw	32768
   167  00FD15  0000               	dw	0
   168  00FD17  0000               	dw	0
   169  00FD19  0004               	dw	4
   170  00FD1B  0000               	dw	0
   171  00FD1D  0020               	dw	32
   172  00FD1F  0000               	dw	0
   173  00FD21  0100               	dw	256
   174  00FD23  0000               	dw	0
   175  00FD25  0800               	dw	2048
   176  00FD27  0000               	dw	0
   177  00FD29  4000               	dw	16384
   178  00FD2B  0000               	dw	0
   179  00FD2D  0000               	dw	0
   180  00FD2F                     __end_of_octpowers:
   181                           	opt stack 0
   182  00FD2F                     _dpowers:
   183                           	opt stack 0
   184  00FD2F  0001               	dw	1
   185  00FD31  0000               	dw	0
   186  00FD33  000A               	dw	10
   187  00FD35  0000               	dw	0
   188  00FD37  0064               	dw	100
   189  00FD39  0000               	dw	0
   190  00FD3B  03E8               	dw	1000
   191  00FD3D  0000               	dw	0
   192  00FD3F  2710               	dw	10000
   193  00FD41  0000               	dw	0
   194  00FD43  86A0               	dw	34464
   195  00FD45  0001               	dw	1
   196  00FD47  4240               	dw	16960
   197  00FD49  000F               	dw	15
   198  00FD4B  9680               	dw	38528
   199  00FD4D  0098               	dw	152
   200  00FD4F  E100               	dw	57600
   201  00FD51  05F5               	dw	1525
   202  00FD53  CA00               	dw	51712
   203  00FD55  3B9A               	dw	15258
   204  00FD57                     __end_of_dpowers:
   205                           	opt stack 0
   206  00FD57                     __npowers_:
   207                           	opt stack 0
   208  00FD57  00                 	db	0
   209  00FD58  80                 	db	128
   210  00FD59  3F                 	db	63
   211  00FD5A  CD                 	db	205
   212  00FD5B  CC                 	db	204
   213  00FD5C  3D                 	db	61
   214  00FD5D  D7                 	db	215
   215  00FD5E  23                 	db	35
   216  00FD5F  3C                 	db	60
   217  00FD60  12                 	db	18
   218  00FD61  83                 	db	131
   219  00FD62  3A                 	db	58
   220  00FD63  B7                 	db	183
   221  00FD64  D1                 	db	209
   222  00FD65  38                 	db	56
   223  00FD66  C6                 	db	198
   224  00FD67  27                 	db	39
   225  00FD68  37                 	db	55
   226  00FD69  38                 	db	56
   227  00FD6A  86                 	db	134
   228  00FD6B  35                 	db	53
   229  00FD6C  C0                 	db	192
   230  00FD6D  D6                 	db	214
   231  00FD6E  33                 	db	51
   232  00FD6F  CC                 	db	204
   233  00FD70  2B                 	db	43
   234  00FD71  32                 	db	50
   235  00FD72  70                 	db	112
   236  00FD73  89                 	db	137
   237  00FD74  30                 	db	48
   238  00FD75  E7                 	db	231
   239  00FD76  DB                 	db	219
   240  00FD77  2E                 	db	46
   241  00FD78  E5                 	db	229
   242  00FD79  3C                 	db	60
   243  00FD7A  1E                 	db	30
   244  00FD7B  42                 	db	66
   245  00FD7C  A2                 	db	162
   246  00FD7D  0D                 	db	13
   247  00FD7E                     __end_of__npowers_:
   248                           	opt stack 0
   249  00FD7E                     __powers_:
   250                           	opt stack 0
   251  00FD7E  00                 	db	0
   252  00FD7F  80                 	db	128
   253  00FD80  3F                 	db	63
   254  00FD81  00                 	db	0
   255  00FD82  20                 	db	32
   256  00FD83  41                 	db	65
   257  00FD84  00                 	db	0
   258  00FD85  C8                 	db	200
   259  00FD86  42                 	db	66
   260  00FD87  00                 	db	0
   261  00FD88  7A                 	db	122
   262  00FD89  44                 	db	68
   263  00FD8A  40                 	db	64
   264  00FD8B  1C                 	db	28
   265  00FD8C  46                 	db	70
   266  00FD8D  50                 	db	80
   267  00FD8E  C3                 	db	195
   268  00FD8F  47                 	db	71
   269  00FD90  24                 	db	36
   270  00FD91  74                 	db	116
   271  00FD92  49                 	db	73
   272  00FD93  97                 	db	151
   273  00FD94  18                 	db	24
   274  00FD95  4B                 	db	75
   275  00FD96  BC                 	db	188
   276  00FD97  BE                 	db	190
   277  00FD98  4C                 	db	76
   278  00FD99  6B                 	db	107
   279  00FD9A  6E                 	db	110
   280  00FD9B  4E                 	db	78
   281  00FD9C  03                 	db	3
   282  00FD9D  15                 	db	21
   283  00FD9E  50                 	db	80
   284  00FD9F  79                 	db	121
   285  00FDA0  AD                 	db	173
   286  00FDA1  60                 	db	96
   287  00FDA2  F3                 	db	243
   288  00FDA3  49                 	db	73
   289  00FDA4  71                 	db	113
   290  00FDA5                     __end_of__powers_:
   291                           	opt stack 0
   292  00FDA5                     _hexpowers:
   293                           	opt stack 0
   294  00FDA5  0001               	dw	1
   295  00FDA7  0000               	dw	0
   296  00FDA9  0010               	dw	16
   297  00FDAB  0000               	dw	0
   298  00FDAD  0100               	dw	256
   299  00FDAF  0000               	dw	0
   300  00FDB1  1000               	dw	4096
   301  00FDB3  0000               	dw	0
   302  00FDB5  0000               	dw	0
   303  00FDB7  0001               	dw	1
   304  00FDB9  0000               	dw	0
   305  00FDBB  0010               	dw	16
   306  00FDBD  0000               	dw	0
   307  00FDBF  0100               	dw	256
   308  00FDC1  0000               	dw	0
   309  00FDC3  1000               	dw	4096
   310  00FDC5                     __end_of_hexpowers:
   311                           	opt stack 0
   312  00FDC5                     STR_2:
   313  00FDC5  25                 	db	37
   314  00FDC6  30                 	db	48	;'0'
   315  00FDC7  32                 	db	50	;'2'
   316  00FDC8  75                 	db	117	;'u'
   317  00FDC9  2F                 	db	47
   318  00FDCA  25                 	db	37
   319  00FDCB  30                 	db	48	;'0'
   320  00FDCC  32                 	db	50	;'2'
   321  00FDCD  75                 	db	117	;'u'
   322  00FDCE  2F                 	db	47
   323  00FDCF  25                 	db	37
   324  00FDD0  30                 	db	48	;'0'
   325  00FDD1  32                 	db	50	;'2'
   326  00FDD2  75                 	db	117	;'u'
   327  00FDD3  20                 	db	32
   328  00FDD4  20                 	db	32
   329  00FDD5  20                 	db	32
   330  00FDD6  20                 	db	32
   331  00FDD7  20                 	db	32
   332  00FDD8  20                 	db	32
   333  00FDD9  20                 	db	32
   334  00FDDA  20                 	db	32
   335  00FDDB  20                 	db	32
   336  00FDDC  20                 	db	32
   337  00FDDD  20                 	db	32
   338  00FDDE  20                 	db	32
   339  00FDDF  20                 	db	32
   340  00FDE0  00                 	db	0
   341  00FDE1                     STR_51:
   342  00FDE1  20                 	db	32
   343  00FDE2  20                 	db	32
   344  00FDE3  20                 	db	32
   345  00FDE4  20                 	db	32
   346  00FDE5  20                 	db	32
   347  00FDE6  20                 	db	32
   348  00FDE7  20                 	db	32
   349  00FDE8  20                 	db	32
   350  00FDE9  20                 	db	32
   351  00FDEA  20                 	db	32
   352  00FDEB  20                 	db	32
   353  00FDEC  20                 	db	32
   354  00FDED  20                 	db	32
   355  00FDEE  20                 	db	32
   356  00FDEF  20                 	db	32
   357  00FDF0  20                 	db	32
   358  00FDF1  20                 	db	32
   359  00FDF2  20                 	db	32
   360  00FDF3  20                 	db	32
   361  00FDF4  20                 	db	32
   362  00FDF5  00                 	db	0
   363  00FDF6                     STR_24:
   364  00FDF6  52                 	db	82	;'R'
   365  00FDF7  69                 	db	105	;'i'
   366  00FDF8  65                 	db	101	;'e'
   367  00FDF9  67                 	db	103	;'g'
   368  00FDFA  6F                 	db	111	;'o'
   369  00FDFB  20                 	db	32
   370  00FDFC  20                 	db	32
   371  00FDFD  20                 	db	32
   372  00FDFE  20                 	db	32
   373  00FDFF  20                 	db	32
   374  00FE00  20                 	db	32
   375  00FE01  20                 	db	32
   376  00FE02  20                 	db	32
   377  00FE03  20                 	db	32
   378  00FE04  20                 	db	32
   379  00FE05  20                 	db	32
   380  00FE06  20                 	db	32
   381  00FE07  20                 	db	32
   382  00FE08  20                 	db	32
   383  00FE09  20                 	db	32
   384  00FE0A  00                 	db	0
   385  00FE0B                     STR_68:
   386  00FE0B  4C                 	db	76	;'L'
   387  00FE0C  75                 	db	117	;'u'
   388  00FE0D  6E                 	db	110	;'n'
   389  00FE0E  65                 	db	101	;'e'
   390  00FE0F  73                 	db	115	;'s'
   391  00FE10  20                 	db	32
   392  00FE11  20                 	db	32
   393  00FE12  20                 	db	32
   394  00FE13  20                 	db	32
   395  00FE14  20                 	db	32
   396  00FE15  20                 	db	32
   397  00FE16  20                 	db	32
   398  00FE17  20                 	db	32
   399  00FE18  20                 	db	32
   400  00FE19  20                 	db	32
   401  00FE1A  20                 	db	32
   402  00FE1B  20                 	db	32
   403  00FE1C  20                 	db	32
   404  00FE1D  20                 	db	32
   405  00FE1E  20                 	db	32
   406  00FE1F  00                 	db	0
   407  00FE20                     STR_78:
   408  00FE20  53                 	db	83	;'S'
   409  00FE21  61                 	db	97	;'a'
   410  00FE22  62                 	db	98	;'b'
   411  00FE23  61                 	db	97	;'a'
   412  00FE24  64                 	db	100	;'d'
   413  00FE25  6F                 	db	111	;'o'
   414  00FE26  20                 	db	32
   415  00FE27  20                 	db	32
   416  00FE28  20                 	db	32
   417  00FE29  20                 	db	32
   418  00FE2A  20                 	db	32
   419  00FE2B  20                 	db	32
   420  00FE2C  20                 	db	32
   421  00FE2D  20                 	db	32
   422  00FE2E  20                 	db	32
   423  00FE2F  20                 	db	32
   424  00FE30  20                 	db	32
   425  00FE31  20                 	db	32
   426  00FE32  20                 	db	32
   427  00FE33  20                 	db	32
   428  00FE34  00                 	db	0
   429  00FE35                     STR_70:
   430  00FE35  4D                 	db	77	;'M'
   431  00FE36  61                 	db	97	;'a'
   432  00FE37  72                 	db	114	;'r'
   433  00FE38  74                 	db	116	;'t'
   434  00FE39  65                 	db	101	;'e'
   435  00FE3A  73                 	db	115	;'s'
   436  00FE3B  20                 	db	32
   437  00FE3C  20                 	db	32
   438  00FE3D  20                 	db	32
   439  00FE3E  20                 	db	32
   440  00FE3F  20                 	db	32
   441  00FE40  20                 	db	32
   442  00FE41  20                 	db	32
   443  00FE42  20                 	db	32
   444  00FE43  20                 	db	32
   445  00FE44  20                 	db	32
   446  00FE45  20                 	db	32
   447  00FE46  20                 	db	32
   448  00FE47  20                 	db	32
   449  00FE48  20                 	db	32
   450  00FE49  00                 	db	0
   451  00FE4A                     STR_74:
   452  00FE4A  4A                 	db	74	;'J'
   453  00FE4B  75                 	db	117	;'u'
   454  00FE4C  65                 	db	101	;'e'
   455  00FE4D  76                 	db	118	;'v'
   456  00FE4E  65                 	db	101	;'e'
   457  00FE4F  73                 	db	115	;'s'
   458  00FE50  20                 	db	32
   459  00FE51  20                 	db	32
   460  00FE52  20                 	db	32
   461  00FE53  20                 	db	32
   462  00FE54  20                 	db	32
   463  00FE55  20                 	db	32
   464  00FE56  20                 	db	32
   465  00FE57  20                 	db	32
   466  00FE58  20                 	db	32
   467  00FE59  20                 	db	32
   468  00FE5A  20                 	db	32
   469  00FE5B  20                 	db	32
   470  00FE5C  20                 	db	32
   471  00FE5D  20                 	db	32
   472  00FE5E  00                 	db	0
   473  00FE5F                     STR_66:
   474  00FE5F  44                 	db	68	;'D'
   475  00FE60  6F                 	db	111	;'o'
   476  00FE61  6D                 	db	109	;'m'
   477  00FE62  69                 	db	105	;'i'
   478  00FE63  6E                 	db	110	;'n'
   479  00FE64  67                 	db	103	;'g'
   480  00FE65  6F                 	db	111	;'o'
   481  00FE66  20                 	db	32
   482  00FE67  20                 	db	32
   483  00FE68  20                 	db	32
   484  00FE69  20                 	db	32
   485  00FE6A  20                 	db	32
   486  00FE6B  20                 	db	32
   487  00FE6C  20                 	db	32
   488  00FE6D  20                 	db	32
   489  00FE6E  20                 	db	32
   490  00FE6F  20                 	db	32
   491  00FE70  20                 	db	32
   492  00FE71  20                 	db	32
   493  00FE72  20                 	db	32
   494  00FE73  00                 	db	0
   495  00FE74                     STR_76:
   496  00FE74  56                 	db	86	;'V'
   497  00FE75  69                 	db	105	;'i'
   498  00FE76  65                 	db	101	;'e'
   499  00FE77  72                 	db	114	;'r'
   500  00FE78  6E                 	db	110	;'n'
   501  00FE79  65                 	db	101	;'e'
   502  00FE7A  73                 	db	115	;'s'
   503  00FE7B  20                 	db	32
   504  00FE7C  20                 	db	32
   505  00FE7D  20                 	db	32
   506  00FE7E  20                 	db	32
   507  00FE7F  20                 	db	32
   508  00FE80  20                 	db	32
   509  00FE81  20                 	db	32
   510  00FE82  20                 	db	32
   511  00FE83  20                 	db	32
   512  00FE84  20                 	db	32
   513  00FE85  20                 	db	32
   514  00FE86  20                 	db	32
   515  00FE87  20                 	db	32
   516  00FE88  00                 	db	0
   517  00FE89                     STR_72:
   518  00FE89  4D                 	db	77	;'M'
   519  00FE8A  69                 	db	105	;'i'
   520  00FE8B  65                 	db	101	;'e'
   521  00FE8C  72                 	db	114	;'r'
   522  00FE8D  63                 	db	99	;'c'
   523  00FE8E  6F                 	db	111	;'o'
   524  00FE8F  6C                 	db	108	;'l'
   525  00FE90  65                 	db	101	;'e'
   526  00FE91  73                 	db	115	;'s'
   527  00FE92  20                 	db	32
   528  00FE93  20                 	db	32
   529  00FE94  20                 	db	32
   530  00FE95  20                 	db	32
   531  00FE96  20                 	db	32
   532  00FE97  20                 	db	32
   533  00FE98  20                 	db	32
   534  00FE99  20                 	db	32
   535  00FE9A  20                 	db	32
   536  00FE9B  20                 	db	32
   537  00FE9C  20                 	db	32
   538  00FE9D  00                 	db	0
   539  00FE9E                     STR_27:
   540  00FE9E  49                 	db	73	;'I'
   541  00FE9F  6C                 	db	108	;'l'
   542  00FEA0  75                 	db	117	;'u'
   543  00FEA1  6D                 	db	109	;'m'
   544  00FEA2  69                 	db	105	;'i'
   545  00FEA3  6E                 	db	110	;'n'
   546  00FEA4  61                 	db	97	;'a'
   547  00FEA5  63                 	db	99	;'c'
   548  00FEA6  69                 	db	105	;'i'
   549  00FEA7  6F                 	db	111	;'o'
   550  00FEA8  6E                 	db	110	;'n'
   551  00FEA9  20                 	db	32
   552  00FEAA  20                 	db	32
   553  00FEAB  20                 	db	32
   554  00FEAC  20                 	db	32
   555  00FEAD  20                 	db	32
   556  00FEAE  20                 	db	32
   557  00FEAF  20                 	db	32
   558  00FEB0  20                 	db	32
   559  00FEB1  20                 	db	32
   560  00FEB2  00                 	db	0
   561  00FEB3                     STR_60:
   562  00FEB3  70                 	db	112	;'p'
   563  00FEB4  6F                 	db	111	;'o'
   564  00FEB5  72                 	db	114	;'r'
   565  00FEB6  20                 	db	32
   566  00FEB7  64                 	db	100	;'d'
   567  00FEB8  65                 	db	101	;'e'
   568  00FEB9  66                 	db	102	;'f'
   569  00FEBA  65                 	db	101	;'e'
   570  00FEBB  63                 	db	99	;'c'
   571  00FEBC  74                 	db	116	;'t'
   572  00FEBD  6F                 	db	111	;'o'
   573  00FEBE  3F                 	db	63	;'?'
   574  00FEBF  20                 	db	32
   575  00FEC0  20                 	db	32
   576  00FEC1  20                 	db	32
   577  00FEC2  20                 	db	32
   578  00FEC3  20                 	db	32
   579  00FEC4  20                 	db	32
   580  00FEC5  20                 	db	32
   581  00FEC6  20                 	db	32
   582  00FEC7  00                 	db	0
   583  00FEC8                     STR_61:
   584  00FEC8  20                 	db	32
   585  00FEC9  20                 	db	32
   586  00FECA  20                 	db	32
   587  00FECB  4E                 	db	78	;'N'
   588  00FECC  6F                 	db	111	;'o'
   589  00FECD  20                 	db	32
   590  00FECE  20                 	db	32
   591  00FECF  20                 	db	32
   592  00FED0  20                 	db	32
   593  00FED1  20                 	db	32
   594  00FED2  20                 	db	32
   595  00FED3  20                 	db	32
   596  00FED4  20                 	db	32
   597  00FED5  20                 	db	32
   598  00FED6  20                 	db	32
   599  00FED7  53                 	db	83	;'S'
   600  00FED8  69                 	db	105	;'i'
   601  00FED9  20                 	db	32
   602  00FEDA  20                 	db	32
   603  00FEDB  20                 	db	32
   604  00FEDC  00                 	db	0
   605  00FEDD                     STR_5:
   606  00FEDD  50                 	db	80	;'P'
   607  00FEDE  72                 	db	114	;'r'
   608  00FEDF  6F                 	db	111	;'o'
   609  00FEE0  67                 	db	103	;'g'
   610  00FEE1  72                 	db	114	;'r'
   611  00FEE2  61                 	db	97	;'a'
   612  00FEE3  6D                 	db	109	;'m'
   613  00FEE4  20                 	db	32
   614  00FEE5  64                 	db	100	;'d'
   615  00FEE6  65                 	db	101	;'e'
   616  00FEE7  6C                 	db	108	;'l'
   617  00FEE8  20                 	db	32
   618  00FEE9  72                 	db	114	;'r'
   619  00FEEA  65                 	db	101	;'e'
   620  00FEEB  6C                 	db	108	;'l'
   621  00FEEC  6F                 	db	111	;'o'
   622  00FEED  6A                 	db	106	;'j'
   623  00FEEE  20                 	db	32
   624  00FEEF  20                 	db	32
   625  00FEF0  20                 	db	32
   626  00FEF1  00                 	db	0
   627  00FEF2                     STR_1:
   628  00FEF2  56                 	db	86	;'V'
   629  00FEF3  65                 	db	101	;'e'
   630  00FEF4  6E                 	db	110	;'n'
   631  00FEF5  74                 	db	116	;'t'
   632  00FEF6  61                 	db	97	;'a'
   633  00FEF7  6E                 	db	110	;'n'
   634  00FEF8  61                 	db	97	;'a'
   635  00FEF9  20                 	db	32
   636  00FEFA  70                 	db	112	;'p'
   637  00FEFB  72                 	db	114	;'r'
   638  00FEFC  69                 	db	105	;'i'
   639  00FEFD  6E                 	db	110	;'n'
   640  00FEFE  63                 	db	99	;'c'
   641  00FEFF  69                 	db	105	;'i'
   642  00FF00  70                 	db	112	;'p'
   643  00FF01  61                 	db	97	;'a'
   644  00FF02  6C                 	db	108	;'l'
   645  00FF03  20                 	db	32
   646  00FF04  20                 	db	32
   647  00FF05  20                 	db	32
   648  00FF06  00                 	db	0
   649  00FF07                     STR_49:
   650  00FF07  50                 	db	80	;'P'
   651  00FF08  72                 	db	114	;'r'
   652  00FF09  6F                 	db	111	;'o'
   653  00FF0A  67                 	db	103	;'g'
   654  00FF0B  72                 	db	114	;'r'
   655  00FF0C  61                 	db	97	;'a'
   656  00FF0D  6D                 	db	109	;'m'
   657  00FF0E  61                 	db	97	;'a'
   658  00FF0F  63                 	db	99	;'c'
   659  00FF10  69                 	db	105	;'i'
   660  00FF11  6F                 	db	111	;'o'
   661  00FF12  6E                 	db	110	;'n'
   662  00FF13  20                 	db	32
   663  00FF14  64                 	db	100	;'d'
   664  00FF15  65                 	db	101	;'e'
   665  00FF16  20                 	db	32
   666  00FF17  6C                 	db	108	;'l'
   667  00FF18  61                 	db	97	;'a'
   668  00FF19  20                 	db	32
   669  00FF1A  20                 	db	32
   670  00FF1B  00                 	db	0
   671  00FF1C                     STR_59:
   672  00FF1C  69                 	db	105	;'i'
   673  00FF1D  63                 	db	99	;'c'
   674  00FF1E  69                 	db	105	;'i'
   675  00FF1F  61                 	db	97	;'a'
   676  00FF20  72                 	db	114	;'r'
   677  00FF21  20                 	db	32
   678  00FF22  61                 	db	97	;'a'
   679  00FF23  20                 	db	32
   680  00FF24  6C                 	db	108	;'l'
   681  00FF25  6F                 	db	111	;'o'
   682  00FF26  73                 	db	115	;'s'
   683  00FF27  20                 	db	32
   684  00FF28  76                 	db	118	;'v'
   685  00FF29  61                 	db	97	;'a'
   686  00FF2A  6C                 	db	108	;'l'
   687  00FF2B  6F                 	db	111	;'o'
   688  00FF2C  72                 	db	114	;'r'
   689  00FF2D  65                 	db	101	;'e'
   690  00FF2E  73                 	db	115	;'s'
   691  00FF2F  20                 	db	32
   692  00FF30  00                 	db	0
   693  00FF31                     STR_52:
   694  00FF31  54                 	db	84	;'T'
   695  00FF32  65                 	db	101	;'e'
   696  00FF33  6D                 	db	109	;'m'
   697  00FF34  70                 	db	112	;'p'
   698  00FF35  65                 	db	101	;'e'
   699  00FF36  72                 	db	114	;'r'
   700  00FF37  61                 	db	97	;'a'
   701  00FF38  74                 	db	116	;'t'
   702  00FF39  75                 	db	117	;'u'
   703  00FF3A  72                 	db	114	;'r'
   704  00FF3B  61                 	db	97	;'a'
   705  00FF3C  3A                 	db	58	;':'
   706  00FF3D  20                 	db	32
   707  00FF3E  25                 	db	37
   708  00FF3F  2E                 	db	46
   709  00FF40  31                 	db	49	;'1'
   710  00FF41  66                 	db	102	;'f'
   711  00FF42  25                 	db	37
   712  00FF43  63                 	db	99	;'c'
   713  00FF44  43                 	db	67	;'C'
   714  00FF45  00                 	db	0
   715  00FF46                     STR_50:
   716  00FF46  54                 	db	84	;'T'
   717  00FF47  65                 	db	101	;'e'
   718  00FF48  6D                 	db	109	;'m'
   719  00FF49  70                 	db	112	;'p'
   720  00FF4A  65                 	db	101	;'e'
   721  00FF4B  72                 	db	114	;'r'
   722  00FF4C  61                 	db	97	;'a'
   723  00FF4D  74                 	db	116	;'t'
   724  00FF4E  75                 	db	117	;'u'
   725  00FF4F  72                 	db	114	;'r'
   726  00FF50  61                 	db	97	;'a'
   727  00FF51  20                 	db	32
   728  00FF52  64                 	db	100	;'d'
   729  00FF53  65                 	db	101	;'e'
   730  00FF54  6C                 	db	108	;'l'
   731  00FF55  20                 	db	32
   732  00FF56  61                 	db	97	;'a'
   733  00FF57  67                 	db	103	;'g'
   734  00FF58  75                 	db	117	;'u'
   735  00FF59  61                 	db	97	;'a'
   736  00FF5A  00                 	db	0
   737  00FF5B                     STR_58:
   738  00FF5B  BF                 	db	-65
   739  00FF5C  45                 	db	69	;'E'
   740  00FF5D  73                 	db	115	;'s'
   741  00FF5E  74                 	db	116	;'t'
   742  00FF5F  61                 	db	97	;'a'
   743  00FF60  20                 	db	32
   744  00FF61  73                 	db	115	;'s'
   745  00FF62  65                 	db	101	;'e'
   746  00FF63  67                 	db	103	;'g'
   747  00FF64  75                 	db	117	;'u'
   748  00FF65  72                 	db	114	;'r'
   749  00FF66  6F                 	db	111	;'o'
   750  00FF67  20                 	db	32
   751  00FF68  64                 	db	100	;'d'
   752  00FF69  65                 	db	101	;'e'
   753  00FF6A  20                 	db	32
   754  00FF6B  72                 	db	114	;'r'
   755  00FF6C  65                 	db	101	;'e'
   756  00FF6D  69                 	db	105	;'i'
   757  00FF6E  6E                 	db	110	;'n'
   758  00FF6F  00                 	db	0
   759  00FF70                     STR_81:
   760  00FF70  30                 	db	48	;'0'
   761  00FF71  31                 	db	49	;'1'
   762  00FF72  32                 	db	50	;'2'
   763  00FF73  33                 	db	51	;'3'
   764  00FF74  34                 	db	52	;'4'
   765  00FF75  35                 	db	53	;'5'
   766  00FF76  36                 	db	54	;'6'
   767  00FF77  37                 	db	55	;'7'
   768  00FF78  38                 	db	56	;'8'
   769  00FF79  39                 	db	57	;'9'
   770  00FF7A  41                 	db	65	;'A'
   771  00FF7B  42                 	db	66	;'B'
   772  00FF7C  43                 	db	67	;'C'
   773  00FF7D  44                 	db	68	;'D'
   774  00FF7E  45                 	db	69	;'E'
   775  00FF7F  46                 	db	70	;'F'
   776  00FF80  00                 	db	0
   777  00FF81                     STR_82:
   778  00FF81  30                 	db	48	;'0'
   779  00FF82  31                 	db	49	;'1'
   780  00FF83  32                 	db	50	;'2'
   781  00FF84  33                 	db	51	;'3'
   782  00FF85  34                 	db	52	;'4'
   783  00FF86  35                 	db	53	;'5'
   784  00FF87  36                 	db	54	;'6'
   785  00FF88  37                 	db	55	;'7'
   786  00FF89  38                 	db	56	;'8'
   787  00FF8A  39                 	db	57	;'9'
   788  00FF8B  61                 	db	97	;'a'
   789  00FF8C  62                 	db	98	;'b'
   790  00FF8D  63                 	db	99	;'c'
   791  00FF8E  64                 	db	100	;'d'
   792  00FF8F  65                 	db	101	;'e'
   793  00FF90  66                 	db	102	;'f'
   794  00FF91  00                 	db	0
   795  00FF92                     STR_7:
   796  00FF92  25                 	db	37
   797  00FF93  30                 	db	48	;'0'
   798  00FF94  32                 	db	50	;'2'
   799  00FF95  75                 	db	117	;'u'
   800  00FF96  3A                 	db	58	;':'
   801  00FF97  25                 	db	37
   802  00FF98  30                 	db	48	;'0'
   803  00FF99  32                 	db	50	;'2'
   804  00FF9A  75                 	db	117	;'u'
   805  00FF9B  20                 	db	32
   806  00FF9C  20                 	db	32
   807  00FF9D  20                 	db	32
   808  00FF9E  20                 	db	32
   809  00FF9F  20                 	db	32
   810  00FFA0  20                 	db	32
   811  00FFA1  20                 	db	32
   812  00FFA2  00                 	db	0
   813  00FFA3                     STR_3:
   814  00FFA3  25                 	db	37
   815  00FFA4  30                 	db	48	;'0'
   816  00FFA5  32                 	db	50	;'2'
   817  00FFA6  75                 	db	117	;'u'
   818  00FFA7  3A                 	db	58	;':'
   819  00FFA8  25                 	db	37
   820  00FFA9  30                 	db	48	;'0'
   821  00FFAA  32                 	db	50	;'2'
   822  00FFAB  75                 	db	117	;'u'
   823  00FFAC  3A                 	db	58	;':'
   824  00FFAD  25                 	db	37
   825  00FFAE  30                 	db	48	;'0'
   826  00FFAF  32                 	db	50	;'2'
   827  00FFB0  75                 	db	117	;'u'
   828  00FFB1  20                 	db	32
   829  00FFB2  20                 	db	32
   830  00FFB3  00                 	db	0
   831  00FFB4                     STR_25:
   832  00FFB4  49                 	db	73	;'I'
   833  00FFB5  6E                 	db	110	;'n'
   834  00FFB6  69                 	db	105	;'i'
   835  00FFB7  63                 	db	99	;'c'
   836  00FFB8  20                 	db	32
   837  00FFB9  25                 	db	37
   838  00FFBA  30                 	db	48	;'0'
   839  00FFBB  32                 	db	50	;'2'
   840  00FFBC  75                 	db	117	;'u'
   841  00FFBD  3A                 	db	58	;':'
   842  00FFBE  25                 	db	37
   843  00FFBF  30                 	db	48	;'0'
   844  00FFC0  32                 	db	50	;'2'
   845  00FFC1  75                 	db	117	;'u'
   846  00FFC2  00                 	db	0
   847  00FFC3                     STR_4:
   848  00FFC3  54                 	db	84	;'T'
   849  00FFC4  41                 	db	65	;'A'
   850  00FFC5  3A                 	db	58	;':'
   851  00FFC6  20                 	db	32
   852  00FFC7  25                 	db	37
   853  00FFC8  2E                 	db	46
   854  00FFC9  31                 	db	49	;'1'
   855  00FFCA  66                 	db	102	;'f'
   856  00FFCB  25                 	db	37
   857  00FFCC  63                 	db	99	;'c'
   858  00FFCD  43                 	db	67	;'C'
   859  00FFCE  20                 	db	32
   860  00FFCF  20                 	db	32
   861  00FFD0  00                 	db	0
   862  00FFD1                     STR_26:
   863  00FFD1  46                 	db	70	;'F'
   864  00FFD2  69                 	db	105	;'i'
   865  00FFD3  6E                 	db	110	;'n'
   866  00FFD4  20                 	db	32
   867  00FFD5  25                 	db	37
   868  00FFD6  30                 	db	48	;'0'
   869  00FFD7  32                 	db	50	;'2'
   870  00FFD8  75                 	db	117	;'u'
   871  00FFD9  3A                 	db	58	;':'
   872  00FFDA  25                 	db	37
   873  00FFDB  30                 	db	48	;'0'
   874  00FFDC  32                 	db	50	;'2'
   875  00FFDD  75                 	db	117	;'u'
   876  00FFDE  00                 	db	0
   877  00FFDF                     STR_80:
   878  00FFDF  28                 	db	40
   879  00FFE0  6E                 	db	110	;'n'
   880  00FFE1  75                 	db	117	;'u'
   881  00FFE2  6C                 	db	108	;'l'
   882  00FFE3  6C                 	db	108	;'l'
   883  00FFE4  29                 	db	41
   884  00FFE5  00                 	db	0
   885  00FFE6                     STR_54:
   886  00FFE6  25                 	db	37
   887  00FFE7  30                 	db	48	;'0'
   888  00FFE8  2E                 	db	46
   889  00FFE9  31                 	db	49	;'1'
   890  00FFEA  66                 	db	102	;'f'
   891  00FFEB  00                 	db	0
   892  00FFEC                     STR_56:
   893  00FFEC  25                 	db	37
   894  00FFED  2E                 	db	46
   895  00FFEE  31                 	db	49	;'1'
   896  00FFEF  66                 	db	102	;'f'
   897  00FFF0  00                 	db	0
   898  00FFF1                     STR_9:
   899  00FFF1  25                 	db	37
   900  00FFF2  64                 	db	100	;'d'
   901  00FFF3  00                 	db	0
   902  00FFF4                     STR_65:
   903  00FFF4  25                 	db	37
   904  00FFF5  73                 	db	115	;'s'
   905  00FFF6  00                 	db	0
   906  0000                     
   907                           ; #config settings
   908  00FFF7  00                 	db	0	; dummy byte at the end
   909  0000                     
   910                           	psect	nvBANK0
   911  0000EF                     __pnvBANK0:
   912                           	opt stack 0
   913  0000EF                     _anio_d:
   914                           	opt stack 0
   915  0000EF                     	ds	1
   916  0000F0                     _anio_u:
   917                           	opt stack 0
   918  0000F0                     	ds	1
   919  0000F1                     _dia_semana:
   920                           	opt stack 0
   921  0000F1                     	ds	1
   922  0000F2                     _fecha_d:
   923                           	opt stack 0
   924  0000F2                     	ds	1
   925  0000F3                     _fecha_u:
   926                           	opt stack 0
   927  0000F3                     	ds	1
   928  0000F4                     _hora_d:
   929                           	opt stack 0
   930  0000F4                     	ds	1
   931  0000F5                     _hora_u:
   932                           	opt stack 0
   933  0000F5                     	ds	1
   934  0000F6                     _mes_d:
   935                           	opt stack 0
   936  0000F6                     	ds	1
   937  0000F7                     _mes_u:
   938                           	opt stack 0
   939  0000F7                     	ds	1
   940  0000F8                     _minuto_d:
   941                           	opt stack 0
   942  0000F8                     	ds	1
   943  0000F9                     _minuto_u:
   944                           	opt stack 0
   945  0000F9                     	ds	1
   946  0000FA                     _segundo_d:
   947                           	opt stack 0
   948  0000FA                     	ds	1
   949  0000FB                     _segundo_u:
   950                           	opt stack 0
   951  0000FB                     	ds	1
   952  0000                     _ANCON0	set	3912
   953  0000                     _ANCON1	set	3913
   954  0000                     _RTCCFG	set	3903
   955  0000                     _RTCCFGbits	set	3903
   956  0000                     _ADCON0	set	4034
   957  0000                     _ADCON0bits	set	4034
   958  0000                     _ADCON1	set	4033
   959  0000                     _ADRESH	set	4036
   960  0000                     _ALRMCFGbits	set	3985
   961  0000                     _EECON2	set	4007
   962  0000                     _INTCONbits	set	4082
   963  0000                     _LATAbits	set	3977
   964  0000                     _LATBbits	set	3978
   965  0000                     _OSCCONbits	set	4051
   966  0000                     _OSCTUNEbits	set	3995
   967  0000                     _PIE3bits	set	4003
   968  0000                     _PORTAbits	set	3968
   969  0000                     _PORTCbits	set	3970
   970  0000                     _RTCVALH	set	3993
   971  0000                     _RTCVALL	set	3992
   972  0000                     _T1CONbits	set	4045
   973  0000                     _TRISA	set	3986
   974  0000                     _TRISB	set	3987
   975  0000                     _TRISBbits	set	3987
   976  0000                     _TRISC	set	3988
   977                           
   978                           	psect	cinit
   979  00B7FC                     __pcinit:
   980                           	opt stack 0
   981  00B7FC                     start_initialization:
   982                           	opt stack 0
   983  00B7FC                     __initialization:
   984                           	opt stack 0
   985                           
   986                           ; Clear objects allocated to BANK1 (24 bytes)
   987  00B7FC  EE01  F038         	lfsr	0,__pbssBANK1
   988  00B800  0E18               	movlw	24
   989  00B802                     clear_0:
   990  00B802  6AEE               	clrf	postinc0,c
   991  00B804  06E8               	decf	wreg,f,c
   992  00B806  E1FD               	bnz	clear_0
   993                           
   994                           ; Clear objects allocated to BANK0 (50 bytes)
   995  00B808  EE00  F0AA         	lfsr	0,__pbssBANK0
   996  00B80C  0E32               	movlw	50
   997  00B80E                     clear_1:
   998  00B80E  6AEE               	clrf	postinc0,c
   999  00B810  06E8               	decf	wreg,f,c
  1000  00B812  E1FD               	bnz	clear_1
  1001                           
  1002                           ; Initialize objects allocated to BANK1 (56 bytes)
  1003                           ; load TBLPTR registers with __pidataBANK1
  1004  00B814  0E4E               	movlw	low __pidataBANK1
  1005  00B816  6EF6               	movwf	tblptrl,c
  1006  00B818  0EB5               	movlw	high __pidataBANK1
  1007  00B81A  6EF7               	movwf	tblptrh,c
  1008  00B81C  0E00               	movlw	low (__pidataBANK1 shr (0+16))
  1009  00B81E  6EF8               	movwf	tblptru,c
  1010  00B820  EE01  F000         	lfsr	0,__pdataBANK1
  1011  00B824  EE10 F038          	lfsr	1,56
  1012  00B828                     copy_data0:
  1013  00B828  0009               	tblrd		*+
  1014  00B82A  CFF5 FFEE          	movff	tablat,postinc0
  1015  00B82E  50E5               	movf	postdec1,w,c
  1016  00B830  50E1               	movf	fsr1l,w,c
  1017  00B832  E1FA               	bnz	copy_data0
  1018                           
  1019                           ; Initialize objects allocated to BANK0 (19 bytes)
  1020                           ; load TBLPTR registers with __pidataBANK0
  1021  00B834  0E87               	movlw	low __pidataBANK0
  1022  00B836  6EF6               	movwf	tblptrl,c
  1023  00B838  0EB4               	movlw	high __pidataBANK0
  1024  00B83A  6EF7               	movwf	tblptrh,c
  1025  00B83C  0E00               	movlw	low (__pidataBANK0 shr (0+16))
  1026  00B83E  6EF8               	movwf	tblptru,c
  1027  00B840  EE00  F0DC         	lfsr	0,__pdataBANK0
  1028  00B844  EE10 F013          	lfsr	1,19
  1029  00B848                     copy_data1:
  1030  00B848  0009               	tblrd		*+
  1031  00B84A  CFF5 FFEE          	movff	tablat,postinc0
  1032  00B84E  50E5               	movf	postdec1,w,c
  1033  00B850  50E1               	movf	fsr1l,w,c
  1034  00B852  E1FA               	bnz	copy_data1
  1035                           
  1036                           ; Initialize objects allocated to COMRAM (2 bytes)
  1037                           ; load TBLPTR registers with __pidataCOMRAM
  1038  00B854  0E72               	movlw	low __pidataCOMRAM
  1039  00B856  6EF6               	movwf	tblptrl,c
  1040  00B858  0EB4               	movlw	high __pidataCOMRAM
  1041  00B85A  6EF7               	movwf	tblptrh,c
  1042  00B85C  0E00               	movlw	low (__pidataCOMRAM shr (0+16))
  1043  00B85E  6EF8               	movwf	tblptru,c
  1044  00B860  0009               	tblrd		*+	;fetch initializer
  1045  00B862  CFF5 F05E          	movff	tablat,__pdataCOMRAM
  1046  00B866  0009               	tblrd		*+	;fetch initializer
  1047  00B868  CFF5 F05F          	movff	tablat,__pdataCOMRAM+1
  1048  00B86C                     end_of_initialization:
  1049                           	opt stack 0
  1050  00B86C                     __end_of__initialization:
  1051                           	opt stack 0
  1052  00B86C  0E00               	movlw	low (__Lmediumconst shr (0+16))
  1053  00B86E  6EF8               	movwf	tblptru,c
  1054  00B870  0100               	movlb	0
  1055  00B872  EFBF  F065         	goto	_main	;jump to C main() function
  1056                           tblptru	equ	0xFF8
  1057                           tblptrh	equ	0xFF7
  1058                           tblptrl	equ	0xFF6
  1059                           tablat	equ	0xFF5
  1060                           postinc0	equ	0xFEE
  1061                           wreg	equ	0xFE8
  1062                           postdec1	equ	0xFE5
  1063                           fsr1l	equ	0xFE1
  1064                           
  1065                           	psect	dataCOMRAM
  1066  00005E                     __pdataCOMRAM:
  1067                           	opt stack 0
  1068  00005E                     _hora:
  1069                           	opt stack 0
  1070  00005E                     	ds	2
  1071                           tblptru	equ	0xFF8
  1072                           tblptrh	equ	0xFF7
  1073                           tblptrl	equ	0xFF6
  1074                           tablat	equ	0xFF5
  1075                           postinc0	equ	0xFEE
  1076                           wreg	equ	0xFE8
  1077                           postdec1	equ	0xFE5
  1078                           fsr1l	equ	0xFE1
  1079                           
  1080                           	psect	bssBANK0
  1081  0000AA                     __pbssBANK0:
  1082                           	opt stack 0
  1083  0000AA                     _RtccTimeVal:
  1084                           	opt stack 0
  1085  0000AA                     	ds	4
  1086  0000AE                     _diasem:
  1087                           	opt stack 0
  1088  0000AE                     	ds	2
  1089  0000B0                     _i:
  1090                           	opt stack 0
  1091  0000B0                     	ds	2
  1092  0000B2                     _segundo:
  1093                           	opt stack 0
  1094  0000B2                     	ds	2
  1095  0000B4                     _CuentamSeg:
  1096                           	opt stack 0
  1097  0000B4                     	ds	1
  1098  0000B5                     _Flag_1:
  1099                           	opt stack 0
  1100  0000B5                     	ds	1
  1101  0000B6                     _Humedad:
  1102                           	opt stack 0
  1103  0000B6                     	ds	1
  1104  0000B7                     _Sw_Center:
  1105                           	opt stack 0
  1106  0000B7                     	ds	1
  1107  0000B8                     _Sw_Down:
  1108                           	opt stack 0
  1109  0000B8                     	ds	1
  1110  0000B9                     _Sw_Left:
  1111                           	opt stack 0
  1112  0000B9                     	ds	1
  1113  0000BA                     _Sw_Right:
  1114                           	opt stack 0
  1115  0000BA                     	ds	1
  1116  0000BB                     _Sw_Up:
  1117                           	opt stack 0
  1118  0000BB                     	ds	1
  1119  0000BC                     _fin_min_ilum:
  1120                           	opt stack 0
  1121  0000BC                     	ds	1
  1122  0000BD                     _inicio_min_ilum:
  1123                           	opt stack 0
  1124  0000BD                     	ds	1
  1125  0000BE                     _inicio_min_riego:
  1126                           	opt stack 0
  1127  0000BE                     	ds	1
  1128  0000BF                     _lectura:
  1129                           	opt stack 0
  1130  0000BF                     	ds	1
  1131  0000C0                     _buffer1:
  1132                           	opt stack 0
  1133  0000C0                     	ds	20
  1134  0000D4                     _RtccDate:
  1135                           	opt stack 0
  1136  0000D4                     	ds	4
  1137  0000D8                     _RtccTime:
  1138                           	opt stack 0
  1139  0000D8                     	ds	4
  1140                           tblptru	equ	0xFF8
  1141                           tblptrh	equ	0xFF7
  1142                           tblptrl	equ	0xFF6
  1143                           tablat	equ	0xFF5
  1144                           postinc0	equ	0xFEE
  1145                           wreg	equ	0xFE8
  1146                           postdec1	equ	0xFE5
  1147                           fsr1l	equ	0xFE1
  1148                           
  1149                           	psect	dataBANK0
  1150  0000DC                     __pdataBANK0:
  1151                           	opt stack 0
  1152  0000DC                     _grados:
  1153                           	opt stack 0
  1154  0000DC                     	ds	3
  1155  0000DF                     _temp_prog:
  1156                           	opt stack 0
  1157  0000DF                     	ds	3
  1158  0000E2                     _anio:
  1159                           	opt stack 0
  1160  0000E2                     	ds	2
  1161  0000E4                     _dia:
  1162                           	opt stack 0
  1163  0000E4                     	ds	2
  1164  0000E6                     _mes:
  1165                           	opt stack 0
  1166  0000E6                     	ds	2
  1167  0000E8                     _minuto:
  1168                           	opt stack 0
  1169  0000E8                     	ds	2
  1170  0000EA                     _fin_hora_ilum:
  1171                           	opt stack 0
  1172  0000EA                     	ds	1
  1173  0000EB                     _fin_hora_riego:
  1174                           	opt stack 0
  1175  0000EB                     	ds	1
  1176  0000EC                     _fin_min_riego:
  1177                           	opt stack 0
  1178  0000EC                     	ds	1
  1179  0000ED                     _inicio_hora_ilum:
  1180                           	opt stack 0
  1181  0000ED                     	ds	1
  1182  0000EE                     _inicio_hora_riego:
  1183                           	opt stack 0
  1184  0000EE                     	ds	1
  1185                           tblptru	equ	0xFF8
  1186                           tblptrh	equ	0xFF7
  1187                           tblptrl	equ	0xFF6
  1188                           tablat	equ	0xFF5
  1189                           postinc0	equ	0xFEE
  1190                           wreg	equ	0xFE8
  1191                           postdec1	equ	0xFE5
  1192                           fsr1l	equ	0xFE1
  1193                           
  1194                           	psect	bssBANK1
  1195  000138                     __pbssBANK1:
  1196                           	opt stack 0
  1197  000138                     _RtccAlrmTimeDate:
  1198                           	opt stack 0
  1199  000138                     	ds	8
  1200  000140                     _RtccTimeDate:
  1201                           	opt stack 0
  1202  000140                     	ds	8
  1203  000148                     _Rtcc_read_TimeDate:
  1204                           	opt stack 0
  1205  000148                     	ds	8
  1206                           tblptru	equ	0xFF8
  1207                           tblptrh	equ	0xFF7
  1208                           tblptrl	equ	0xFF6
  1209                           tablat	equ	0xFF5
  1210                           postinc0	equ	0xFEE
  1211                           wreg	equ	0xFE8
  1212                           postdec1	equ	0xFE5
  1213                           fsr1l	equ	0xFE1
  1214                           
  1215                           	psect	dataBANK1
  1216  000100                     __pdataBANK1:
  1217                           	opt stack 0
  1218  000100                     _posicionesUp:
  1219                           	opt stack 0
  1220  000100                     	ds	32
  1221  000120                     _posicionesLeft:
  1222                           	opt stack 0
  1223  000120                     	ds	24
  1224                           tblptru	equ	0xFF8
  1225                           tblptrh	equ	0xFF7
  1226                           tblptrl	equ	0xFF6
  1227                           tablat	equ	0xFF5
  1228                           postinc0	equ	0xFEE
  1229                           wreg	equ	0xFE8
  1230                           postdec1	equ	0xFE5
  1231                           fsr1l	equ	0xFE1
  1232                           
  1233                           	psect	cstackBANK0
  1234  000060                     __pcstackBANK0:
  1235                           	opt stack 0
  1236  000060                     _sprintf$2476:
  1237                           	opt stack 0
  1238                           
  1239                           ; 3 bytes @ 0x0
  1240  000060                     	ds	3
  1241  000063                     _sprintf$1263:
  1242                           	opt stack 0
  1243                           
  1244                           ; 2 bytes @ 0x3
  1245  000063                     	ds	2
  1246  000065                     _sprintf$1264:
  1247                           	opt stack 0
  1248                           
  1249                           ; 2 bytes @ 0x5
  1250  000065                     	ds	2
  1251  000067                     _sprintf$1265:
  1252                           	opt stack 0
  1253                           
  1254                           ; 2 bytes @ 0x7
  1255  000067                     	ds	2
  1256  000069                     _sprintf$1266:
  1257                           	opt stack 0
  1258                           
  1259                           ; 2 bytes @ 0x9
  1260  000069                     	ds	2
  1261  00006B                     _sprintf$1272:
  1262                           	opt stack 0
  1263                           
  1264                           ; 2 bytes @ 0xB
  1265  00006B                     	ds	2
  1266  00006D                     sprintf@idx:
  1267                           	opt stack 0
  1268                           
  1269                           ; 1 bytes @ 0xD
  1270  00006D                     	ds	1
  1271  00006E                     sprintf@cp:
  1272                           	opt stack 0
  1273                           
  1274                           ; 2 bytes @ 0xE
  1275  00006E                     	ds	2
  1276  000070                     sprintf@len:
  1277                           	opt stack 0
  1278                           
  1279                           ; 2 bytes @ 0x10
  1280  000070                     	ds	2
  1281  000072                     sprintf@ap:
  1282                           	opt stack 0
  1283                           
  1284                           ; 2 bytes @ 0x12
  1285  000072                     	ds	2
  1286  000074                     sprintf@tmpval:
  1287                           	opt stack 0
  1288                           
  1289                           ; 4 bytes @ 0x14
  1290  000074                     	ds	4
  1291  000078                     sprintf@exp:
  1292                           	opt stack 0
  1293                           
  1294                           ; 2 bytes @ 0x18
  1295  000078                     	ds	2
  1296  00007A                     sprintf@fval:
  1297                           	opt stack 0
  1298                           
  1299                           ; 3 bytes @ 0x1A
  1300  00007A                     	ds	3
  1301  00007D                     sprintf@val:
  1302                           	opt stack 0
  1303                           
  1304                           ; 4 bytes @ 0x1D
  1305  00007D                     	ds	4
  1306  000081                     sprintf@prec:
  1307                           	opt stack 0
  1308                           
  1309                           ; 2 bytes @ 0x21
  1310  000081                     	ds	2
  1311  000083                     sprintf@width:
  1312                           	opt stack 0
  1313                           
  1314                           ; 2 bytes @ 0x23
  1315  000083                     	ds	2
  1316  000085                     sprintf@c:
  1317                           	opt stack 0
  1318                           
  1319                           ; 1 bytes @ 0x25
  1320  000085                     	ds	1
  1321  000086                     sprintf@flag:
  1322                           	opt stack 0
  1323                           
  1324                           ; 2 bytes @ 0x26
  1325  000086                     	ds	2
  1326  000088                     Convert_diasem@buffer_dia:
  1327                           	opt stack 0
  1328                           
  1329                           ; 20 bytes @ 0x28
  1330  000088                     	ds	20
  1331  00009C                     escribir@columna:
  1332                           	opt stack 0
  1333                           
  1334                           ; 1 bytes @ 0x3C
  1335  00009C                     	ds	1
  1336  00009D                     escribir@formato:
  1337                           	opt stack 0
  1338                           
  1339                           ; 2 bytes @ 0x3D
  1340  00009D                     	ds	2
  1341  00009F                     escribir@variable:
  1342                           	opt stack 0
  1343                           
  1344                           ; 1 bytes @ 0x3F
  1345  00009F                     	ds	1
  1346  0000A0                     V_ProgRiegoIlum@i_hora_ilum_tr:
  1347                           	opt stack 0
  1348  0000A0                     V_ProgReloj@cte:
  1349                           	opt stack 0
  1350                           
  1351                           ; 2 bytes @ 0x40
  1352  0000A0                     	ds	1
  1353  0000A1                     V_ProgRiegoIlum@i_min_ilum_tr:
  1354                           	opt stack 0
  1355                           
  1356                           ; 1 bytes @ 0x41
  1357  0000A1                     	ds	1
  1358  0000A2                     V_ProgReloj@dia_tr:
  1359                           	opt stack 0
  1360  0000A2                     V_ProgRiegoIlum@f_hora_ilum_tr:
  1361                           	opt stack 0
  1362                           
  1363                           ; 1 bytes @ 0x42
  1364  0000A2                     	ds	1
  1365  0000A3                     V_ProgReloj@mes_tr:
  1366                           	opt stack 0
  1367  0000A3                     V_ProgRiegoIlum@f_min_ilum_tr:
  1368                           	opt stack 0
  1369                           
  1370                           ; 1 bytes @ 0x43
  1371  0000A3                     	ds	1
  1372  0000A4                     V_ProgReloj@anio_tr:
  1373                           	opt stack 0
  1374  0000A4                     V_ProgRiegoIlum@i_hora_riego_tr:
  1375                           	opt stack 0
  1376                           
  1377                           ; 1 bytes @ 0x44
  1378  0000A4                     	ds	1
  1379  0000A5                     V_ProgReloj@hora_tr:
  1380                           	opt stack 0
  1381  0000A5                     V_ProgRiegoIlum@i_min_riego_tr:
  1382                           	opt stack 0
  1383                           
  1384                           ; 1 bytes @ 0x45
  1385  0000A5                     	ds	1
  1386  0000A6                     V_ProgReloj@minuto_tr:
  1387                           	opt stack 0
  1388  0000A6                     V_ProgRiegoIlum@f_hora_riego_tr:
  1389                           	opt stack 0
  1390                           
  1391                           ; 1 bytes @ 0x46
  1392  0000A6                     	ds	1
  1393  0000A7                     V_ProgReloj@diasem_tr:
  1394                           	opt stack 0
  1395  0000A7                     V_ProgRiegoIlum@f_min_riego_tr:
  1396                           	opt stack 0
  1397                           
  1398                           ; 1 bytes @ 0x47
  1399  0000A7                     	ds	1
  1400  0000A8                     V_ProgReloj@posicion:
  1401                           	opt stack 0
  1402  0000A8                     V_ProgRiegoIlum@posicion:
  1403                           	opt stack 0
  1404                           
  1405                           ; 2 bytes @ 0x48
  1406  0000A8                     	ds	2
  1407                           tblptru	equ	0xFF8
  1408                           tblptrh	equ	0xFF7
  1409                           tblptrl	equ	0xFF6
  1410                           tablat	equ	0xFF5
  1411                           postinc0	equ	0xFEE
  1412                           wreg	equ	0xFE8
  1413                           postdec1	equ	0xFE5
  1414                           fsr1l	equ	0xFE1
  1415                           
  1416                           	psect	cstackCOMRAM
  1417  000001                     __pcstackCOMRAM:
  1418                           	opt stack 0
  1419  000001                     ??_Lcd_Cmd:
  1420  000001                     ??_Lcd_Chr_CP:
  1421  000001                     ??_control_leds_iluminacion:
  1422  000001                     ??_control_leds_riego:
  1423  000001                     ??_isdigit:
  1424  000001                     ??_lee_temperatura:
  1425  000001                     ?___awmod:
  1426                           	opt stack 0
  1427  000001                     ?___ftpack:
  1428                           	opt stack 0
  1429  000001                     ?___ftneg:
  1430                           	opt stack 0
  1431  000001                     ?__tdiv_to_l_:
  1432                           	opt stack 0
  1433  000001                     ?__div_to_l_:
  1434                           	opt stack 0
  1435  000001                     ?___lldiv:
  1436                           	opt stack 0
  1437  000001                     RtccReadDate@pDt:
  1438                           	opt stack 0
  1439  000001                     RtccReadTime@pTm:
  1440                           	opt stack 0
  1441  000001                     RtccWriteDate@pDt:
  1442                           	opt stack 0
  1443  000001                     RtccWriteTime@pTm:
  1444                           	opt stack 0
  1445  000001                     ___awmod@dividend:
  1446                           	opt stack 0
  1447  000001                     __div_to_l_@f1:
  1448                           	opt stack 0
  1449  000001                     ___ftpack@arg:
  1450                           	opt stack 0
  1451  000001                     __tdiv_to_l_@f1:
  1452                           	opt stack 0
  1453  000001                     ___ftge@ff1:
  1454                           	opt stack 0
  1455  000001                     ___ftneg@f1:
  1456                           	opt stack 0
  1457  000001                     ___lldiv@dividend:
  1458                           	opt stack 0
  1459                           
  1460                           ; 4 bytes @ 0x0
  1461  000001                     	ds	1
  1462  000002                     _isdigit$2240:
  1463                           	opt stack 0
  1464                           
  1465                           ; 1 bytes @ 0x1
  1466  000002                     	ds	1
  1467  000003                     Lcd_Chr_CP@data:
  1468                           	opt stack 0
  1469  000003                     Lcd_Cmd@data:
  1470                           	opt stack 0
  1471  000003                     RtccWriteDate@di:
  1472                           	opt stack 0
  1473  000003                     RtccWriteTime@di:
  1474                           	opt stack 0
  1475  000003                     isdigit@c:
  1476                           	opt stack 0
  1477  000003                     ___awmod@divisor:
  1478                           	opt stack 0
  1479  000003                     RtccReadDate@rTD1:
  1480                           	opt stack 0
  1481  000003                     RtccReadTime@rTD1:
  1482                           	opt stack 0
  1483                           
  1484                           ; 8 bytes @ 0x2
  1485  000003                     	ds	1
  1486  000004                     ??_Lcd_Init:
  1487  000004                     ___ftpack@exp:
  1488                           	opt stack 0
  1489  000004                     __div_to_l_@f2:
  1490                           	opt stack 0
  1491  000004                     __tdiv_to_l_@f2:
  1492                           	opt stack 0
  1493  000004                     ___ftge@ff2:
  1494                           	opt stack 0
  1495                           
  1496                           ; 3 bytes @ 0x3
  1497  000004                     	ds	1
  1498  000005                     Lcd_Init@data:
  1499                           	opt stack 0
  1500  000005                     RtccWriteDate@wasOn:
  1501                           	opt stack 0
  1502  000005                     RtccWriteTime@wasOn:
  1503                           	opt stack 0
  1504  000005                     ___awmod@counter:
  1505                           	opt stack 0
  1506  000005                     ___ftpack@sign:
  1507                           	opt stack 0
  1508  000005                     ___lldiv@divisor:
  1509                           	opt stack 0
  1510                           
  1511                           ; 4 bytes @ 0x4
  1512  000005                     	ds	1
  1513  000006                     ??___ftpack:
  1514  000006                     RtccWriteDate@wasAlrm:
  1515                           	opt stack 0
  1516  000006                     RtccWriteTime@wasAlrm:
  1517                           	opt stack 0
  1518  000006                     ___awmod@sign:
  1519                           	opt stack 0
  1520                           
  1521                           ; 1 bytes @ 0x5
  1522  000006                     	ds	1
  1523  000007                     ??__tdiv_to_l_:
  1524  000007                     ??___ftge:
  1525  000007                     ?___awdiv:
  1526                           	opt stack 0
  1527  000007                     RtccWriteTime@wasWrEn:
  1528                           	opt stack 0
  1529  000007                     RtccWriteDate@tempYear:
  1530                           	opt stack 0
  1531  000007                     ___awdiv@dividend:
  1532                           	opt stack 0
  1533  000007                     __div_to_l_@quot:
  1534                           	opt stack 0
  1535                           
  1536                           ; 4 bytes @ 0x6
  1537  000007                     	ds	1
  1538  000008                     RtccWriteTime@tempMinSec:
  1539                           	opt stack 0
  1540                           
  1541                           ; 2 bytes @ 0x7
  1542  000008                     	ds	1
  1543  000009                     ?___lbtoft:
  1544                           	opt stack 0
  1545  000009                     ?___lltoft:
  1546                           	opt stack 0
  1547  000009                     RtccWriteDate@wasWrEn:
  1548                           	opt stack 0
  1549  000009                     ___awdiv@divisor:
  1550                           	opt stack 0
  1551  000009                     ___lldiv@quotient:
  1552                           	opt stack 0
  1553  000009                     ___lltoft@c:
  1554                           	opt stack 0
  1555                           
  1556                           ; 4 bytes @ 0x8
  1557  000009                     	ds	1
  1558  00000A                     RtccWriteDate@tempDayMonth:
  1559                           	opt stack 0
  1560  00000A                     RtccWriteTime@tempHourWDay:
  1561                           	opt stack 0
  1562  00000A                     __tdiv_to_l_@quot:
  1563                           	opt stack 0
  1564                           
  1565                           ; 4 bytes @ 0x9
  1566  00000A                     	ds	1
  1567  00000B                     ___awdiv@counter:
  1568                           	opt stack 0
  1569  00000B                     __div_to_l_@cntr:
  1570                           	opt stack 0
  1571  00000B                     RtccReadDate@rTD0:
  1572                           	opt stack 0
  1573  00000B                     RtccReadTime@rTD0:
  1574                           	opt stack 0
  1575                           
  1576                           ; 8 bytes @ 0xA
  1577  00000B                     	ds	1
  1578  00000C                     ___awdiv@sign:
  1579                           	opt stack 0
  1580  00000C                     __div_to_l_@exp1:
  1581                           	opt stack 0
  1582  00000C                     ___lbtoft@c:
  1583                           	opt stack 0
  1584  00000C                     RtccWriteDate@tempHourWDay:
  1585                           	opt stack 0
  1586                           
  1587                           ; 2 bytes @ 0xB
  1588  00000C                     	ds	1
  1589  00000D                     ??___lltoft:
  1590  00000D                     ___lldiv@counter:
  1591                           	opt stack 0
  1592  00000D                     ___awdiv@quotient:
  1593                           	opt stack 0
  1594                           
  1595                           ; 2 bytes @ 0xC
  1596  00000D                     	ds	1
  1597  00000E                     ?___llmod:
  1598                           	opt stack 0
  1599  00000E                     __tdiv_to_l_@cntr:
  1600                           	opt stack 0
  1601  00000E                     ___llmod@dividend:
  1602                           	opt stack 0
  1603                           
  1604                           ; 4 bytes @ 0xD
  1605  00000E                     	ds	1
  1606  00000F                     ?___wmul:
  1607                           	opt stack 0
  1608  00000F                     __tdiv_to_l_@exp1:
  1609                           	opt stack 0
  1610  00000F                     ___wmul@multiplier:
  1611                           	opt stack 0
  1612                           
  1613                           ; 2 bytes @ 0xE
  1614  00000F                     	ds	2
  1615  000011                     ___lltoft@exp:
  1616                           	opt stack 0
  1617  000011                     ___wmul@multiplicand:
  1618                           	opt stack 0
  1619                           
  1620                           ; 2 bytes @ 0x10
  1621  000011                     	ds	1
  1622  000012                     ___llmod@divisor:
  1623                           	opt stack 0
  1624                           
  1625                           ; 4 bytes @ 0x11
  1626  000012                     	ds	1
  1627  000013                     ___wmul@product:
  1628                           	opt stack 0
  1629                           
  1630                           ; 2 bytes @ 0x12
  1631  000013                     	ds	2
  1632  000015                     ?___ftmul:
  1633                           	opt stack 0
  1634  000015                     ___ftmul@f1:
  1635                           	opt stack 0
  1636                           
  1637                           ; 3 bytes @ 0x14
  1638  000015                     	ds	1
  1639  000016                     ___llmod@counter:
  1640                           	opt stack 0
  1641                           
  1642                           ; 1 bytes @ 0x15
  1643  000016                     	ds	2
  1644  000018                     ___ftmul@f2:
  1645                           	opt stack 0
  1646                           
  1647                           ; 3 bytes @ 0x17
  1648  000018                     	ds	3
  1649  00001B                     ??___ftmul:
  1650                           
  1651                           ; 0 bytes @ 0x1A
  1652  00001B                     	ds	3
  1653  00001E                     ___ftmul@exp:
  1654                           	opt stack 0
  1655                           
  1656                           ; 1 bytes @ 0x1D
  1657  00001E                     	ds	1
  1658  00001F                     ___ftmul@f3_as_product:
  1659                           	opt stack 0
  1660                           
  1661                           ; 3 bytes @ 0x1E
  1662  00001F                     	ds	3
  1663  000022                     ___ftmul@cntr:
  1664                           	opt stack 0
  1665                           
  1666                           ; 1 bytes @ 0x21
  1667  000022                     	ds	1
  1668  000023                     ___ftmul@sign:
  1669                           	opt stack 0
  1670                           
  1671                           ; 1 bytes @ 0x22
  1672  000023                     	ds	1
  1673  000024                     ?_fround:
  1674                           	opt stack 0
  1675  000024                     ?_scale:
  1676                           	opt stack 0
  1677                           
  1678                           ; 3 bytes @ 0x23
  1679  000024                     	ds	3
  1680  000027                     _fround$2474:
  1681                           	opt stack 0
  1682  000027                     _scale$2475:
  1683                           	opt stack 0
  1684                           
  1685                           ; 3 bytes @ 0x26
  1686  000027                     	ds	3
  1687  00002A                     scale@scl:
  1688                           	opt stack 0
  1689  00002A                     _fround$2473:
  1690                           	opt stack 0
  1691                           
  1692                           ; 3 bytes @ 0x29
  1693  00002A                     	ds	1
  1694  00002B                     ?___fttol:
  1695                           	opt stack 0
  1696  00002B                     ___fttol@f1:
  1697                           	opt stack 0
  1698                           
  1699                           ; 3 bytes @ 0x2A
  1700  00002B                     	ds	2
  1701  00002D                     fround@prec:
  1702                           	opt stack 0
  1703                           
  1704                           ; 1 bytes @ 0x2C
  1705  00002D                     	ds	1
  1706  00002E                     ?___ftadd:
  1707                           	opt stack 0
  1708  00002E                     ___ftadd@f1:
  1709                           	opt stack 0
  1710                           
  1711                           ; 3 bytes @ 0x2D
  1712  00002E                     	ds	1
  1713  00002F                     ??___fttol:
  1714                           
  1715                           ; 0 bytes @ 0x2E
  1716  00002F                     	ds	2
  1717  000031                     ___ftadd@f2:
  1718                           	opt stack 0
  1719                           
  1720                           ; 3 bytes @ 0x30
  1721  000031                     	ds	3
  1722  000034                     ??___ftadd:
  1723  000034                     ___fttol@sign1:
  1724                           	opt stack 0
  1725                           
  1726                           ; 1 bytes @ 0x33
  1727  000034                     	ds	1
  1728  000035                     ___fttol@lval:
  1729                           	opt stack 0
  1730                           
  1731                           ; 4 bytes @ 0x34
  1732  000035                     	ds	2
  1733  000037                     ___ftadd@sign:
  1734                           	opt stack 0
  1735                           
  1736                           ; 1 bytes @ 0x36
  1737  000037                     	ds	1
  1738  000038                     ___ftadd@exp2:
  1739                           	opt stack 0
  1740                           
  1741                           ; 1 bytes @ 0x37
  1742  000038                     	ds	1
  1743  000039                     ___ftadd@exp1:
  1744                           	opt stack 0
  1745  000039                     ___fttol@exp1:
  1746                           	opt stack 0
  1747                           
  1748                           ; 1 bytes @ 0x38
  1749  000039                     	ds	1
  1750  00003A                     ?___ftsub:
  1751                           	opt stack 0
  1752  00003A                     ?___awtoft:
  1753                           	opt stack 0
  1754  00003A                     ___awtoft@c:
  1755                           	opt stack 0
  1756  00003A                     ___ftsub@f1:
  1757                           	opt stack 0
  1758                           
  1759                           ; 3 bytes @ 0x39
  1760  00003A                     	ds	3
  1761  00003D                     ___awtoft@sign:
  1762                           	opt stack 0
  1763  00003D                     ___ftsub@f2:
  1764                           	opt stack 0
  1765                           
  1766                           ; 3 bytes @ 0x3C
  1767  00003D                     	ds	1
  1768  00003E                     ?___ftdiv:
  1769                           	opt stack 0
  1770  00003E                     ___ftdiv@f1:
  1771                           	opt stack 0
  1772                           
  1773                           ; 3 bytes @ 0x3D
  1774  00003E                     	ds	2
  1775  000040                     ?_sprintf:
  1776                           	opt stack 0
  1777  000040                     sprintf@sp:
  1778                           	opt stack 0
  1779                           
  1780                           ; 2 bytes @ 0x3F
  1781  000040                     	ds	1
  1782  000041                     ___ftdiv@f2:
  1783                           	opt stack 0
  1784                           
  1785                           ; 3 bytes @ 0x40
  1786  000041                     	ds	1
  1787  000042                     sprintf@f:
  1788                           	opt stack 0
  1789                           
  1790                           ; 2 bytes @ 0x41
  1791  000042                     	ds	2
  1792  000044                     ??___ftdiv:
  1793                           
  1794                           ; 0 bytes @ 0x43
  1795  000044                     	ds	3
  1796  000047                     ___ftdiv@cntr:
  1797                           	opt stack 0
  1798                           
  1799                           ; 1 bytes @ 0x46
  1800  000047                     	ds	1
  1801  000048                     ___ftdiv@f3:
  1802                           	opt stack 0
  1803                           
  1804                           ; 3 bytes @ 0x47
  1805  000048                     	ds	2
  1806  00004A                     ??_sprintf:
  1807                           
  1808                           ; 0 bytes @ 0x49
  1809  00004A                     	ds	1
  1810  00004B                     ___ftdiv@exp:
  1811                           	opt stack 0
  1812                           
  1813                           ; 1 bytes @ 0x4A
  1814  00004B                     	ds	1
  1815  00004C                     ___ftdiv@sign:
  1816                           	opt stack 0
  1817                           
  1818                           ; 1 bytes @ 0x4B
  1819  00004C                     	ds	1
  1820  00004D                     control_temperatura_agua@temp_max:
  1821                           	opt stack 0
  1822                           
  1823                           ; 3 bytes @ 0x4C
  1824  00004D                     	ds	3
  1825  000050                     ?_Convert_diasem:
  1826                           	opt stack 0
  1827  000050                     Convert_diasem@dia:
  1828                           	opt stack 0
  1829  000050                     control_temperatura_agua@temp_min:
  1830                           	opt stack 0
  1831                           
  1832                           ; 3 bytes @ 0x4F
  1833  000050                     	ds	2
  1834  000052                     ??_Convert_diasem:
  1835                           
  1836                           ; 0 bytes @ 0x51
  1837  000052                     	ds	1
  1838  000053                     control_temperatura_agua@grados_medidos:
  1839                           	opt stack 0
  1840                           
  1841                           ; 3 bytes @ 0x52
  1842  000053                     	ds	1
  1843  000054                     Lcd_Out@x:
  1844                           	opt stack 0
  1845                           
  1846                           ; 1 bytes @ 0x53
  1847  000054                     	ds	1
  1848  000055                     Lcd_Out@buffer:
  1849                           	opt stack 0
  1850                           
  1851                           ; 2 bytes @ 0x54
  1852  000055                     	ds	2
  1853  000057                     Lcd_Out@y:
  1854                           	opt stack 0
  1855                           
  1856                           ; 1 bytes @ 0x56
  1857  000057                     	ds	1
  1858  000058                     Lcd_Out@data:
  1859                           	opt stack 0
  1860                           
  1861                           ; 1 bytes @ 0x57
  1862  000058                     	ds	1
  1863  000059                     ??_V_Reiniciar:
  1864  000059                     ??_V_ProgTempAgua:
  1865  000059                     escribir@fila:
  1866                           	opt stack 0
  1867  000059                     V_Principal@cte:
  1868                           	opt stack 0
  1869                           
  1870                           ; 2 bytes @ 0x58
  1871  000059                     	ds	1
  1872  00005A                     ??_V_ProgReloj:
  1873  00005A                     ??_V_ProgRiegoIlum:
  1874  00005A                     V_Reiniciar@borrar:
  1875                           	opt stack 0
  1876  00005A                     V_ProgTempAgua@temp_prog_tr:
  1877                           	opt stack 0
  1878                           
  1879                           ; 3 bytes @ 0x59
  1880  00005A                     	ds	3
  1881  00005D                     ??_main:
  1882                           
  1883                           ; 0 bytes @ 0x5C
  1884  00005D                     	ds	1
  1885                           tblptru	equ	0xFF8
  1886                           tblptrh	equ	0xFF7
  1887                           tblptrl	equ	0xFF6
  1888                           tablat	equ	0xFF5
  1889                           postinc0	equ	0xFEE
  1890                           wreg	equ	0xFE8
  1891                           postdec1	equ	0xFE5
  1892                           fsr1l	equ	0xFE1
  1893                           
  1894 ;;
  1895 ;;Main: autosize = 0, tempsize = 1, incstack = 0, save=0
  1896 ;;
  1897 ;; *************** function _main *****************
  1898 ;; Defined at:
  1899 ;;		line 147 in file "../main.c"
  1900 ;; Parameters:    Size  Location     Type
  1901 ;;		None
  1902 ;; Auto vars:     Size  Location     Type
  1903 ;;		None
  1904 ;; Return value:  Size  Location     Type
  1905 ;;		None               void
  1906 ;; Registers used:
  1907 ;;		wreg, fsr0l, fsr0h, fsr2l, fsr2h, status,2, status,0, tblptrl, tblptrh, tblptru, prodl, prodh, cstack
  1908 ;; Tracked objects:
  1909 ;;		On entry : 0/0
  1910 ;;		On exit  : 0/0
  1911 ;;		Unchanged: 0/0
  1912 ;; Data sizes:     COMRAM   BANK0   BANK1   BANK2   BANK3   BANK4   BANK5   BANK6   BANK7   BANK8   BANK9  BANK10  BANK1
      +1  BANK12  BANK13  BANK14
  1913 ;;      Params:         0       0       0       0       0       0       0       0       0       0       0       0       
      +0       0       0       0
  1914 ;;      Locals:         0       0       0       0       0       0       0       0       0       0       0       0       
      +0       0       0       0
  1915 ;;      Temps:          1       0       0       0       0       0       0       0       0       0       0       0       
      +0       0       0       0
  1916 ;;      Totals:         1       0       0       0       0       0       0       0       0       0       0       0       
      +0       0       0       0
  1917 ;;Total ram usage:        1 bytes
  1918 ;; Hardware stack levels required when called:    6
  1919 ;; This function calls:
  1920 ;;		_Lcd_Cmd
  1921 ;;		_Lcd_Init
  1922 ;;		_V_Principal
  1923 ;;		_V_ProgReloj
  1924 ;;		_V_ProgRiegoIlum
  1925 ;;		_V_ProgTempAgua
  1926 ;;		_V_Reiniciar
  1927 ;;		_Write_RTC
  1928 ;;		_control_leds_iluminacion
  1929 ;;		_control_leds_riego
  1930 ;;		_control_temperatura_agua
  1931 ;; This function is called by:
  1932 ;;		Startup code after reset
  1933 ;; This function uses a non-reentrant model
  1934 ;;
  1935                           
  1936                           	psect	text0
  1937  00CB7E                     __ptext0:
  1938                           	opt stack 0
  1939  00CB7E                     _main:
  1940                           	opt stack 25
  1941                           
  1942                           ;main.c: 148: OSCTUNEbits.INTSRC = 1;
  1943                           
  1944                           ;incstack = 0
  1945  00CB7E  8E9B               	bsf	3995,7,c	;volatile
  1946                           
  1947                           ;main.c: 149: OSCTUNEbits.PLLEN = 0;
  1948  00CB80  9C9B               	bcf	3995,6,c	;volatile
  1949                           
  1950                           ;main.c: 150: OSCCONbits.IRCF0 = 1;
  1951  00CB82  88D3               	bsf	4051,4,c	;volatile
  1952                           
  1953                           ;main.c: 151: OSCCONbits.IRCF1 = 1;
  1954  00CB84  8AD3               	bsf	4051,5,c	;volatile
  1955                           
  1956                           ;main.c: 152: OSCCONbits.IRCF2 = 1;
  1957  00CB86  8CD3               	bsf	4051,6,c	;volatile
  1958                           
  1959                           ;main.c: 153: OSCCONbits.SCS0 = 0;
  1960  00CB88  90D3               	bcf	4051,0,c	;volatile
  1961                           
  1962                           ;main.c: 154: OSCCONbits.SCS1 = 0;
  1963  00CB8A  92D3               	bcf	4051,1,c	;volatile
  1964                           
  1965                           ;main.c: 156: RTCCFGbits.RTCEN = 1;
  1966  00CB8C  010F               	movlb	15	; () banked
  1967  00CB8E  8F3F               	bsf	63,7,b	;volatile
  1968                           
  1969                           ;main.c: 157: RTCCFGbits.RTCWREN = 1;
  1970  00CB90  010F               	movlb	15	; () banked
  1971  00CB92  8B3F               	bsf	63,5,b	;volatile
  1972                           
  1973                           ;main.c: 158: T1CONbits.T1OSCEN = 1;
  1974  00CB94  86CD               	bsf	4045,3,c	;volatile
  1975                           
  1976                           ; BSR set to: 15
  1977                           ;main.c: 160: TRISA = 0b11111101;
  1978  00CB96  0EFD               	movlw	253
  1979  00CB98  6E92               	movwf	3986,c	;volatile
  1980                           
  1981                           ;main.c: 161: TRISB = 0;
  1982  00CB9A  0E00               	movlw	0
  1983  00CB9C  6E93               	movwf	3987,c	;volatile
  1984                           
  1985                           ; BSR set to: 15
  1986                           ;main.c: 162: TRISC = 0b11111111;
  1987  00CB9E  6894               	setf	3988,c	;volatile
  1988                           
  1989                           ; BSR set to: 15
  1990                           ;main.c: 163: ANCON0 = 0b11111111;
  1991  00CBA0  010F               	movlb	15	; () banked
  1992  00CBA2  6948               	setf	72,b	;volatile
  1993                           
  1994                           ;main.c: 164: ANCON1 = 0b11110111;
  1995  00CBA4  0EF7               	movlw	247
  1996  00CBA6  010F               	movlb	15	; () banked
  1997  00CBA8  6F49               	movwf	73,b	;volatile
  1998                           
  1999                           ;main.c: 165: ADCON0 = 0b00101111;
  2000  00CBAA  0E2F               	movlw	47
  2001  00CBAC  6EC2               	movwf	4034,c	;volatile
  2002                           
  2003                           ;main.c: 166: ADCON1 = 0b00111001;
  2004  00CBAE  0E39               	movlw	57
  2005  00CBB0  6EC1               	movwf	4033,c	;volatile
  2006                           
  2007                           ; BSR set to: 15
  2008                           ;main.c: 168: Write_RTC();
  2009  00CBB2  EC1A  F067         	call	_Write_RTC	;wreg free
  2010                           
  2011                           ;main.c: 169: Lcd_Init();
  2012  00CBB6  EC04  F061         	call	_Lcd_Init	;wreg free
  2013                           
  2014                           ;main.c: 170: Lcd_Cmd(1);
  2015  00CBBA  0E01               	movlw	1
  2016  00CBBC  EC20  F062         	call	_Lcd_Cmd
  2017                           
  2018                           ;main.c: 171: Lcd_Cmd(12);
  2019  00CBC0  0E0C               	movlw	12
  2020  00CBC2  EC20  F062         	call	_Lcd_Cmd
  2021                           
  2022                           ;main.c: 174: _delay((unsigned long)((98)*(8000000/4000.0)));
  2023  00CBC6  0EFF               	movlw	255
  2024  00CBC8  6E5D               	movwf	??_main& (0+255),c
  2025  00CBCA  0E8A               	movlw	138
  2026  00CBCC                     u7757:
  2027  00CBCC  2EE8               	decfsz	wreg,f,c
  2028  00CBCE  D7FE               	goto	u7757
  2029  00CBD0  2E5D               	decfsz	??_main& (0+255),f,c
  2030  00CBD2  D7FC               	goto	u7757
  2031  00CBD4  D000               	nop2	
  2032                           
  2033                           ;main.c: 175: _delay((unsigned long)((98)*(8000000/4000.0)));
  2034  00CBD6  0EFF               	movlw	255
  2035  00CBD8  6E5D               	movwf	??_main& (0+255),c
  2036  00CBDA  0E8A               	movlw	138
  2037  00CBDC                     u7767:
  2038  00CBDC  2EE8               	decfsz	wreg,f,c
  2039  00CBDE  D7FE               	goto	u7767
  2040  00CBE0  2E5D               	decfsz	??_main& (0+255),f,c
  2041  00CBE2  D7FC               	goto	u7767
  2042  00CBE4  D000               	nop2	
  2043                           
  2044                           ;main.c: 176: _delay((unsigned long)((98)*(8000000/4000.0)));
  2045  00CBE6  0EFF               	movlw	255
  2046  00CBE8  6E5D               	movwf	??_main& (0+255),c
  2047  00CBEA  0E8A               	movlw	138
  2048  00CBEC                     u7777:
  2049  00CBEC  2EE8               	decfsz	wreg,f,c
  2050  00CBEE  D7FE               	goto	u7777
  2051  00CBF0  2E5D               	decfsz	??_main& (0+255),f,c
  2052  00CBF2  D7FC               	goto	u7777
  2053  00CBF4  D000               	nop2	
  2054                           
  2055                           ;main.c: 177: _delay((unsigned long)((98)*(8000000/4000.0)));
  2056  00CBF6  0EFF               	movlw	255
  2057  00CBF8  6E5D               	movwf	??_main& (0+255),c
  2058  00CBFA  0E8A               	movlw	138
  2059  00CBFC                     u7787:
  2060  00CBFC  2EE8               	decfsz	wreg,f,c
  2061  00CBFE  D7FE               	goto	u7787
  2062  00CC00  2E5D               	decfsz	??_main& (0+255),f,c
  2063  00CC02  D7FC               	goto	u7787
  2064  00CC04  D000               	nop2	
  2065                           
  2066                           ;main.c: 178: _delay((unsigned long)((98)*(8000000/4000.0)));
  2067  00CC06  0EFF               	movlw	255
  2068  00CC08  6E5D               	movwf	??_main& (0+255),c
  2069  00CC0A  0E8A               	movlw	138
  2070  00CC0C                     u7797:
  2071  00CC0C  2EE8               	decfsz	wreg,f,c
  2072  00CC0E  D7FE               	goto	u7797
  2073  00CC10  2E5D               	decfsz	??_main& (0+255),f,c
  2074  00CC12  D7FC               	goto	u7797
  2075  00CC14  D000               	nop2	
  2076                           
  2077                           ;main.c: 179: _delay((unsigned long)((98)*(8000000/4000.0)));
  2078  00CC16  0EFF               	movlw	255
  2079  00CC18  6E5D               	movwf	??_main& (0+255),c
  2080  00CC1A  0E8A               	movlw	138
  2081  00CC1C                     u7807:
  2082  00CC1C  2EE8               	decfsz	wreg,f,c
  2083  00CC1E  D7FE               	goto	u7807
  2084  00CC20  2E5D               	decfsz	??_main& (0+255),f,c
  2085  00CC22  D7FC               	goto	u7807
  2086  00CC24  D000               	nop2	
  2087                           
  2088                           ;main.c: 180: _delay((unsigned long)((98)*(8000000/4000.0)));
  2089  00CC26  0EFF               	movlw	255
  2090  00CC28  6E5D               	movwf	??_main& (0+255),c
  2091  00CC2A  0E8A               	movlw	138
  2092  00CC2C                     u7817:
  2093  00CC2C  2EE8               	decfsz	wreg,f,c
  2094  00CC2E  D7FE               	goto	u7817
  2095  00CC30  2E5D               	decfsz	??_main& (0+255),f,c
  2096  00CC32  D7FC               	goto	u7817
  2097  00CC34  D000               	nop2	
  2098                           
  2099                           ;main.c: 181: _delay((unsigned long)((98)*(8000000/4000.0)));
  2100  00CC36  0EFF               	movlw	255
  2101  00CC38  6E5D               	movwf	??_main& (0+255),c
  2102  00CC3A  0E8A               	movlw	138
  2103  00CC3C                     u7827:
  2104  00CC3C  2EE8               	decfsz	wreg,f,c
  2105  00CC3E  D7FE               	goto	u7827
  2106  00CC40  2E5D               	decfsz	??_main& (0+255),f,c
  2107  00CC42  D7FC               	goto	u7827
  2108  00CC44  D000               	nop2	
  2109                           
  2110                           ;main.c: 182: Lcd_Cmd(1);
  2111  00CC46  0E01               	movlw	1
  2112  00CC48  EC20  F062         	call	_Lcd_Cmd
  2113  00CC4C  D000               	goto	l6064
  2114  00CC4E                     l6064:
  2115                           
  2116                           ;main.c: 189: V_Principal();
  2117  00CC4E  EC02  F05F         	call	_V_Principal	;wreg free
  2118                           
  2119                           ;main.c: 191: control_leds_iluminacion();
  2120  00CC52  EC5A  F05B         	call	_control_leds_iluminacion	;wreg free
  2121                           
  2122                           ;main.c: 192: control_leds_riego();
  2123  00CC56  EC3B  F05C         	call	_control_leds_riego	;wreg free
  2124                           
  2125                           ;main.c: 193: control_temperatura_agua();
  2126  00CC5A  EC69  F066         	call	_control_temperatura_agua	;wreg free
  2127                           
  2128                           ;main.c: 199: if (Sw_Left = PORTAbits.RA0 == 0) {
  2129  00CC5E  B080               	btfsc	3968,0,c	;volatile
  2130  00CC60  D002               	goto	u7630
  2131  00CC62  0E01               	movlw	1
  2132  00CC64  D001               	goto	u7640
  2133  00CC66                     u7630:
  2134  00CC66  0E00               	movlw	0
  2135  00CC68                     u7640:
  2136  00CC68  0100               	movlb	0	; () banked
  2137  00CC6A  6FB9               	movwf	_Sw_Left& (0+255),b
  2138  00CC6C  0100               	movlb	0	; () banked
  2139  00CC6E  51B9               	movf	_Sw_Left& (0+255),w,b
  2140  00CC70  B4D8               	btfsc	status,2,c
  2141  00CC72  D003               	goto	l6076
  2142                           
  2143                           ; BSR set to: 0
  2144                           ;main.c: 201: V_ProgReloj();
  2145  00CC74  EC2A  F06E         	call	_V_ProgReloj	;wreg free
  2146  00CC78  D000               	goto	l6076
  2147  00CC7A                     l6076:
  2148                           
  2149                           ;main.c: 202: }
  2150                           ;main.c: 204: if (Sw_Down = PORTCbits.RC4 == 0) {
  2151  00CC7A  B882               	btfsc	3970,4,c	;volatile
  2152  00CC7C  D002               	goto	u7660
  2153  00CC7E  0E01               	movlw	1
  2154  00CC80  D001               	goto	u7670
  2155  00CC82                     u7660:
  2156  00CC82  0E00               	movlw	0
  2157  00CC84                     u7670:
  2158  00CC84  0100               	movlb	0	; () banked
  2159  00CC86  6FB8               	movwf	_Sw_Down& (0+255),b
  2160  00CC88  0100               	movlb	0	; () banked
  2161  00CC8A  51B8               	movf	_Sw_Down& (0+255),w,b
  2162  00CC8C  B4D8               	btfsc	status,2,c
  2163  00CC8E  D003               	goto	l6080
  2164                           
  2165                           ; BSR set to: 0
  2166                           ;main.c: 205: V_Reiniciar();
  2167  00CC90  ECC9  F068         	call	_V_Reiniciar	;wreg free
  2168  00CC94  D000               	goto	l6080
  2169  00CC96                     l6080:
  2170                           
  2171                           ;main.c: 206: }
  2172                           ;main.c: 208: if (Sw_Right = PORTAbits.RA2 == 0) {
  2173  00CC96  B480               	btfsc	3968,2,c	;volatile
  2174  00CC98  D002               	goto	u7690
  2175  00CC9A  0E01               	movlw	1
  2176  00CC9C  D001               	goto	u7700
  2177  00CC9E                     u7690:
  2178  00CC9E  0E00               	movlw	0
  2179  00CCA0                     u7700:
  2180  00CCA0  0100               	movlb	0	; () banked
  2181  00CCA2  6FBA               	movwf	_Sw_Right& (0+255),b
  2182  00CCA4  0100               	movlb	0	; () banked
  2183  00CCA6  51BA               	movf	_Sw_Right& (0+255),w,b
  2184  00CCA8  B4D8               	btfsc	status,2,c
  2185  00CCAA  D003               	goto	l6084
  2186                           
  2187                           ; BSR set to: 0
  2188                           ;main.c: 209: V_ProgTempAgua();
  2189  00CCAC  ECE9  F06A         	call	_V_ProgTempAgua	;wreg free
  2190  00CCB0  D000               	goto	l6084
  2191  00CCB2                     l6084:
  2192                           
  2193                           ;main.c: 210: }
  2194                           ;main.c: 212: if (Sw_Up = PORTAbits.RA3 == 0) {
  2195  00CCB2  B680               	btfsc	3968,3,c	;volatile
  2196  00CCB4  D002               	goto	u7720
  2197  00CCB6  0E01               	movlw	1
  2198  00CCB8  D001               	goto	u7730
  2199  00CCBA                     u7720:
  2200  00CCBA  0E00               	movlw	0
  2201  00CCBC                     u7730:
  2202  00CCBC  0100               	movlb	0	; () banked
  2203  00CCBE  6FBB               	movwf	_Sw_Up& (0+255),b
  2204  00CCC0  0100               	movlb	0	; () banked
  2205  00CCC2  51BB               	movf	_Sw_Up& (0+255),w,b
  2206  00CCC4  B4D8               	btfsc	status,2,c
  2207  00CCC6  D7C3               	goto	l6064
  2208                           
  2209                           ; BSR set to: 0
  2210                           ;main.c: 213: V_ProgRiegoIlum();
  2211  00CCC8  EC24  F071         	call	_V_ProgRiegoIlum	;wreg free
  2212  00CCCC  D7C0               	goto	l6064
  2213  00CCCE  EF00  F000         	goto	start
  2214  00CCD2                     __end_of_main:
  2215                           	opt stack 0
  2216                           tblptru	equ	0xFF8
  2217                           tblptrh	equ	0xFF7
  2218                           tblptrl	equ	0xFF6
  2219                           tablat	equ	0xFF5
  2220                           postinc0	equ	0xFEE
  2221                           wreg	equ	0xFE8
  2222                           postdec1	equ	0xFE5
  2223                           fsr1l	equ	0xFE1
  2224                           status	equ	0xFD8
  2225                           
  2226 ;; *************** function _control_temperatura_agua *****************
  2227 ;; Defined at:
  2228 ;;		line 799 in file "../main.c"
  2229 ;; Parameters:    Size  Location     Type
  2230 ;;		None
  2231 ;; Auto vars:     Size  Location     Type
  2232 ;;  grados_medid    3   82[COMRAM] float 
  2233 ;;  temp_min        3   79[COMRAM] float 
  2234 ;;  temp_max        3   76[COMRAM] float 
  2235 ;; Return value:  Size  Location     Type
  2236 ;;		None               void
  2237 ;; Registers used:
  2238 ;;		wreg, status,2, status,0, cstack
  2239 ;; Tracked objects:
  2240 ;;		On entry : 0/0
  2241 ;;		On exit  : 0/0
  2242 ;;		Unchanged: 0/0
  2243 ;; Data sizes:     COMRAM   BANK0   BANK1   BANK2   BANK3   BANK4   BANK5   BANK6   BANK7   BANK8   BANK9  BANK10  BANK1
      +1  BANK12  BANK13  BANK14
  2244 ;;      Params:         0       0       0       0       0       0       0       0       0       0       0       0       
      +0       0       0       0
  2245 ;;      Locals:         9       0       0       0       0       0       0       0       0       0       0       0       
      +0       0       0       0
  2246 ;;      Temps:          0       0       0       0       0       0       0       0       0       0       0       0       
      +0       0       0       0
  2247 ;;      Totals:         9       0       0       0       0       0       0       0       0       0       0       0       
      +0       0       0       0
  2248 ;;Total ram usage:        9 bytes
  2249 ;; Hardware stack levels used:    1
  2250 ;; Hardware stack levels required when called:    2
  2251 ;; This function calls:
  2252 ;;		___awtoft
  2253 ;;		___ftadd
  2254 ;;		___ftdiv
  2255 ;;		___ftge
  2256 ;;		___ftmul
  2257 ;;		___fttol
  2258 ;;		___lbtoft
  2259 ;;		_lee_temperatura
  2260 ;; This function is called by:
  2261 ;;		_main
  2262 ;; This function uses a non-reentrant model
  2263 ;;
  2264                           
  2265                           	psect	text1
  2266  00CCD2                     __ptext1:
  2267                           	opt stack 0
  2268  00CCD2                     _control_temperatura_agua:
  2269                           	opt stack 28
  2270                           
  2271                           ;main.c: 801: lee_temperatura();
  2272                           
  2273                           ;incstack = 0
  2274  00CCD2  EC4D  F05A         	call	_lee_temperatura	;wreg free
  2275                           
  2276                           ;main.c: 802: grados = lectura * 0.13;
  2277  00CCD6  0100               	movlb	0	; () banked
  2278  00CCD8  51BF               	movf	_lectura& (0+255),w,b
  2279  00CCDA  EC80  F05A         	call	___lbtoft
  2280  00CCDE  C009  F015         	movff	?___lbtoft,___ftmul@f1
  2281  00CCE2  C00A  F016         	movff	?___lbtoft+1,___ftmul@f1+1
  2282  00CCE6  C00B  F017         	movff	?___lbtoft+2,___ftmul@f1+2
  2283  00CCEA  0E1F               	movlw	31
  2284  00CCEC  6E18               	movwf	___ftmul@f2,c
  2285  00CCEE  0E05               	movlw	5
  2286  00CCF0  6E19               	movwf	___ftmul@f2+1,c
  2287  00CCF2  0E3E               	movlw	62
  2288  00CCF4  6E1A               	movwf	___ftmul@f2+2,c
  2289  00CCF6  ECFD  F05F         	call	___ftmul	;wreg free
  2290  00CCFA  C015  F0DC         	movff	?___ftmul,_grados
  2291  00CCFE  C016  F0DD         	movff	?___ftmul+1,_grados+1
  2292  00CD02  C017  F0DE         	movff	?___ftmul+2,_grados+2
  2293                           
  2294                           ;main.c: 803: float grados_medidos = ((int)(grados*10)) / 10.0;
  2295  00CD06  0E00               	movlw	0
  2296  00CD08  6E18               	movwf	___ftmul@f2,c
  2297  00CD0A  0E20               	movlw	32
  2298  00CD0C  6E19               	movwf	___ftmul@f2+1,c
  2299  00CD0E  0E41               	movlw	65
  2300  00CD10  6E1A               	movwf	___ftmul@f2+2,c
  2301  00CD12  C0DC  F015         	movff	_grados,___ftmul@f1
  2302  00CD16  C0DD  F016         	movff	_grados+1,___ftmul@f1+1
  2303  00CD1A  C0DE  F017         	movff	_grados+2,___ftmul@f1+2
  2304  00CD1E  ECFD  F05F         	call	___ftmul	;wreg free
  2305  00CD22  C015  F02B         	movff	?___ftmul,___fttol@f1
  2306  00CD26  C016  F02C         	movff	?___ftmul+1,___fttol@f1+1
  2307  00CD2A  C017  F02D         	movff	?___ftmul+2,___fttol@f1+2
  2308  00CD2E  EC7C  F05F         	call	___fttol	;wreg free
  2309  00CD32  C02B  F03A         	movff	?___fttol,___awtoft@c
  2310  00CD36  C02C  F03B         	movff	?___fttol+1,___awtoft@c+1
  2311  00CD3A  ECC3  F05A         	call	___awtoft	;wreg free
  2312  00CD3E  C03A  F03E         	movff	?___awtoft,___ftdiv@f1
  2313  00CD42  C03B  F03F         	movff	?___awtoft+1,___ftdiv@f1+1
  2314  00CD46  C03C  F040         	movff	?___awtoft+2,___ftdiv@f1+2
  2315  00CD4A  0E00               	movlw	0
  2316  00CD4C  6E41               	movwf	___ftdiv@f2,c
  2317  00CD4E  0E20               	movlw	32
  2318  00CD50  6E42               	movwf	___ftdiv@f2+1,c
  2319  00CD52  0E41               	movlw	65
  2320  00CD54  6E43               	movwf	___ftdiv@f2+2,c
  2321  00CD56  EC8C  F05E         	call	___ftdiv	;wreg free
  2322  00CD5A  C03E  F053         	movff	?___ftdiv,control_temperatura_agua@grados_medidos
  2323  00CD5E  C03F  F054         	movff	?___ftdiv+1,control_temperatura_agua@grados_medidos+1
  2324  00CD62  C040  F055         	movff	?___ftdiv+2,control_temperatura_agua@grados_medidos+2
  2325                           
  2326                           ;main.c: 804: float temp_min;
  2327                           ;main.c: 805: float temp_max = temp_prog + 0.3;
  2328  00CD66  C0DF  F02E         	movff	_temp_prog,___ftadd@f1
  2329  00CD6A  C0E0  F02F         	movff	_temp_prog+1,___ftadd@f1+1
  2330  00CD6E  C0E1  F030         	movff	_temp_prog+2,___ftadd@f1+2
  2331  00CD72  0E9A               	movlw	154
  2332  00CD74  6E31               	movwf	___ftadd@f2,c
  2333  00CD76  0E99               	movlw	153
  2334  00CD78  6E32               	movwf	___ftadd@f2+1,c
  2335  00CD7A  0E3E               	movlw	62
  2336  00CD7C  6E33               	movwf	___ftadd@f2+2,c
  2337  00CD7E  ECE7  F067         	call	___ftadd	;wreg free
  2338  00CD82  C02E  F04D         	movff	?___ftadd,control_temperatura_agua@temp_max
  2339  00CD86  C02F  F04E         	movff	?___ftadd+1,control_temperatura_agua@temp_max+1
  2340  00CD8A  C030  F04F         	movff	?___ftadd+2,control_temperatura_agua@temp_max+2
  2341                           
  2342                           ;main.c: 807: if(temp_prog > 0.3){
  2343  00CD8E  0E9A               	movlw	154
  2344  00CD90  6E01               	movwf	___ftge@ff1,c
  2345  00CD92  0E99               	movlw	153
  2346  00CD94  6E02               	movwf	___ftge@ff1+1,c
  2347  00CD96  0E3E               	movlw	62
  2348  00CD98  6E03               	movwf	___ftge@ff1+2,c
  2349  00CD9A  C0DF  F004         	movff	_temp_prog,___ftge@ff2
  2350  00CD9E  C0E0  F005         	movff	_temp_prog+1,___ftge@ff2+1
  2351  00CDA2  C0E1  F006         	movff	_temp_prog+2,___ftge@ff2+2
  2352  00CDA6  EC93  F05D         	call	___ftge	;wreg free
  2353  00CDAA  B0D8               	btfsc	status,0,c
  2354  00CDAC  D015               	goto	l5468
  2355                           
  2356                           ;main.c: 808: temp_min = temp_prog - 0.3;
  2357  00CDAE  C0DF  F02E         	movff	_temp_prog,___ftadd@f1
  2358  00CDB2  C0E0  F02F         	movff	_temp_prog+1,___ftadd@f1+1
  2359  00CDB6  C0E1  F030         	movff	_temp_prog+2,___ftadd@f1+2
  2360  00CDBA  0E9A               	movlw	154
  2361  00CDBC  6E31               	movwf	___ftadd@f2,c
  2362  00CDBE  0E99               	movlw	153
  2363  00CDC0  6E32               	movwf	___ftadd@f2+1,c
  2364  00CDC2  0EBE               	movlw	190
  2365  00CDC4  6E33               	movwf	___ftadd@f2+2,c
  2366  00CDC6  ECE7  F067         	call	___ftadd	;wreg free
  2367  00CDCA  C02E  F050         	movff	?___ftadd,control_temperatura_agua@temp_min
  2368  00CDCE  C02F  F051         	movff	?___ftadd+1,control_temperatura_agua@temp_min+1
  2369  00CDD2  C030  F052         	movff	?___ftadd+2,control_temperatura_agua@temp_min+2
  2370                           
  2371                           ;main.c: 809: }else{
  2372  00CDD6  D007               	goto	l5470
  2373  00CDD8                     l5468:
  2374                           
  2375                           ;main.c: 810: temp_min = 0;
  2376  00CDD8  0E00               	movlw	0
  2377  00CDDA  6E50               	movwf	control_temperatura_agua@temp_min,c
  2378  00CDDC  0E00               	movlw	0
  2379  00CDDE  6E51               	movwf	control_temperatura_agua@temp_min+1,c
  2380  00CDE0  0E00               	movlw	0
  2381  00CDE2  6E52               	movwf	control_temperatura_agua@temp_min+2,c
  2382  00CDE4  D000               	goto	l5470
  2383  00CDE6                     l5470:
  2384                           
  2385                           ;main.c: 811: }
  2386                           ;main.c: 813: if(grados_medidos < temp_min) {
  2387  00CDE6  C053  F001         	movff	control_temperatura_agua@grados_medidos,___ftge@ff1
  2388  00CDEA  C054  F002         	movff	control_temperatura_agua@grados_medidos+1,___ftge@ff1+1
  2389  00CDEE  C055  F003         	movff	control_temperatura_agua@grados_medidos+2,___ftge@ff1+2
  2390  00CDF2  C050  F004         	movff	control_temperatura_agua@temp_min,___ftge@ff2
  2391  00CDF6  C051  F005         	movff	control_temperatura_agua@temp_min+1,___ftge@ff2+1
  2392  00CDFA  C052  F006         	movff	control_temperatura_agua@temp_min+2,___ftge@ff2+2
  2393  00CDFE  EC93  F05D         	call	___ftge	;wreg free
  2394  00CE02  B0D8               	btfsc	status,0,c
  2395  00CE04  D002               	goto	l5474
  2396                           
  2397                           ;main.c: 814: LATAbits.LA1 = 1;
  2398  00CE06  8289               	bsf	3977,1,c	;volatile
  2399                           
  2400                           ;main.c: 815: }else if(grados_medidos > temp_max){
  2401  00CE08  0012               	return	
  2402  00CE0A                     l5474:
  2403  00CE0A  C04D  F001         	movff	control_temperatura_agua@temp_max,___ftge@ff1
  2404  00CE0E  C04E  F002         	movff	control_temperatura_agua@temp_max+1,___ftge@ff1+1
  2405  00CE12  C04F  F003         	movff	control_temperatura_agua@temp_max+2,___ftge@ff1+2
  2406  00CE16  C053  F004         	movff	control_temperatura_agua@grados_medidos,___ftge@ff2
  2407  00CE1A  C054  F005         	movff	control_temperatura_agua@grados_medidos+1,___ftge@ff2+1
  2408  00CE1E  C055  F006         	movff	control_temperatura_agua@grados_medidos+2,___ftge@ff2+2
  2409  00CE22  EC93  F05D         	call	___ftge	;wreg free
  2410  00CE26  B0D8               	btfsc	status,0,c
  2411  00CE28  D002               	goto	l394
  2412                           
  2413                           ;main.c: 816: LATAbits.LA1 = 0;
  2414  00CE2A  9289               	bcf	3977,1,c	;volatile
  2415                           
  2416                           ;main.c: 817: }else{
  2417  00CE2C  0012               	return	
  2418  00CE2E                     l394:
  2419                           
  2420                           ;main.c: 818: LATAbits.LA1 = 0;
  2421  00CE2E  9289               	bcf	3977,1,c	;volatile
  2422  00CE30  0012               	return	
  2423  00CE32  0012               	return		;funcret
  2424  00CE34                     __end_of_control_temperatura_agua:
  2425                           	opt stack 0
  2426                           tblptru	equ	0xFF8
  2427                           tblptrh	equ	0xFF7
  2428                           tblptrl	equ	0xFF6
  2429                           tablat	equ	0xFF5
  2430                           postinc0	equ	0xFEE
  2431                           wreg	equ	0xFE8
  2432                           postdec1	equ	0xFE5
  2433                           fsr1l	equ	0xFE1
  2434                           status	equ	0xFD8
  2435                           
  2436 ;; *************** function _lee_temperatura *****************
  2437 ;; Defined at:
  2438 ;;		line 720 in file "../main.c"
  2439 ;; Parameters:    Size  Location     Type
  2440 ;;		None
  2441 ;; Auto vars:     Size  Location     Type
  2442 ;;		None
  2443 ;; Return value:  Size  Location     Type
  2444 ;;		None               void
  2445 ;; Registers used:
  2446 ;;		wreg
  2447 ;; Tracked objects:
  2448 ;;		On entry : 0/0
  2449 ;;		On exit  : 0/0
  2450 ;;		Unchanged: 0/0
  2451 ;; Data sizes:     COMRAM   BANK0   BANK1   BANK2   BANK3   BANK4   BANK5   BANK6   BANK7   BANK8   BANK9  BANK10  BANK1
      +1  BANK12  BANK13  BANK14
  2452 ;;      Params:         0       0       0       0       0       0       0       0       0       0       0       0       
      +0       0       0       0
  2453 ;;      Locals:         0       0       0       0       0       0       0       0       0       0       0       0       
      +0       0       0       0
  2454 ;;      Temps:          1       0       0       0       0       0       0       0       0       0       0       0       
      +0       0       0       0
  2455 ;;      Totals:         1       0       0       0       0       0       0       0       0       0       0       0       
      +0       0       0       0
  2456 ;;Total ram usage:        1 bytes
  2457 ;; Hardware stack levels used:    1
  2458 ;; This function calls:
  2459 ;;		Nothing
  2460 ;; This function is called by:
  2461 ;;		_control_temperatura_agua
  2462 ;; This function uses a non-reentrant model
  2463 ;;
  2464                           
  2465                           	psect	text2
  2466  00B49A                     __ptext2:
  2467                           	opt stack 0
  2468  00B49A                     _lee_temperatura:
  2469                           	opt stack 29
  2470                           
  2471                           ;main.c: 722: ADCON0bits.ADON = 1;
  2472                           
  2473                           ;incstack = 0
  2474  00B49A  80C2               	bsf	4034,0,c	;volatile
  2475                           
  2476                           ;main.c: 723: ADCON0bits.GO = 1;
  2477  00B49C  82C2               	bsf	4034,1,c	;volatile
  2478                           
  2479                           ;main.c: 724: while (ADCON0bits.GO);
  2480  00B49E  D000               	goto	l361
  2481  00B4A0                     l361:
  2482  00B4A0  B2C2               	btfsc	4034,1,c	;volatile
  2483  00B4A2  D7FE               	goto	l361
  2484                           
  2485                           ;main.c: 725: _delay((unsigned long)((1)*(8000000/4000.0)));
  2486  00B4A4  0E03               	movlw	3
  2487  00B4A6  6E01               	movwf	??_lee_temperatura& (0+255),c
  2488  00B4A8  0E98               	movlw	152
  2489  00B4AA                     u7837:
  2490  00B4AA  2EE8               	decfsz	wreg,f,c
  2491  00B4AC  D7FE               	goto	u7837
  2492  00B4AE  2E01               	decfsz	??_lee_temperatura& (0+255),f,c
  2493  00B4B0  D7FC               	goto	u7837
  2494                           
  2495                           ;main.c: 726: lectura = ADRESH;
  2496  00B4B2  CFC4 F0BF          	movff	4036,_lectura	;volatile
  2497                           
  2498                           ;main.c: 727: ADCON0bits.ADON = 0;
  2499  00B4B6  90C2               	bcf	4034,0,c	;volatile
  2500  00B4B8  0012               	return		;funcret
  2501  00B4BA                     __end_of_lee_temperatura:
  2502                           	opt stack 0
  2503                           tblptru	equ	0xFF8
  2504                           tblptrh	equ	0xFF7
  2505                           tblptrl	equ	0xFF6
  2506                           tablat	equ	0xFF5
  2507                           postinc0	equ	0xFEE
  2508                           wreg	equ	0xFE8
  2509                           postdec1	equ	0xFE5
  2510                           fsr1l	equ	0xFE1
  2511                           status	equ	0xFD8
  2512                           
  2513 ;; *************** function ___lbtoft *****************
  2514 ;; Defined at:
  2515 ;;		line 27 in file "C:\Program Files (x86)\Microchip\xc8\v1.34\sources\common\lbtoft.c"
  2516 ;; Parameters:    Size  Location     Type
  2517 ;;  c               1    wreg     unsigned char 
  2518 ;; Auto vars:     Size  Location     Type
  2519 ;;  c               1   11[COMRAM] unsigned char 
  2520 ;; Return value:  Size  Location     Type
  2521 ;;                  3    8[COMRAM] float 
  2522 ;; Registers used:
  2523 ;;		wreg, status,2, status,0, cstack
  2524 ;; Tracked objects:
  2525 ;;		On entry : 0/0
  2526 ;;		On exit  : 0/0
  2527 ;;		Unchanged: 0/0
  2528 ;; Data sizes:     COMRAM   BANK0   BANK1   BANK2   BANK3   BANK4   BANK5   BANK6   BANK7   BANK8   BANK9  BANK10  BANK1
      +1  BANK12  BANK13  BANK14
  2529 ;;      Params:         3       0       0       0       0       0       0       0       0       0       0       0       
      +0       0       0       0
  2530 ;;      Locals:         1       0       0       0       0       0       0       0       0       0       0       0       
      +0       0       0       0
  2531 ;;      Temps:          0       0       0       0       0       0       0       0       0       0       0       0       
      +0       0       0       0
  2532 ;;      Totals:         4       0       0       0       0       0       0       0       0       0       0       0       
      +0       0       0       0
  2533 ;;Total ram usage:        4 bytes
  2534 ;; Hardware stack levels used:    1
  2535 ;; Hardware stack levels required when called:    1
  2536 ;; This function calls:
  2537 ;;		___ftpack
  2538 ;; This function is called by:
  2539 ;;		_control_temperatura_agua
  2540 ;; This function uses a non-reentrant model
  2541 ;;
  2542                           
  2543                           	psect	text3
  2544  00B500                     __ptext3:
  2545                           	opt stack 0
  2546  00B500                     ___lbtoft:
  2547                           	opt stack 28
  2548                           
  2549                           ;incstack = 0
  2550                           ;___lbtoft@c stored from wreg
  2551  00B500  6E0C               	movwf	___lbtoft@c,c
  2552  00B502  500C               	movf	___lbtoft@c,w,c
  2553  00B504  6E01               	movwf	___ftpack@arg,c
  2554  00B506  6A02               	clrf	___ftpack@arg+1,c
  2555  00B508  6A03               	clrf	___ftpack@arg+2,c
  2556  00B50A  0E8E               	movlw	142
  2557  00B50C  6E04               	movwf	___ftpack@exp,c
  2558  00B50E  0E00               	movlw	0
  2559  00B510  6E05               	movwf	___ftpack@sign,c
  2560  00B512  EC29  F05E         	call	___ftpack	;wreg free
  2561  00B516  C001  F009         	movff	?___ftpack,?___lbtoft
  2562  00B51A  C002  F00A         	movff	?___ftpack+1,?___lbtoft+1
  2563  00B51E  C003  F00B         	movff	?___ftpack+2,?___lbtoft+2
  2564  00B522  0012               	return	
  2565  00B524  0012               	return		;funcret
  2566  00B526                     __end_of___lbtoft:
  2567                           	opt stack 0
  2568                           tblptru	equ	0xFF8
  2569                           tblptrh	equ	0xFF7
  2570                           tblptrl	equ	0xFF6
  2571                           tablat	equ	0xFF5
  2572                           postinc0	equ	0xFEE
  2573                           wreg	equ	0xFE8
  2574                           postdec1	equ	0xFE5
  2575                           fsr1l	equ	0xFE1
  2576                           status	equ	0xFD8
  2577                           
  2578 ;; *************** function ___ftdiv *****************
  2579 ;; Defined at:
  2580 ;;		line 54 in file "C:\Program Files (x86)\Microchip\xc8\v1.34\sources\common\ftdiv.c"
  2581 ;; Parameters:    Size  Location     Type
  2582 ;;  f1              3   61[COMRAM] float 
  2583 ;;  f2              3   64[COMRAM] float 
  2584 ;; Auto vars:     Size  Location     Type
  2585 ;;  f3              3   71[COMRAM] float 
  2586 ;;  sign            1   75[COMRAM] unsigned char 
  2587 ;;  exp             1   74[COMRAM] unsigned char 
  2588 ;;  cntr            1   70[COMRAM] unsigned char 
  2589 ;; Return value:  Size  Location     Type
  2590 ;;                  3   61[COMRAM] float 
  2591 ;; Registers used:
  2592 ;;		wreg, status,2, status,0, cstack
  2593 ;; Tracked objects:
  2594 ;;		On entry : 0/0
  2595 ;;		On exit  : 0/0
  2596 ;;		Unchanged: 0/0
  2597 ;; Data sizes:     COMRAM   BANK0   BANK1   BANK2   BANK3   BANK4   BANK5   BANK6   BANK7   BANK8   BANK9  BANK10  BANK1
      +1  BANK12  BANK13  BANK14
  2598 ;;      Params:         6       0       0       0       0       0       0       0       0       0       0       0       
      +0       0       0       0
  2599 ;;      Locals:         6       0       0       0       0       0       0       0       0       0       0       0       
      +0       0       0       0
  2600 ;;      Temps:          3       0       0       0       0       0       0       0       0       0       0       0       
      +0       0       0       0
  2601 ;;      Totals:        15       0       0       0       0       0       0       0       0       0       0       0       
      +0       0       0       0
  2602 ;;Total ram usage:       15 bytes
  2603 ;; Hardware stack levels used:    1
  2604 ;; Hardware stack levels required when called:    1
  2605 ;; This function calls:
  2606 ;;		___ftpack
  2607 ;; This function is called by:
  2608 ;;		_control_temperatura_agua
  2609 ;; This function uses a non-reentrant model
  2610 ;;
  2611                           
  2612                           	psect	text4
  2613  00BD18                     __ptext4:
  2614                           	opt stack 0
  2615  00BD18                     ___ftdiv:
  2616                           	opt stack 28
  2617                           
  2618                           ;incstack = 0
  2619  00BD18  C040  F044         	movff	___ftdiv@f1+2,??___ftdiv
  2620  00BD1C  6A45               	clrf	(??___ftdiv+1)& (0+255),c
  2621  00BD1E  6A46               	clrf	(??___ftdiv+2)& (0+255),c
  2622  00BD20  343F               	rlcf	___ftdiv@f1+1,w,c
  2623  00BD22  3644               	rlcf	??___ftdiv& (0+255),f,c
  2624  00BD24  E301               	bnc	u6211
  2625  00BD26  8045               	bsf	(??___ftdiv+1)& (0+255),0,c
  2626  00BD28                     u6211:
  2627  00BD28  5044               	movf	??___ftdiv,w,c
  2628  00BD2A  6E4B               	movwf	___ftdiv@exp,c
  2629  00BD2C  504B               	movf	___ftdiv@exp,w,c
  2630  00BD2E  A4D8               	btfss	status,2,c
  2631  00BD30  D007               	goto	l5298
  2632  00BD32  0E00               	movlw	0
  2633  00BD34  6E3E               	movwf	?___ftdiv,c
  2634  00BD36  0E00               	movlw	0
  2635  00BD38  6E3F               	movwf	?___ftdiv+1,c
  2636  00BD3A  0E00               	movlw	0
  2637  00BD3C  6E40               	movwf	?___ftdiv+2,c
  2638  00BD3E  0012               	return	
  2639  00BD40                     l5298:
  2640  00BD40  C043  F044         	movff	___ftdiv@f2+2,??___ftdiv
  2641  00BD44  6A45               	clrf	(??___ftdiv+1)& (0+255),c
  2642  00BD46  6A46               	clrf	(??___ftdiv+2)& (0+255),c
  2643  00BD48  3442               	rlcf	___ftdiv@f2+1,w,c
  2644  00BD4A  3644               	rlcf	??___ftdiv& (0+255),f,c
  2645  00BD4C  E301               	bnc	u6231
  2646  00BD4E  8045               	bsf	(??___ftdiv+1)& (0+255),0,c
  2647  00BD50                     u6231:
  2648  00BD50  5044               	movf	??___ftdiv,w,c
  2649  00BD52  6E4C               	movwf	___ftdiv@sign,c
  2650  00BD54  504C               	movf	___ftdiv@sign,w,c
  2651  00BD56  A4D8               	btfss	status,2,c
  2652  00BD58  D007               	goto	l5304
  2653  00BD5A  0E00               	movlw	0
  2654  00BD5C  6E3E               	movwf	?___ftdiv,c
  2655  00BD5E  0E00               	movlw	0
  2656  00BD60  6E3F               	movwf	?___ftdiv+1,c
  2657  00BD62  0E00               	movlw	0
  2658  00BD64  6E40               	movwf	?___ftdiv+2,c
  2659  00BD66  0012               	return	
  2660  00BD68                     l5304:
  2661  00BD68  0E00               	movlw	0
  2662  00BD6A  6E48               	movwf	___ftdiv@f3,c
  2663  00BD6C  0E00               	movlw	0
  2664  00BD6E  6E49               	movwf	___ftdiv@f3+1,c
  2665  00BD70  0E00               	movlw	0
  2666  00BD72  6E4A               	movwf	___ftdiv@f3+2,c
  2667  00BD74  504C               	movf	___ftdiv@sign,w,c
  2668  00BD76  0F89               	addlw	137
  2669  00BD78  5E4B               	subwf	___ftdiv@exp,f,c
  2670  00BD7A  C040  F04C         	movff	___ftdiv@f1+2,___ftdiv@sign
  2671  00BD7E  5043               	movf	___ftdiv@f2+2,w,c
  2672  00BD80  1A4C               	xorwf	___ftdiv@sign,f,c
  2673  00BD82  0E80               	movlw	128
  2674  00BD84  164C               	andwf	___ftdiv@sign,f,c
  2675  00BD86  8E3F               	bsf	___ftdiv@f1+1,7,c
  2676  00BD88  0EFF               	movlw	255
  2677  00BD8A  163E               	andwf	___ftdiv@f1,f,c
  2678  00BD8C  0EFF               	movlw	255
  2679  00BD8E  163F               	andwf	___ftdiv@f1+1,f,c
  2680  00BD90  0E00               	movlw	0
  2681  00BD92  1640               	andwf	___ftdiv@f1+2,f,c
  2682  00BD94  8E42               	bsf	___ftdiv@f2+1,7,c
  2683  00BD96  0EFF               	movlw	255
  2684  00BD98  1641               	andwf	___ftdiv@f2,f,c
  2685  00BD9A  0EFF               	movlw	255
  2686  00BD9C  1642               	andwf	___ftdiv@f2+1,f,c
  2687  00BD9E  0E00               	movlw	0
  2688  00BDA0  1643               	andwf	___ftdiv@f2+2,f,c
  2689  00BDA2  0E18               	movlw	24
  2690  00BDA4  6E47               	movwf	___ftdiv@cntr,c
  2691  00BDA6  D000               	goto	l5324
  2692  00BDA8                     l5324:
  2693  00BDA8  90D8               	bcf	status,0,c
  2694  00BDAA  3648               	rlcf	___ftdiv@f3,f,c
  2695  00BDAC  3649               	rlcf	___ftdiv@f3+1,f,c
  2696  00BDAE  364A               	rlcf	___ftdiv@f3+2,f,c
  2697  00BDB0  5041               	movf	___ftdiv@f2,w,c
  2698  00BDB2  5C3E               	subwf	___ftdiv@f1,w,c
  2699  00BDB4  5042               	movf	___ftdiv@f2+1,w,c
  2700  00BDB6  583F               	subwfb	___ftdiv@f1+1,w,c
  2701  00BDB8  5043               	movf	___ftdiv@f2+2,w,c
  2702  00BDBA  5840               	subwfb	___ftdiv@f1+2,w,c
  2703  00BDBC  A0D8               	btfss	status,0,c
  2704  00BDBE  D007               	goto	l1134
  2705  00BDC0  5041               	movf	___ftdiv@f2,w,c
  2706  00BDC2  5E3E               	subwf	___ftdiv@f1,f,c
  2707  00BDC4  5042               	movf	___ftdiv@f2+1,w,c
  2708  00BDC6  5A3F               	subwfb	___ftdiv@f1+1,f,c
  2709  00BDC8  5043               	movf	___ftdiv@f2+2,w,c
  2710  00BDCA  5A40               	subwfb	___ftdiv@f1+2,f,c
  2711  00BDCC  8048               	bsf	___ftdiv@f3,0,c
  2712  00BDCE                     l1134:
  2713  00BDCE  90D8               	bcf	status,0,c
  2714  00BDD0  363E               	rlcf	___ftdiv@f1,f,c
  2715  00BDD2  363F               	rlcf	___ftdiv@f1+1,f,c
  2716  00BDD4  3640               	rlcf	___ftdiv@f1+2,f,c
  2717  00BDD6  2E47               	decfsz	___ftdiv@cntr,f,c
  2718  00BDD8  D7E7               	goto	l5324
  2719  00BDDA  D000               	goto	l5334
  2720  00BDDC                     l5334:
  2721  00BDDC  C048  F001         	movff	___ftdiv@f3,___ftpack@arg
  2722  00BDE0  C049  F002         	movff	___ftdiv@f3+1,___ftpack@arg+1
  2723  00BDE4  C04A  F003         	movff	___ftdiv@f3+2,___ftpack@arg+2
  2724  00BDE8  C04B  F004         	movff	___ftdiv@exp,___ftpack@exp
  2725  00BDEC  C04C  F005         	movff	___ftdiv@sign,___ftpack@sign
  2726  00BDF0  EC29  F05E         	call	___ftpack	;wreg free
  2727  00BDF4  C001  F03E         	movff	?___ftpack,?___ftdiv
  2728  00BDF8  C002  F03F         	movff	?___ftpack+1,?___ftdiv+1
  2729  00BDFC  C003  F040         	movff	?___ftpack+2,?___ftdiv+2
  2730  00BE00  0012               	return	
  2731  00BE02  0012               	return		;funcret
  2732  00BE04                     __end_of___ftdiv:
  2733                           	opt stack 0
  2734                           tblptru	equ	0xFF8
  2735                           tblptrh	equ	0xFF7
  2736                           tblptrl	equ	0xFF6
  2737                           tablat	equ	0xFF5
  2738                           postinc0	equ	0xFEE
  2739                           wreg	equ	0xFE8
  2740                           postdec1	equ	0xFE5
  2741                           fsr1l	equ	0xFE1
  2742                           status	equ	0xFD8
  2743                           
  2744 ;; *************** function ___awtoft *****************
  2745 ;; Defined at:
  2746 ;;		line 32 in file "C:\Program Files (x86)\Microchip\xc8\v1.34\sources\common\awtoft.c"
  2747 ;; Parameters:    Size  Location     Type
  2748 ;;  c               2   57[COMRAM] int 
  2749 ;; Auto vars:     Size  Location     Type
  2750 ;;  sign            1   60[COMRAM] unsigned char 
  2751 ;; Return value:  Size  Location     Type
  2752 ;;                  3   57[COMRAM] float 
  2753 ;; Registers used:
  2754 ;;		wreg, status,2, status,0, cstack
  2755 ;; Tracked objects:
  2756 ;;		On entry : 0/0
  2757 ;;		On exit  : 0/0
  2758 ;;		Unchanged: 0/0
  2759 ;; Data sizes:     COMRAM   BANK0   BANK1   BANK2   BANK3   BANK4   BANK5   BANK6   BANK7   BANK8   BANK9  BANK10  BANK1
      +1  BANK12  BANK13  BANK14
  2760 ;;      Params:         3       0       0       0       0       0       0       0       0       0       0       0       
      +0       0       0       0
  2761 ;;      Locals:         1       0       0       0       0       0       0       0       0       0       0       0       
      +0       0       0       0
  2762 ;;      Temps:          0       0       0       0       0       0       0       0       0       0       0       0       
      +0       0       0       0
  2763 ;;      Totals:         4       0       0       0       0       0       0       0       0       0       0       0       
      +0       0       0       0
  2764 ;;Total ram usage:        4 bytes
  2765 ;; Hardware stack levels used:    1
  2766 ;; Hardware stack levels required when called:    1
  2767 ;; This function calls:
  2768 ;;		___ftpack
  2769 ;; This function is called by:
  2770 ;;		_control_temperatura_agua
  2771 ;; This function uses a non-reentrant model
  2772 ;;
  2773                           
  2774                           	psect	text5
  2775  00B586                     __ptext5:
  2776                           	opt stack 0
  2777  00B586                     ___awtoft:
  2778                           	opt stack 28
  2779                           
  2780                           ;incstack = 0
  2781  00B586  0E00               	movlw	0
  2782  00B588  6E3D               	movwf	___awtoft@sign,c
  2783  00B58A  AE3B               	btfss	___awtoft@c+1,7,c
  2784  00B58C  D007               	goto	l5346
  2785  00B58E  6C3A               	negf	___awtoft@c,c
  2786  00B590  1E3B               	comf	___awtoft@c+1,f,c
  2787  00B592  B0D8               	btfsc	status,0,c
  2788  00B594  2A3B               	incf	___awtoft@c+1,f,c
  2789  00B596  0E01               	movlw	1
  2790  00B598  6E3D               	movwf	___awtoft@sign,c
  2791  00B59A  D000               	goto	l5346
  2792  00B59C                     l5346:
  2793  00B59C  C03A  F001         	movff	___awtoft@c,___ftpack@arg
  2794  00B5A0  C03B  F002         	movff	___awtoft@c+1,___ftpack@arg+1
  2795  00B5A4  6A03               	clrf	___ftpack@arg+2,c
  2796  00B5A6  0E8E               	movlw	142
  2797  00B5A8  6E04               	movwf	___ftpack@exp,c
  2798  00B5AA  C03D  F005         	movff	___awtoft@sign,___ftpack@sign
  2799  00B5AE  EC29  F05E         	call	___ftpack	;wreg free
  2800  00B5B2  C001  F03A         	movff	?___ftpack,?___awtoft
  2801  00B5B6  C002  F03B         	movff	?___ftpack+1,?___awtoft+1
  2802  00B5BA  C003  F03C         	movff	?___ftpack+2,?___awtoft+2
  2803  00B5BE  0012               	return	
  2804  00B5C0  0012               	return		;funcret
  2805  00B5C2                     __end_of___awtoft:
  2806                           	opt stack 0
  2807                           tblptru	equ	0xFF8
  2808                           tblptrh	equ	0xFF7
  2809                           tblptrl	equ	0xFF6
  2810                           tablat	equ	0xFF5
  2811                           postinc0	equ	0xFEE
  2812                           wreg	equ	0xFE8
  2813                           postdec1	equ	0xFE5
  2814                           fsr1l	equ	0xFE1
  2815                           status	equ	0xFD8
  2816                           
  2817 ;; *************** function _control_leds_riego *****************
  2818 ;; Defined at:
  2819 ;;		line 785 in file "../main.c"
  2820 ;; Parameters:    Size  Location     Type
  2821 ;;		None
  2822 ;; Auto vars:     Size  Location     Type
  2823 ;;		None
  2824 ;; Return value:  Size  Location     Type
  2825 ;;		None               void
  2826 ;; Registers used:
  2827 ;;		wreg, status,2, status,0
  2828 ;; Tracked objects:
  2829 ;;		On entry : 0/0
  2830 ;;		On exit  : 0/0
  2831 ;;		Unchanged: 0/0
  2832 ;; Data sizes:     COMRAM   BANK0   BANK1   BANK2   BANK3   BANK4   BANK5   BANK6   BANK7   BANK8   BANK9  BANK10  BANK1
      +1  BANK12  BANK13  BANK14
  2833 ;;      Params:         0       0       0       0       0       0       0       0       0       0       0       0       
      +0       0       0       0
  2834 ;;      Locals:         0       0       0       0       0       0       0       0       0       0       0       0       
      +0       0       0       0
  2835 ;;      Temps:          2       0       0       0       0       0       0       0       0       0       0       0       
      +0       0       0       0
  2836 ;;      Totals:         2       0       0       0       0       0       0       0       0       0       0       0       
      +0       0       0       0
  2837 ;;Total ram usage:        2 bytes
  2838 ;; Hardware stack levels used:    1
  2839 ;; This function calls:
  2840 ;;		Nothing
  2841 ;; This function is called by:
  2842 ;;		_main
  2843 ;; This function uses a non-reentrant model
  2844 ;;
  2845                           
  2846                           	psect	text6
  2847  00B876                     __ptext6:
  2848                           	opt stack 0
  2849  00B876                     _control_leds_riego:
  2850                           	opt stack 30
  2851                           
  2852                           ;main.c: 787: if(inicio_hora_riego == hora && inicio_min_riego == minuto){
  2853                           
  2854                           ;incstack = 0
  2855  00B876  0100               	movlb	0	; () banked
  2856  00B878  51EE               	movf	_inicio_hora_riego& (0+255),w,b
  2857  00B87A  6E01               	movwf	??_control_leds_riego& (0+255),c
  2858  00B87C  6A02               	clrf	(??_control_leds_riego+1)& (0+255),c
  2859  00B87E  505E               	movf	_hora,w,c
  2860  00B880  1801               	xorwf	??_control_leds_riego,w,c
  2861  00B882  E11E               	bnz	l5450
  2862  00B884  505F               	movf	_hora+1,w,c
  2863  00B886  1802               	xorwf	??_control_leds_riego+1,w,c
  2864  00B888  A4D8               	btfss	status,2,c
  2865  00B88A  D01A               	goto	l5450
  2866                           
  2867                           ; BSR set to: 0
  2868  00B88C  0100               	movlb	0	; () banked
  2869  00B88E  51BE               	movf	_inicio_min_riego& (0+255),w,b
  2870  00B890  6E01               	movwf	??_control_leds_riego& (0+255),c
  2871  00B892  6A02               	clrf	(??_control_leds_riego+1)& (0+255),c
  2872  00B894  0100               	movlb	0	; () banked
  2873  00B896  51E8               	movf	_minuto& (0+255),w,b
  2874  00B898  1801               	xorwf	??_control_leds_riego,w,c
  2875  00B89A  E112               	bnz	l5450
  2876  00B89C  0100               	movlb	0	; () banked
  2877  00B89E  51E9               	movf	(_minuto+1)& (0+255),w,b
  2878  00B8A0  1802               	xorwf	??_control_leds_riego+1,w,c
  2879  00B8A2  A4D8               	btfss	status,2,c
  2880  00B8A4  D00D               	goto	l5450
  2881                           
  2882                           ; BSR set to: 0
  2883                           ;main.c: 788: if(Humedad = PORTCbits.RC7 == 0){
  2884  00B8A6  BE82               	btfsc	3970,7,c	;volatile
  2885  00B8A8  D002               	goto	u6350
  2886  00B8AA  0E01               	movlw	1
  2887  00B8AC  D001               	goto	u6360
  2888  00B8AE                     u6350:
  2889  00B8AE  0E00               	movlw	0
  2890  00B8B0                     u6360:
  2891  00B8B0  0100               	movlb	0	; () banked
  2892  00B8B2  6FB6               	movwf	_Humedad& (0+255),b
  2893  00B8B4  0100               	movlb	0	; () banked
  2894  00B8B6  51B6               	movf	_Humedad& (0+255),w,b
  2895  00B8B8  B4D8               	btfsc	status,2,c
  2896  00B8BA  D002               	goto	l5450
  2897                           
  2898                           ; BSR set to: 0
  2899                           ;main.c: 789: LATBbits.LATB6 = 1;
  2900  00B8BC  8C8A               	bsf	3978,6,c	;volatile
  2901                           
  2902                           ; BSR set to: 0
  2903  00B8BE  D000               	goto	l5450
  2904  00B8C0                     l5450:
  2905                           
  2906                           ; BSR set to: 0
  2907                           ;main.c: 790: }
  2908                           ;main.c: 792: }
  2909                           ;main.c: 794: if(fin_hora_riego == hora && fin_min_riego == minuto){
  2910  00B8C0  0100               	movlb	0	; () banked
  2911  00B8C2  51EB               	movf	_fin_hora_riego& (0+255),w,b
  2912  00B8C4  6E01               	movwf	??_control_leds_riego& (0+255),c
  2913  00B8C6  6A02               	clrf	(??_control_leds_riego+1)& (0+255),c
  2914  00B8C8  505E               	movf	_hora,w,c
  2915  00B8CA  1801               	xorwf	??_control_leds_riego,w,c
  2916  00B8CC  E113               	bnz	l387
  2917  00B8CE  505F               	movf	_hora+1,w,c
  2918  00B8D0  1802               	xorwf	??_control_leds_riego+1,w,c
  2919  00B8D2  A4D8               	btfss	status,2,c
  2920  00B8D4  0012               	return	
  2921                           
  2922                           ; BSR set to: 0
  2923  00B8D6  0100               	movlb	0	; () banked
  2924  00B8D8  51EC               	movf	_fin_min_riego& (0+255),w,b
  2925  00B8DA  6E01               	movwf	??_control_leds_riego& (0+255),c
  2926  00B8DC  6A02               	clrf	(??_control_leds_riego+1)& (0+255),c
  2927  00B8DE  0100               	movlb	0	; () banked
  2928  00B8E0  51E8               	movf	_minuto& (0+255),w,b
  2929  00B8E2  1801               	xorwf	??_control_leds_riego,w,c
  2930  00B8E4  E107               	bnz	l387
  2931  00B8E6  0100               	movlb	0	; () banked
  2932  00B8E8  51E9               	movf	(_minuto+1)& (0+255),w,b
  2933  00B8EA  1802               	xorwf	??_control_leds_riego+1,w,c
  2934  00B8EC  A4D8               	btfss	status,2,c
  2935  00B8EE  0012               	return	
  2936                           
  2937                           ; BSR set to: 0
  2938                           ;main.c: 795: LATBbits.LATB6 = 0;
  2939  00B8F0  9C8A               	bcf	3978,6,c	;volatile
  2940  00B8F2  0012               	return	
  2941  00B8F4                     l387:
  2942                           
  2943                           ; BSR set to: 0
  2944  00B8F4  0012               	return		;funcret
  2945  00B8F6                     __end_of_control_leds_riego:
  2946                           	opt stack 0
  2947                           tblptru	equ	0xFF8
  2948                           tblptrh	equ	0xFF7
  2949                           tblptrl	equ	0xFF6
  2950                           tablat	equ	0xFF5
  2951                           postinc0	equ	0xFEE
  2952                           wreg	equ	0xFE8
  2953                           postdec1	equ	0xFE5
  2954                           fsr1l	equ	0xFE1
  2955                           status	equ	0xFD8
  2956                           
  2957 ;; *************** function _control_leds_iluminacion *****************
  2958 ;; Defined at:
  2959 ;;		line 774 in file "../main.c"
  2960 ;; Parameters:    Size  Location     Type
  2961 ;;		None
  2962 ;; Auto vars:     Size  Location     Type
  2963 ;;		None
  2964 ;; Return value:  Size  Location     Type
  2965 ;;		None               void
  2966 ;; Registers used:
  2967 ;;		wreg, status,2, status,0
  2968 ;; Tracked objects:
  2969 ;;		On entry : 0/0
  2970 ;;		On exit  : 0/0
  2971 ;;		Unchanged: 0/0
  2972 ;; Data sizes:     COMRAM   BANK0   BANK1   BANK2   BANK3   BANK4   BANK5   BANK6   BANK7   BANK8   BANK9  BANK10  BANK1
      +1  BANK12  BANK13  BANK14
  2973 ;;      Params:         0       0       0       0       0       0       0       0       0       0       0       0       
      +0       0       0       0
  2974 ;;      Locals:         0       0       0       0       0       0       0       0       0       0       0       0       
      +0       0       0       0
  2975 ;;      Temps:          2       0       0       0       0       0       0       0       0       0       0       0       
      +0       0       0       0
  2976 ;;      Totals:         2       0       0       0       0       0       0       0       0       0       0       0       
      +0       0       0       0
  2977 ;;Total ram usage:        2 bytes
  2978 ;; Hardware stack levels used:    1
  2979 ;; This function calls:
  2980 ;;		Nothing
  2981 ;; This function is called by:
  2982 ;;		_main
  2983 ;; This function uses a non-reentrant model
  2984 ;;
  2985                           
  2986                           	psect	text7
  2987  00B6B4                     __ptext7:
  2988                           	opt stack 0
  2989  00B6B4                     _control_leds_iluminacion:
  2990                           	opt stack 30
  2991                           
  2992                           ;main.c: 776: if(inicio_hora_ilum == hora && inicio_min_ilum == minuto){
  2993                           
  2994                           ; BSR set to: 0
  2995                           ;incstack = 0
  2996  00B6B4  0100               	movlb	0	; () banked
  2997  00B6B6  51ED               	movf	_inicio_hora_ilum& (0+255),w,b
  2998  00B6B8  6E01               	movwf	??_control_leds_iluminacion& (0+255),c
  2999  00B6BA  6A02               	clrf	(??_control_leds_iluminacion+1)& (0+255),c
  3000  00B6BC  505E               	movf	_hora,w,c
  3001  00B6BE  1801               	xorwf	??_control_leds_iluminacion,w,c
  3002  00B6C0  E113               	bnz	l5436
  3003  00B6C2  505F               	movf	_hora+1,w,c
  3004  00B6C4  1802               	xorwf	??_control_leds_iluminacion+1,w,c
  3005  00B6C6  A4D8               	btfss	status,2,c
  3006  00B6C8  D00F               	goto	l5436
  3007                           
  3008                           ; BSR set to: 0
  3009  00B6CA  0100               	movlb	0	; () banked
  3010  00B6CC  51BD               	movf	_inicio_min_ilum& (0+255),w,b
  3011  00B6CE  6E01               	movwf	??_control_leds_iluminacion& (0+255),c
  3012  00B6D0  6A02               	clrf	(??_control_leds_iluminacion+1)& (0+255),c
  3013  00B6D2  0100               	movlb	0	; () banked
  3014  00B6D4  51E8               	movf	_minuto& (0+255),w,b
  3015  00B6D6  1801               	xorwf	??_control_leds_iluminacion,w,c
  3016  00B6D8  E107               	bnz	l5436
  3017  00B6DA  0100               	movlb	0	; () banked
  3018  00B6DC  51E9               	movf	(_minuto+1)& (0+255),w,b
  3019  00B6DE  1802               	xorwf	??_control_leds_iluminacion+1,w,c
  3020  00B6E0  A4D8               	btfss	status,2,c
  3021  00B6E2  D002               	goto	l5436
  3022                           
  3023                           ; BSR set to: 0
  3024                           ;main.c: 777: LATBbits.LATB7 = 1;
  3025  00B6E4  8E8A               	bsf	3978,7,c	;volatile
  3026  00B6E6  D000               	goto	l5436
  3027  00B6E8                     l5436:
  3028                           
  3029                           ; BSR set to: 0
  3030                           ;main.c: 778: }
  3031                           ;main.c: 780: if(fin_hora_ilum == hora && fin_min_ilum == minuto){
  3032  00B6E8  0100               	movlb	0	; () banked
  3033  00B6EA  51EA               	movf	_fin_hora_ilum& (0+255),w,b
  3034  00B6EC  6E01               	movwf	??_control_leds_iluminacion& (0+255),c
  3035  00B6EE  6A02               	clrf	(??_control_leds_iluminacion+1)& (0+255),c
  3036  00B6F0  505E               	movf	_hora,w,c
  3037  00B6F2  1801               	xorwf	??_control_leds_iluminacion,w,c
  3038  00B6F4  E113               	bnz	l381
  3039  00B6F6  505F               	movf	_hora+1,w,c
  3040  00B6F8  1802               	xorwf	??_control_leds_iluminacion+1,w,c
  3041  00B6FA  A4D8               	btfss	status,2,c
  3042  00B6FC  0012               	return	
  3043                           
  3044                           ; BSR set to: 0
  3045  00B6FE  0100               	movlb	0	; () banked
  3046  00B700  51BC               	movf	_fin_min_ilum& (0+255),w,b
  3047  00B702  6E01               	movwf	??_control_leds_iluminacion& (0+255),c
  3048  00B704  6A02               	clrf	(??_control_leds_iluminacion+1)& (0+255),c
  3049  00B706  0100               	movlb	0	; () banked
  3050  00B708  51E8               	movf	_minuto& (0+255),w,b
  3051  00B70A  1801               	xorwf	??_control_leds_iluminacion,w,c
  3052  00B70C  E107               	bnz	l381
  3053  00B70E  0100               	movlb	0	; () banked
  3054  00B710  51E9               	movf	(_minuto+1)& (0+255),w,b
  3055  00B712  1802               	xorwf	??_control_leds_iluminacion+1,w,c
  3056  00B714  A4D8               	btfss	status,2,c
  3057  00B716  0012               	return	
  3058                           
  3059                           ; BSR set to: 0
  3060                           ;main.c: 781: LATBbits.LATB7 = 0;
  3061  00B718  9E8A               	bcf	3978,7,c	;volatile
  3062  00B71A  0012               	return	
  3063  00B71C                     l381:
  3064                           
  3065                           ; BSR set to: 0
  3066  00B71C  0012               	return		;funcret
  3067  00B71E                     __end_of_control_leds_iluminacion:
  3068                           	opt stack 0
  3069                           tblptru	equ	0xFF8
  3070                           tblptrh	equ	0xFF7
  3071                           tblptrl	equ	0xFF6
  3072                           tablat	equ	0xFF5
  3073                           postinc0	equ	0xFEE
  3074                           wreg	equ	0xFE8
  3075                           postdec1	equ	0xFE5
  3076                           fsr1l	equ	0xFE1
  3077                           status	equ	0xFD8
  3078                           
  3079 ;; *************** function _V_Reiniciar *****************
  3080 ;; Defined at:
  3081 ;;		line 584 in file "../main.c"
  3082 ;; Parameters:    Size  Location     Type
  3083 ;;		None
  3084 ;; Auto vars:     Size  Location     Type
  3085 ;;  borrar          1   89[COMRAM] unsigned char 
  3086 ;; Return value:  Size  Location     Type
  3087 ;;		None               void
  3088 ;; Registers used:
  3089 ;;		wreg, fsr0l, fsr0h, fsr2l, fsr2h, status,2, status,0, tblptrl, tblptrh, tblptru, prodl, prodh, cstack
  3090 ;; Tracked objects:
  3091 ;;		On entry : 0/0
  3092 ;;		On exit  : 0/0
  3093 ;;		Unchanged: 0/0
  3094 ;; Data sizes:     COMRAM   BANK0   BANK1   BANK2   BANK3   BANK4   BANK5   BANK6   BANK7   BANK8   BANK9  BANK10  BANK1
      +1  BANK12  BANK13  BANK14
  3095 ;;      Params:         0       0       0       0       0       0       0       0       0       0       0       0       
      +0       0       0       0
  3096 ;;      Locals:         1       0       0       0       0       0       0       0       0       0       0       0       
      +0       0       0       0
  3097 ;;      Temps:          1       0       0       0       0       0       0       0       0       0       0       0       
      +0       0       0       0
  3098 ;;      Totals:         2       0       0       0       0       0       0       0       0       0       0       0       
      +0       0       0       0
  3099 ;;Total ram usage:        2 bytes
  3100 ;; Hardware stack levels used:    1
  3101 ;; Hardware stack levels required when called:    3
  3102 ;; This function calls:
  3103 ;;		_Lcd_Cmd
  3104 ;;		_Lcd_Out
  3105 ;;		_Write_RTC
  3106 ;; This function is called by:
  3107 ;;		_main
  3108 ;; This function uses a non-reentrant model
  3109 ;;
  3110                           
  3111                           	psect	text8
  3112  00D192                     __ptext8:
  3113                           	opt stack 0
  3114  00D192                     _V_Reiniciar:
  3115                           	opt stack 27
  3116                           
  3117                           ;main.c: 586: Lcd_Cmd(1);
  3118                           
  3119                           ; BSR set to: 0
  3120                           ;incstack = 0
  3121  00D192  0E01               	movlw	1
  3122  00D194  EC20  F062         	call	_Lcd_Cmd
  3123                           
  3124                           ;main.c: 587: char borrar = 0;
  3125  00D198  0E00               	movlw	0
  3126  00D19A  6E5A               	movwf	V_Reiniciar@borrar,c
  3127                           
  3128                           ;main.c: 588: Lcd_Out(1, 0, "Esta seguro de rein");
  3129  00D19C  0E00               	movlw	0
  3130  00D19E  6E54               	movwf	Lcd_Out@x,c
  3131  00D1A0  0E5B               	movlw	low STR_58
  3132  00D1A2  6E55               	movwf	Lcd_Out@buffer,c
  3133  00D1A4  0EFF               	movlw	high STR_58
  3134  00D1A6  6E56               	movwf	Lcd_Out@buffer+1,c
  3135  00D1A8  0E01               	movlw	1
  3136  00D1AA  EC49  F05D         	call	_Lcd_Out
  3137                           
  3138                           ;main.c: 589: Lcd_Out(2, 0, "iciar a los valores ");
  3139  00D1AE  0E00               	movlw	0
  3140  00D1B0  6E54               	movwf	Lcd_Out@x,c
  3141  00D1B2  0E1C               	movlw	low STR_59
  3142  00D1B4  6E55               	movwf	Lcd_Out@buffer,c
  3143  00D1B6  0EFF               	movlw	high STR_59
  3144  00D1B8  6E56               	movwf	Lcd_Out@buffer+1,c
  3145  00D1BA  0E02               	movlw	2
  3146  00D1BC  EC49  F05D         	call	_Lcd_Out
  3147                           
  3148                           ;main.c: 590: Lcd_Out(3, 0, "por defecto?        ");
  3149  00D1C0  0E00               	movlw	0
  3150  00D1C2  6E54               	movwf	Lcd_Out@x,c
  3151  00D1C4  0EB3               	movlw	low STR_60
  3152  00D1C6  6E55               	movwf	Lcd_Out@buffer,c
  3153  00D1C8  0EFE               	movlw	high STR_60
  3154  00D1CA  6E56               	movwf	Lcd_Out@buffer+1,c
  3155  00D1CC  0E03               	movlw	3
  3156  00D1CE  EC49  F05D         	call	_Lcd_Out
  3157                           
  3158                           ;main.c: 591: Lcd_Out(4, 0, "   No          Si   ");
  3159  00D1D2  0E00               	movlw	0
  3160  00D1D4  6E54               	movwf	Lcd_Out@x,c
  3161  00D1D6  0EC8               	movlw	low STR_61
  3162  00D1D8  6E55               	movwf	Lcd_Out@buffer,c
  3163  00D1DA  0EFE               	movlw	high STR_61
  3164  00D1DC  6E56               	movwf	Lcd_Out@buffer+1,c
  3165  00D1DE  0E04               	movlw	4
  3166  00D1E0  EC49  F05D         	call	_Lcd_Out
  3167                           
  3168                           ;main.c: 593: Lcd_Out(4, 3, "");
  3169  00D1E4  0E03               	movlw	3
  3170  00D1E6  6E54               	movwf	Lcd_Out@x,c
  3171  00D1E8  0EF5               	movlw	low (STR_51+20)
  3172  00D1EA  6E55               	movwf	Lcd_Out@buffer,c
  3173  00D1EC  0EFD               	movlw	high (STR_51+20)
  3174  00D1EE  6E56               	movwf	Lcd_Out@buffer+1,c
  3175  00D1F0  0E04               	movlw	4
  3176  00D1F2  EC49  F05D         	call	_Lcd_Out
  3177                           
  3178                           ;main.c: 594: Lcd_Cmd(15);
  3179  00D1F6  0E0F               	movlw	15
  3180  00D1F8  EC20  F062         	call	_Lcd_Cmd
  3181                           
  3182                           ;main.c: 596: for (i = 0; i < 30; i++) {
  3183  00D1FC  0E00               	movlw	0
  3184  00D1FE  0100               	movlb	0	; () banked
  3185  00D200  6FB1               	movwf	(_i+1)& (0+255),b
  3186  00D202  0E00               	movlw	0
  3187  00D204  6FB0               	movwf	_i& (0+255),b
  3188                           
  3189                           ; BSR set to: 0
  3190  00D206  0100               	movlb	0	; () banked
  3191  00D208  BFB1               	btfsc	(_i+1)& (0+255),7,b
  3192  00D20A  D00A               	goto	l5692
  3193  00D20C  0100               	movlb	0	; () banked
  3194  00D20E  51B1               	movf	(_i+1)& (0+255),w,b
  3195  00D210  E106               	bnz	u6860
  3196  00D212  0E1E               	movlw	30
  3197  00D214  0100               	movlb	0	; () banked
  3198  00D216  5DB0               	subwf	_i& (0+255),w,b
  3199  00D218  B0D8               	btfsc	status,0,c
  3200  00D21A  D0B0               	goto	l5720
  3201  00D21C  D001               	goto	l5692
  3202  00D21E                     u6860:
  3203                           
  3204                           ; BSR set to: 0
  3205  00D21E  D0AE               	goto	l5720
  3206  00D220                     l5692:
  3207                           
  3208                           ; BSR set to: 0
  3209                           ;main.c: 597: _delay((unsigned long)((90)*(8000000/4000.0)));
  3210  00D220  0EEA               	movlw	234
  3211  00D222  6E59               	movwf	??_V_Reiniciar& (0+255),c
  3212  00D224  0EC3               	movlw	195
  3213  00D226                     u7847:
  3214  00D226  2EE8               	decfsz	wreg,f,c
  3215  00D228  D7FE               	goto	u7847
  3216  00D22A  2E59               	decfsz	??_V_Reiniciar& (0+255),f,c
  3217  00D22C  D7FC               	goto	u7847
  3218  00D22E  F000               	nop	
  3219                           
  3220                           ;main.c: 599: if (Sw_Right = PORTAbits.RA2 == 0) {
  3221  00D230  B480               	btfsc	3968,2,c	;volatile
  3222  00D232  D002               	goto	u6870
  3223  00D234  0E01               	movlw	1
  3224  00D236  D001               	goto	u6880
  3225  00D238                     u6870:
  3226  00D238  0E00               	movlw	0
  3227  00D23A                     u6880:
  3228  00D23A  0100               	movlb	0	; () banked
  3229  00D23C  6FBA               	movwf	_Sw_Right& (0+255),b
  3230  00D23E  0100               	movlb	0	; () banked
  3231  00D240  51BA               	movf	_Sw_Right& (0+255),w,b
  3232  00D242  B4D8               	btfsc	status,2,c
  3233  00D244  D011               	goto	l5700
  3234                           
  3235                           ; BSR set to: 0
  3236                           ;main.c: 600: i=0;
  3237  00D246  0E00               	movlw	0
  3238  00D248  0100               	movlb	0	; () banked
  3239  00D24A  6FB1               	movwf	(_i+1)& (0+255),b
  3240  00D24C  0E00               	movlw	0
  3241  00D24E  6FB0               	movwf	_i& (0+255),b
  3242                           
  3243                           ;main.c: 601: borrar = 1;
  3244  00D250  0E01               	movlw	1
  3245  00D252  6E5A               	movwf	V_Reiniciar@borrar,c
  3246                           
  3247                           ; BSR set to: 0
  3248                           ;main.c: 602: Lcd_Out(4, 15, "");
  3249  00D254  0E0F               	movlw	15
  3250  00D256  6E54               	movwf	Lcd_Out@x,c
  3251  00D258  0EF5               	movlw	low (STR_51+20)
  3252  00D25A  6E55               	movwf	Lcd_Out@buffer,c
  3253  00D25C  0EFD               	movlw	high (STR_51+20)
  3254  00D25E  6E56               	movwf	Lcd_Out@buffer+1,c
  3255  00D260  0E04               	movlw	4
  3256  00D262  EC49  F05D         	call	_Lcd_Out
  3257  00D266  D000               	goto	l5700
  3258  00D268                     l5700:
  3259                           
  3260                           ;main.c: 603: }
  3261                           ;main.c: 606: if (Sw_Left = PORTAbits.RA0 == 0) {
  3262  00D268  B080               	btfsc	3968,0,c	;volatile
  3263  00D26A  D002               	goto	u6900
  3264  00D26C  0E01               	movlw	1
  3265  00D26E  D001               	goto	u6910
  3266  00D270                     u6900:
  3267  00D270  0E00               	movlw	0
  3268  00D272                     u6910:
  3269  00D272  0100               	movlb	0	; () banked
  3270  00D274  6FB9               	movwf	_Sw_Left& (0+255),b
  3271  00D276  0100               	movlb	0	; () banked
  3272  00D278  51B9               	movf	_Sw_Left& (0+255),w,b
  3273  00D27A  B4D8               	btfsc	status,2,c
  3274  00D27C  D011               	goto	l5706
  3275                           
  3276                           ; BSR set to: 0
  3277                           ;main.c: 607: i=0;
  3278  00D27E  0E00               	movlw	0
  3279  00D280  0100               	movlb	0	; () banked
  3280  00D282  6FB1               	movwf	(_i+1)& (0+255),b
  3281  00D284  0E00               	movlw	0
  3282  00D286  6FB0               	movwf	_i& (0+255),b
  3283                           
  3284                           ;main.c: 608: borrar = 0;
  3285  00D288  0E00               	movlw	0
  3286  00D28A  6E5A               	movwf	V_Reiniciar@borrar,c
  3287                           
  3288                           ; BSR set to: 0
  3289                           ;main.c: 609: Lcd_Out(4, 3, "");
  3290  00D28C  0E03               	movlw	3
  3291  00D28E  6E54               	movwf	Lcd_Out@x,c
  3292  00D290  0EF5               	movlw	low (STR_51+20)
  3293  00D292  6E55               	movwf	Lcd_Out@buffer,c
  3294  00D294  0EFD               	movlw	high (STR_51+20)
  3295  00D296  6E56               	movwf	Lcd_Out@buffer+1,c
  3296  00D298  0E04               	movlw	4
  3297  00D29A  EC49  F05D         	call	_Lcd_Out
  3298  00D29E  D000               	goto	l5706
  3299  00D2A0                     l5706:
  3300                           
  3301                           ;main.c: 610: }
  3302                           ;main.c: 613: if (Sw_Center = PORTAbits.RA5 == 0) {
  3303  00D2A0  BA80               	btfsc	3968,5,c	;volatile
  3304  00D2A2  D002               	goto	u6930
  3305  00D2A4  0E01               	movlw	1
  3306  00D2A6  D001               	goto	u6940
  3307  00D2A8                     u6930:
  3308  00D2A8  0E00               	movlw	0
  3309  00D2AA                     u6940:
  3310  00D2AA  0100               	movlb	0	; () banked
  3311  00D2AC  6FB7               	movwf	_Sw_Center& (0+255),b
  3312  00D2AE  0100               	movlb	0	; () banked
  3313  00D2B0  51B7               	movf	_Sw_Center& (0+255),w,b
  3314  00D2B2  B4D8               	btfsc	status,2,c
  3315  00D2B4  D058               	goto	l5716
  3316                           
  3317                           ; BSR set to: 0
  3318                           ;main.c: 615: if(borrar == 1){
  3319  00D2B6  045A               	decf	V_Reiniciar@borrar,w,c
  3320  00D2B8  A4D8               	btfss	status,2,c
  3321  00D2BA  D060               	goto	l5720
  3322                           
  3323                           ; BSR set to: 0
  3324                           ;main.c: 616: anio = 20;
  3325  00D2BC  0E00               	movlw	0
  3326  00D2BE  0100               	movlb	0	; () banked
  3327  00D2C0  6FE3               	movwf	(_anio+1)& (0+255),b
  3328  00D2C2  0E14               	movlw	20
  3329  00D2C4  6FE2               	movwf	_anio& (0+255),b
  3330                           
  3331                           ;main.c: 617: mes = 11;
  3332  00D2C6  0E00               	movlw	0
  3333  00D2C8  0100               	movlb	0	; () banked
  3334  00D2CA  6FE7               	movwf	(_mes+1)& (0+255),b
  3335  00D2CC  0E0B               	movlw	11
  3336  00D2CE  6FE6               	movwf	_mes& (0+255),b
  3337                           
  3338                           ;main.c: 618: diasem = 0;
  3339  00D2D0  0E00               	movlw	0
  3340  00D2D2  0100               	movlb	0	; () banked
  3341  00D2D4  6FAF               	movwf	(_diasem+1)& (0+255),b
  3342  00D2D6  0E00               	movlw	0
  3343  00D2D8  6FAE               	movwf	_diasem& (0+255),b
  3344                           
  3345                           ;main.c: 619: dia = 6;
  3346  00D2DA  0E00               	movlw	0
  3347  00D2DC  0100               	movlb	0	; () banked
  3348  00D2DE  6FE5               	movwf	(_dia+1)& (0+255),b
  3349  00D2E0  0E06               	movlw	6
  3350  00D2E2  6FE4               	movwf	_dia& (0+255),b
  3351                           
  3352                           ;main.c: 620: hora = 23;
  3353  00D2E4  0E00               	movlw	0
  3354  00D2E6  6E5F               	movwf	_hora+1,c
  3355  00D2E8  0E17               	movlw	23
  3356  00D2EA  6E5E               	movwf	_hora,c
  3357                           
  3358                           ;main.c: 621: minuto = 58;
  3359  00D2EC  0E00               	movlw	0
  3360  00D2EE  0100               	movlb	0	; () banked
  3361  00D2F0  6FE9               	movwf	(_minuto+1)& (0+255),b
  3362  00D2F2  0E3A               	movlw	58
  3363  00D2F4  6FE8               	movwf	_minuto& (0+255),b
  3364                           
  3365                           ;main.c: 622: segundo = 0;
  3366  00D2F6  0E00               	movlw	0
  3367  00D2F8  0100               	movlb	0	; () banked
  3368  00D2FA  6FB3               	movwf	(_segundo+1)& (0+255),b
  3369  00D2FC  0E00               	movlw	0
  3370  00D2FE  6FB2               	movwf	_segundo& (0+255),b
  3371                           
  3372                           ;main.c: 623: lectura = 0;
  3373  00D300  0E00               	movlw	0
  3374  00D302  0100               	movlb	0	; () banked
  3375  00D304  6FBF               	movwf	_lectura& (0+255),b
  3376                           
  3377                           ;main.c: 624: temp_prog= 25.3;
  3378  00D306  0E66               	movlw	102
  3379  00D308  0100               	movlb	0	; () banked
  3380  00D30A  6FDF               	movwf	_temp_prog& (0+255),b
  3381  00D30C  0ECA               	movlw	202
  3382  00D30E  0100               	movlb	0	; () banked
  3383  00D310  6FE0               	movwf	(_temp_prog+1)& (0+255),b
  3384  00D312  0E41               	movlw	65
  3385  00D314  0100               	movlb	0	; () banked
  3386  00D316  6FE1               	movwf	(_temp_prog+2)& (0+255),b
  3387                           
  3388                           ;main.c: 625: grados = 20;
  3389  00D318  0E00               	movlw	0
  3390  00D31A  0100               	movlb	0	; () banked
  3391  00D31C  6FDC               	movwf	_grados& (0+255),b
  3392  00D31E  0EA0               	movlw	160
  3393  00D320  0100               	movlb	0	; () banked
  3394  00D322  6FDD               	movwf	(_grados+1)& (0+255),b
  3395  00D324  0E41               	movlw	65
  3396  00D326  0100               	movlb	0	; () banked
  3397  00D328  6FDE               	movwf	(_grados+2)& (0+255),b
  3398                           
  3399                           ;main.c: 626: inicio_hora_ilum = 20;
  3400  00D32A  0E14               	movlw	20
  3401  00D32C  0100               	movlb	0	; () banked
  3402  00D32E  6FED               	movwf	_inicio_hora_ilum& (0+255),b
  3403                           
  3404                           ;main.c: 627: inicio_min_ilum = 0;
  3405  00D330  0E00               	movlw	0
  3406  00D332  0100               	movlb	0	; () banked
  3407  00D334  6FBD               	movwf	_inicio_min_ilum& (0+255),b
  3408                           
  3409                           ;main.c: 628: fin_hora_ilum = 22;
  3410  00D336  0E16               	movlw	22
  3411  00D338  0100               	movlb	0	; () banked
  3412  00D33A  6FEA               	movwf	_fin_hora_ilum& (0+255),b
  3413                           
  3414                           ;main.c: 629: fin_min_ilum = 0;
  3415  00D33C  0E00               	movlw	0
  3416  00D33E  0100               	movlb	0	; () banked
  3417  00D340  6FBC               	movwf	_fin_min_ilum& (0+255),b
  3418                           
  3419                           ;main.c: 630: inicio_hora_riego = 23;
  3420  00D342  0E17               	movlw	23
  3421  00D344  0100               	movlb	0	; () banked
  3422  00D346  6FEE               	movwf	_inicio_hora_riego& (0+255),b
  3423                           
  3424                           ;main.c: 631: inicio_min_riego = 0;
  3425  00D348  0E00               	movlw	0
  3426  00D34A  0100               	movlb	0	; () banked
  3427  00D34C  6FBE               	movwf	_inicio_min_riego& (0+255),b
  3428                           
  3429                           ;main.c: 632: fin_hora_riego = 23;
  3430  00D34E  0E17               	movlw	23
  3431  00D350  0100               	movlb	0	; () banked
  3432  00D352  6FEB               	movwf	_fin_hora_riego& (0+255),b
  3433                           
  3434                           ;main.c: 633: fin_min_riego = 59;
  3435  00D354  0E3B               	movlw	59
  3436  00D356  0100               	movlb	0	; () banked
  3437  00D358  6FEC               	movwf	_fin_min_riego& (0+255),b
  3438                           
  3439                           ; BSR set to: 0
  3440                           ;main.c: 634: Write_RTC();
  3441  00D35A  EC1A  F067         	call	_Write_RTC	;wreg free
  3442                           
  3443                           ;main.c: 635: break;
  3444  00D35E  D00E               	goto	l5720
  3445                           
  3446                           ;main.c: 636: }else{
  3447  00D360  D002               	goto	l5716
  3448                           
  3449                           ;main.c: 637: break;
  3450  00D362  D00C               	goto	l5720
  3451  00D364  D000               	goto	l5716
  3452  00D366                     l5716:
  3453  00D366  0100               	movlb	0	; () banked
  3454  00D368  4BB0               	infsnz	_i& (0+255),f,b
  3455  00D36A  2BB1               	incf	(_i+1)& (0+255),f,b
  3456                           
  3457                           ; BSR set to: 0
  3458  00D36C  0100               	movlb	0	; () banked
  3459  00D36E  BFB1               	btfsc	(_i+1)& (0+255),7,b
  3460  00D370  D757               	goto	l5692
  3461  00D372  0100               	movlb	0	; () banked
  3462  00D374  51B1               	movf	(_i+1)& (0+255),w,b
  3463  00D376  E102               	bnz	l5720
  3464  00D378  D74C               	goto	L1
  3465  00D37A  D000               	goto	l5720
  3466  00D37C                     l5720:
  3467                           
  3468                           ;main.c: 638: }
  3469                           ;main.c: 639: }
  3470                           ;main.c: 640: }
  3471                           ;main.c: 641: Lcd_Cmd(12);
  3472  00D37C  0E0C               	movlw	12
  3473  00D37E  EC20  F062         	call	_Lcd_Cmd
  3474  00D382  0012               	return		;funcret
  3475  00D384                     __end_of_V_Reiniciar:
  3476                           	opt stack 0
  3477                           tblptru	equ	0xFF8
  3478                           tblptrh	equ	0xFF7
  3479                           tblptrl	equ	0xFF6
  3480                           tablat	equ	0xFF5
  3481                           postinc0	equ	0xFEE
  3482                           wreg	equ	0xFE8
  3483                           postdec1	equ	0xFE5
  3484                           fsr1l	equ	0xFE1
  3485                           status	equ	0xFD8
  3486                           
  3487 ;; *************** function _V_ProgTempAgua *****************
  3488 ;; Defined at:
  3489 ;;		line 532 in file "../main.c"
  3490 ;; Parameters:    Size  Location     Type
  3491 ;;		None
  3492 ;; Auto vars:     Size  Location     Type
  3493 ;;  temp_prog_tr    3   89[COMRAM] float 
  3494 ;; Return value:  Size  Location     Type
  3495 ;;		None               void
  3496 ;; Registers used:
  3497 ;;		wreg, fsr0l, fsr0h, fsr2l, fsr2h, status,2, status,0, tblptrl, tblptrh, tblptru, prodl, prodh, cstack
  3498 ;; Tracked objects:
  3499 ;;		On entry : 0/0
  3500 ;;		On exit  : 0/0
  3501 ;;		Unchanged: 0/0
  3502 ;; Data sizes:     COMRAM   BANK0   BANK1   BANK2   BANK3   BANK4   BANK5   BANK6   BANK7   BANK8   BANK9  BANK10  BANK1
      +1  BANK12  BANK13  BANK14
  3503 ;;      Params:         0       0       0       0       0       0       0       0       0       0       0       0       
      +0       0       0       0
  3504 ;;      Locals:         3       0       0       0       0       0       0       0       0       0       0       0       
      +0       0       0       0
  3505 ;;      Temps:          1       0       0       0       0       0       0       0       0       0       0       0       
      +0       0       0       0
  3506 ;;      Totals:         4       0       0       0       0       0       0       0       0       0       0       0       
      +0       0       0       0
  3507 ;;Total ram usage:        4 bytes
  3508 ;; Hardware stack levels used:    1
  3509 ;; Hardware stack levels required when called:    4
  3510 ;; This function calls:
  3511 ;;		_Lcd_Cmd
  3512 ;;		_Lcd_Out
  3513 ;;		___ftadd
  3514 ;;		___ftge
  3515 ;;		___ftsub
  3516 ;;		_sprintf
  3517 ;; This function is called by:
  3518 ;;		_main
  3519 ;; This function uses a non-reentrant model
  3520 ;;
  3521                           
  3522                           	psect	text9
  3523  00D5D2                     __ptext9:
  3524                           	opt stack 0
  3525  00D5D2                     _V_ProgTempAgua:
  3526                           	opt stack 26
  3527                           
  3528                           ;main.c: 534: Lcd_Cmd(1);
  3529                           
  3530                           ;incstack = 0
  3531  00D5D2  0E01               	movlw	1
  3532  00D5D4  EC20  F062         	call	_Lcd_Cmd
  3533                           
  3534                           ;main.c: 535: float temp_prog_tr = temp_prog;
  3535  00D5D8  C0DF  F05A         	movff	_temp_prog,V_ProgTempAgua@temp_prog_tr
  3536  00D5DC  C0E0  F05B         	movff	_temp_prog+1,V_ProgTempAgua@temp_prog_tr+1
  3537  00D5E0  C0E1  F05C         	movff	_temp_prog+2,V_ProgTempAgua@temp_prog_tr+2
  3538                           
  3539                           ;main.c: 536: Lcd_Out(1, 0, "Programacion de la  ");
  3540  00D5E4  0E00               	movlw	0
  3541  00D5E6  6E54               	movwf	Lcd_Out@x,c
  3542  00D5E8  0E07               	movlw	low STR_49
  3543  00D5EA  6E55               	movwf	Lcd_Out@buffer,c
  3544  00D5EC  0EFF               	movlw	high STR_49
  3545  00D5EE  6E56               	movwf	Lcd_Out@buffer+1,c
  3546  00D5F0  0E01               	movlw	1
  3547  00D5F2  EC49  F05D         	call	_Lcd_Out
  3548                           
  3549                           ;main.c: 537: Lcd_Out(2, 0, "Temperatura del agua");
  3550  00D5F6  0E00               	movlw	0
  3551  00D5F8  6E54               	movwf	Lcd_Out@x,c
  3552  00D5FA  0E46               	movlw	low STR_50
  3553  00D5FC  6E55               	movwf	Lcd_Out@buffer,c
  3554  00D5FE  0EFF               	movlw	high STR_50
  3555  00D600  6E56               	movwf	Lcd_Out@buffer+1,c
  3556  00D602  0E02               	movlw	2
  3557  00D604  EC49  F05D         	call	_Lcd_Out
  3558                           
  3559                           ;main.c: 538: Lcd_Out(3, 0, "                    ");
  3560  00D608  0E00               	movlw	0
  3561  00D60A  6E54               	movwf	Lcd_Out@x,c
  3562  00D60C  0EE1               	movlw	low STR_51
  3563  00D60E  6E55               	movwf	Lcd_Out@buffer,c
  3564  00D610  0EFD               	movlw	high STR_51
  3565  00D612  6E56               	movwf	Lcd_Out@buffer+1,c
  3566  00D614  0E03               	movlw	3
  3567  00D616  EC49  F05D         	call	_Lcd_Out
  3568                           
  3569                           ;main.c: 539: sprintf(buffer1, "Temperatura: %.1f%cC", temp_prog, 223);
  3570  00D61A  0EC0               	movlw	low _buffer1
  3571  00D61C  6E40               	movwf	sprintf@sp,c
  3572  00D61E  0E00               	movlw	high _buffer1
  3573  00D620  6E41               	movwf	sprintf@sp+1,c
  3574  00D622  0E31               	movlw	low STR_52
  3575  00D624  6E42               	movwf	sprintf@f,c
  3576  00D626  0EFF               	movlw	high STR_52
  3577  00D628  6E43               	movwf	sprintf@f+1,c
  3578  00D62A  C0DF  F044         	movff	_temp_prog,?_sprintf+4
  3579  00D62E  C0E0  F045         	movff	_temp_prog+1,?_sprintf+5
  3580  00D632  C0E1  F046         	movff	_temp_prog+2,?_sprintf+6
  3581  00D636  0E00               	movlw	0
  3582  00D638  6E48               	movwf	?_sprintf+8,c
  3583  00D63A  0EDF               	movlw	223
  3584  00D63C  6E47               	movwf	?_sprintf+7,c
  3585  00D63E  EC87  F074         	call	_sprintf	;wreg free
  3586                           
  3587                           ;main.c: 540: Lcd_Out(4, 0, buffer1);
  3588  00D642  0E00               	movlw	0
  3589  00D644  6E54               	movwf	Lcd_Out@x,c
  3590  00D646  0EC0               	movlw	low _buffer1
  3591  00D648  6E55               	movwf	Lcd_Out@buffer,c
  3592  00D64A  0E00               	movlw	high _buffer1
  3593  00D64C  6E56               	movwf	Lcd_Out@buffer+1,c
  3594  00D64E  0E04               	movlw	4
  3595  00D650  EC49  F05D         	call	_Lcd_Out
  3596                           
  3597                           ;main.c: 542: Lcd_Out(4, 13, "");
  3598  00D654  0E0D               	movlw	13
  3599  00D656  6E54               	movwf	Lcd_Out@x,c
  3600  00D658  0EF5               	movlw	low (STR_51+20)
  3601  00D65A  6E55               	movwf	Lcd_Out@buffer,c
  3602  00D65C  0EFD               	movlw	high (STR_51+20)
  3603  00D65E  6E56               	movwf	Lcd_Out@buffer+1,c
  3604  00D660  0E04               	movlw	4
  3605  00D662  EC49  F05D         	call	_Lcd_Out
  3606                           
  3607                           ;main.c: 543: Lcd_Cmd(15);
  3608  00D666  0E0F               	movlw	15
  3609  00D668  EC20  F062         	call	_Lcd_Cmd
  3610                           
  3611                           ;main.c: 545: for (i = 0; i < 30; i++) {
  3612  00D66C  0E00               	movlw	0
  3613  00D66E  0100               	movlb	0	; () banked
  3614  00D670  6FB1               	movwf	(_i+1)& (0+255),b
  3615  00D672  0E00               	movlw	0
  3616  00D674  6FB0               	movwf	_i& (0+255),b
  3617                           
  3618                           ; BSR set to: 0
  3619  00D676  0100               	movlb	0	; () banked
  3620  00D678  BFB1               	btfsc	(_i+1)& (0+255),7,b
  3621  00D67A  D00A               	goto	l5746
  3622  00D67C  0100               	movlb	0	; () banked
  3623  00D67E  51B1               	movf	(_i+1)& (0+255),w,b
  3624  00D680  E106               	bnz	u6980
  3625  00D682  0E1E               	movlw	30
  3626  00D684  0100               	movlb	0	; () banked
  3627  00D686  5DB0               	subwf	_i& (0+255),w,b
  3628  00D688  B0D8               	btfsc	status,0,c
  3629  00D68A  D0E1               	goto	l5788
  3630  00D68C  D001               	goto	l5746
  3631  00D68E                     u6980:
  3632                           
  3633                           ; BSR set to: 0
  3634  00D68E  D0DF               	goto	l5788
  3635  00D690                     l5746:
  3636                           
  3637                           ; BSR set to: 0
  3638                           ;main.c: 546: _delay((unsigned long)((90)*(8000000/4000.0)));
  3639  00D690  0EEA               	movlw	234
  3640  00D692  6E59               	movwf	??_V_ProgTempAgua& (0+255),c
  3641  00D694  0EC3               	movlw	195
  3642  00D696                     u7857:
  3643  00D696  2EE8               	decfsz	wreg,f,c
  3644  00D698  D7FE               	goto	u7857
  3645  00D69A  2E59               	decfsz	??_V_ProgTempAgua& (0+255),f,c
  3646  00D69C  D7FC               	goto	u7857
  3647  00D69E  F000               	nop	
  3648                           
  3649                           ;main.c: 548: if (Sw_Up = PORTAbits.RA3 == 0) {
  3650  00D6A0  B680               	btfsc	3968,3,c	;volatile
  3651  00D6A2  D002               	goto	u6990
  3652  00D6A4  0E01               	movlw	1
  3653  00D6A6  D001               	goto	u7000
  3654  00D6A8                     u6990:
  3655  00D6A8  0E00               	movlw	0
  3656  00D6AA                     u7000:
  3657  00D6AA  0100               	movlb	0	; () banked
  3658  00D6AC  6FBB               	movwf	_Sw_Up& (0+255),b
  3659  00D6AE  0100               	movlb	0	; () banked
  3660  00D6B0  51BB               	movf	_Sw_Up& (0+255),w,b
  3661  00D6B2  B4D8               	btfsc	status,2,c
  3662  00D6B4  D052               	goto	l5764
  3663                           
  3664                           ; BSR set to: 0
  3665                           ;main.c: 549: i = 0;
  3666  00D6B6  0E00               	movlw	0
  3667  00D6B8  0100               	movlb	0	; () banked
  3668  00D6BA  6FB1               	movwf	(_i+1)& (0+255),b
  3669  00D6BC  0E00               	movlw	0
  3670  00D6BE  6FB0               	movwf	_i& (0+255),b
  3671                           
  3672                           ; BSR set to: 0
  3673                           ;main.c: 550: if (temp_prog_tr < 33.1) {temp_prog_tr+=0.1; }
  3674  00D6C0  C05A  F001         	movff	V_ProgTempAgua@temp_prog_tr,___ftge@ff1
  3675  00D6C4  C05B  F002         	movff	V_ProgTempAgua@temp_prog_tr+1,___ftge@ff1+1
  3676  00D6C8  C05C  F003         	movff	V_ProgTempAgua@temp_prog_tr+2,___ftge@ff1+2
  3677  00D6CC  0E66               	movlw	102
  3678  00D6CE  6E04               	movwf	___ftge@ff2,c
  3679  00D6D0  0E04               	movlw	4
  3680  00D6D2  6E05               	movwf	___ftge@ff2+1,c
  3681  00D6D4  0E42               	movlw	66
  3682  00D6D6  6E06               	movwf	___ftge@ff2+2,c
  3683  00D6D8  EC93  F05D         	call	___ftge	;wreg free
  3684  00D6DC  B0D8               	btfsc	status,0,c
  3685  00D6DE  D014               	goto	l338
  3686  00D6E0  C05A  F02E         	movff	V_ProgTempAgua@temp_prog_tr,___ftadd@f1
  3687  00D6E4  C05B  F02F         	movff	V_ProgTempAgua@temp_prog_tr+1,___ftadd@f1+1
  3688  00D6E8  C05C  F030         	movff	V_ProgTempAgua@temp_prog_tr+2,___ftadd@f1+2
  3689  00D6EC  0ECD               	movlw	205
  3690  00D6EE  6E31               	movwf	___ftadd@f2,c
  3691  00D6F0  0ECC               	movlw	204
  3692  00D6F2  6E32               	movwf	___ftadd@f2+1,c
  3693  00D6F4  0E3D               	movlw	61
  3694  00D6F6  6E33               	movwf	___ftadd@f2+2,c
  3695  00D6F8  ECE7  F067         	call	___ftadd	;wreg free
  3696  00D6FC  C02E  F05A         	movff	?___ftadd,V_ProgTempAgua@temp_prog_tr
  3697  00D700  C02F  F05B         	movff	?___ftadd+1,V_ProgTempAgua@temp_prog_tr+1
  3698  00D704  C030  F05C         	movff	?___ftadd+2,V_ProgTempAgua@temp_prog_tr+2
  3699  00D708                     l338:
  3700                           
  3701                           ;main.c: 551: Lcd_Cmd(12);
  3702  00D708  0E0C               	movlw	12
  3703  00D70A  EC20  F062         	call	_Lcd_Cmd
  3704                           
  3705                           ;main.c: 552: sprintf(buffer1, "%0.1f", temp_prog_tr);
  3706  00D70E  0EC0               	movlw	low _buffer1
  3707  00D710  6E40               	movwf	sprintf@sp,c
  3708  00D712  0E00               	movlw	high _buffer1
  3709  00D714  6E41               	movwf	sprintf@sp+1,c
  3710  00D716  0EE6               	movlw	low STR_54
  3711  00D718  6E42               	movwf	sprintf@f,c
  3712  00D71A  0EFF               	movlw	high STR_54
  3713  00D71C  6E43               	movwf	sprintf@f+1,c
  3714  00D71E  C05A  F044         	movff	V_ProgTempAgua@temp_prog_tr,?_sprintf+4
  3715  00D722  C05B  F045         	movff	V_ProgTempAgua@temp_prog_tr+1,?_sprintf+5
  3716  00D726  C05C  F046         	movff	V_ProgTempAgua@temp_prog_tr+2,?_sprintf+6
  3717  00D72A  EC87  F074         	call	_sprintf	;wreg free
  3718                           
  3719                           ;main.c: 553: Lcd_Out(4, 13, buffer1);
  3720  00D72E  0E0D               	movlw	13
  3721  00D730  6E54               	movwf	Lcd_Out@x,c
  3722  00D732  0EC0               	movlw	low _buffer1
  3723  00D734  6E55               	movwf	Lcd_Out@buffer,c
  3724  00D736  0E00               	movlw	high _buffer1
  3725  00D738  6E56               	movwf	Lcd_Out@buffer+1,c
  3726  00D73A  0E04               	movlw	4
  3727  00D73C  EC49  F05D         	call	_Lcd_Out
  3728                           
  3729                           ;main.c: 554: Lcd_Out(4, 13, "");
  3730  00D740  0E0D               	movlw	13
  3731  00D742  6E54               	movwf	Lcd_Out@x,c
  3732  00D744  0EF5               	movlw	low (STR_51+20)
  3733  00D746  6E55               	movwf	Lcd_Out@buffer,c
  3734  00D748  0EFD               	movlw	high (STR_51+20)
  3735  00D74A  6E56               	movwf	Lcd_Out@buffer+1,c
  3736  00D74C  0E04               	movlw	4
  3737  00D74E  EC49  F05D         	call	_Lcd_Out
  3738                           
  3739                           ;main.c: 555: Lcd_Cmd(15);
  3740  00D752  0E0F               	movlw	15
  3741  00D754  EC20  F062         	call	_Lcd_Cmd
  3742  00D758  D000               	goto	l5764
  3743  00D75A                     l5764:
  3744                           
  3745                           ;main.c: 556: }
  3746                           ;main.c: 560: if (Sw_Down = PORTCbits.RC4 == 0) {
  3747  00D75A  B882               	btfsc	3970,4,c	;volatile
  3748  00D75C  D002               	goto	u7030
  3749  00D75E  0E01               	movlw	1
  3750  00D760  D001               	goto	u7040
  3751  00D762                     u7030:
  3752  00D762  0E00               	movlw	0
  3753  00D764                     u7040:
  3754  00D764  0100               	movlb	0	; () banked
  3755  00D766  6FB8               	movwf	_Sw_Down& (0+255),b
  3756  00D768  0100               	movlb	0	; () banked
  3757  00D76A  51B8               	movf	_Sw_Down& (0+255),w,b
  3758  00D76C  B4D8               	btfsc	status,2,c
  3759  00D76E  D052               	goto	l5780
  3760                           
  3761                           ; BSR set to: 0
  3762                           ;main.c: 561: i = 0;
  3763  00D770  0E00               	movlw	0
  3764  00D772  0100               	movlb	0	; () banked
  3765  00D774  6FB1               	movwf	(_i+1)& (0+255),b
  3766  00D776  0E00               	movlw	0
  3767  00D778  6FB0               	movwf	_i& (0+255),b
  3768                           
  3769                           ; BSR set to: 0
  3770                           ;main.c: 562: if (temp_prog_tr > 0) {temp_prog_tr-=0.1; }
  3771  00D77A  0E00               	movlw	0
  3772  00D77C  6E01               	movwf	___ftge@ff1,c
  3773  00D77E  0E00               	movlw	0
  3774  00D780  6E02               	movwf	___ftge@ff1+1,c
  3775  00D782  0E00               	movlw	0
  3776  00D784  6E03               	movwf	___ftge@ff1+2,c
  3777  00D786  C05A  F004         	movff	V_ProgTempAgua@temp_prog_tr,___ftge@ff2
  3778  00D78A  C05B  F005         	movff	V_ProgTempAgua@temp_prog_tr+1,___ftge@ff2+1
  3779  00D78E  C05C  F006         	movff	V_ProgTempAgua@temp_prog_tr+2,___ftge@ff2+2
  3780  00D792  EC93  F05D         	call	___ftge	;wreg free
  3781  00D796  B0D8               	btfsc	status,0,c
  3782  00D798  D014               	goto	l340
  3783  00D79A  C05A  F03A         	movff	V_ProgTempAgua@temp_prog_tr,___ftsub@f1
  3784  00D79E  C05B  F03B         	movff	V_ProgTempAgua@temp_prog_tr+1,___ftsub@f1+1
  3785  00D7A2  C05C  F03C         	movff	V_ProgTempAgua@temp_prog_tr+2,___ftsub@f1+2
  3786  00D7A6  0ECD               	movlw	205
  3787  00D7A8  6E3D               	movwf	___ftsub@f2,c
  3788  00D7AA  0ECC               	movlw	204
  3789  00D7AC  6E3E               	movwf	___ftsub@f2+1,c
  3790  00D7AE  0E3D               	movlw	61
  3791  00D7B0  6E3F               	movwf	___ftsub@f2+2,c
  3792  00D7B2  ECE1  F05A         	call	___ftsub	;wreg free
  3793  00D7B6  C03A  F05A         	movff	?___ftsub,V_ProgTempAgua@temp_prog_tr
  3794  00D7BA  C03B  F05B         	movff	?___ftsub+1,V_ProgTempAgua@temp_prog_tr+1
  3795  00D7BE  C03C  F05C         	movff	?___ftsub+2,V_ProgTempAgua@temp_prog_tr+2
  3796  00D7C2                     l340:
  3797                           
  3798                           ;main.c: 563: Lcd_Cmd(12);
  3799  00D7C2  0E0C               	movlw	12
  3800  00D7C4  EC20  F062         	call	_Lcd_Cmd
  3801                           
  3802                           ;main.c: 564: sprintf(buffer1, "%.1f", temp_prog_tr);
  3803  00D7C8  0EC0               	movlw	low _buffer1
  3804  00D7CA  6E40               	movwf	sprintf@sp,c
  3805  00D7CC  0E00               	movlw	high _buffer1
  3806  00D7CE  6E41               	movwf	sprintf@sp+1,c
  3807  00D7D0  0EEC               	movlw	low STR_56
  3808  00D7D2  6E42               	movwf	sprintf@f,c
  3809  00D7D4  0EFF               	movlw	high STR_56
  3810  00D7D6  6E43               	movwf	sprintf@f+1,c
  3811  00D7D8  C05A  F044         	movff	V_ProgTempAgua@temp_prog_tr,?_sprintf+4
  3812  00D7DC  C05B  F045         	movff	V_ProgTempAgua@temp_prog_tr+1,?_sprintf+5
  3813  00D7E0  C05C  F046         	movff	V_ProgTempAgua@temp_prog_tr+2,?_sprintf+6
  3814  00D7E4  EC87  F074         	call	_sprintf	;wreg free
  3815                           
  3816                           ;main.c: 565: Lcd_Out(4, 13, buffer1);
  3817  00D7E8  0E0D               	movlw	13
  3818  00D7EA  6E54               	movwf	Lcd_Out@x,c
  3819  00D7EC  0EC0               	movlw	low _buffer1
  3820  00D7EE  6E55               	movwf	Lcd_Out@buffer,c
  3821  00D7F0  0E00               	movlw	high _buffer1
  3822  00D7F2  6E56               	movwf	Lcd_Out@buffer+1,c
  3823  00D7F4  0E04               	movlw	4
  3824  00D7F6  EC49  F05D         	call	_Lcd_Out
  3825                           
  3826                           ;main.c: 566: Lcd_Out(4, 13, "");
  3827  00D7FA  0E0D               	movlw	13
  3828  00D7FC  6E54               	movwf	Lcd_Out@x,c
  3829  00D7FE  0EF5               	movlw	low (STR_51+20)
  3830  00D800  6E55               	movwf	Lcd_Out@buffer,c
  3831  00D802  0EFD               	movlw	high (STR_51+20)
  3832  00D804  6E56               	movwf	Lcd_Out@buffer+1,c
  3833  00D806  0E04               	movlw	4
  3834  00D808  EC49  F05D         	call	_Lcd_Out
  3835                           
  3836                           ;main.c: 567: Lcd_Cmd(15);
  3837  00D80C  0E0F               	movlw	15
  3838  00D80E  EC20  F062         	call	_Lcd_Cmd
  3839  00D812  D000               	goto	l5780
  3840  00D814                     l5780:
  3841                           
  3842                           ;main.c: 569: }
  3843                           ;main.c: 572: if (Sw_Center = PORTAbits.RA5 == 0) {
  3844  00D814  BA80               	btfsc	3968,5,c	;volatile
  3845  00D816  D002               	goto	u7070
  3846  00D818  0E01               	movlw	1
  3847  00D81A  D001               	goto	u7080
  3848  00D81C                     u7070:
  3849  00D81C  0E00               	movlw	0
  3850  00D81E                     u7080:
  3851  00D81E  0100               	movlb	0	; () banked
  3852  00D820  6FB7               	movwf	_Sw_Center& (0+255),b
  3853  00D822  0100               	movlb	0	; () banked
  3854  00D824  51B7               	movf	_Sw_Center& (0+255),w,b
  3855  00D826  B4D8               	btfsc	status,2,c
  3856  00D828  D007               	goto	l5784
  3857                           
  3858                           ; BSR set to: 0
  3859                           ;main.c: 573: temp_prog = temp_prog_tr;
  3860  00D82A  C05A  F0DF         	movff	V_ProgTempAgua@temp_prog_tr,_temp_prog
  3861  00D82E  C05B  F0E0         	movff	V_ProgTempAgua@temp_prog_tr+1,_temp_prog+1
  3862  00D832  C05C  F0E1         	movff	V_ProgTempAgua@temp_prog_tr+2,_temp_prog+2
  3863                           
  3864                           ;main.c: 574: break;
  3865  00D836  D00B               	goto	l5788
  3866  00D838                     l5784:
  3867                           
  3868                           ; BSR set to: 0
  3869  00D838  0100               	movlb	0	; () banked
  3870  00D83A  4BB0               	infsnz	_i& (0+255),f,b
  3871  00D83C  2BB1               	incf	(_i+1)& (0+255),f,b
  3872                           
  3873                           ; BSR set to: 0
  3874  00D83E  0100               	movlb	0	; () banked
  3875  00D840  BFB1               	btfsc	(_i+1)& (0+255),7,b
  3876  00D842  D726               	goto	l5746
  3877  00D844  0100               	movlb	0	; () banked
  3878  00D846  51B1               	movf	(_i+1)& (0+255),w,b
  3879  00D848  E102               	bnz	l5788
  3880  00D84A  D71B               	goto	L2
  3881  00D84C  D000               	goto	l5788
  3882  00D84E                     l5788:
  3883                           
  3884                           ; BSR set to: 0
  3885                           ;main.c: 575: }
  3886                           ;main.c: 576: }
  3887                           ;main.c: 577: Lcd_Cmd(12);
  3888  00D84E  0E0C               	movlw	12
  3889  00D850  EC20  F062         	call	_Lcd_Cmd
  3890  00D854  0012               	return		;funcret
  3891  00D856                     __end_of_V_ProgTempAgua:
  3892                           	opt stack 0
  3893                           tblptru	equ	0xFF8
  3894                           tblptrh	equ	0xFF7
  3895                           tblptrl	equ	0xFF6
  3896                           tablat	equ	0xFF5
  3897                           postinc0	equ	0xFEE
  3898                           wreg	equ	0xFE8
  3899                           postdec1	equ	0xFE5
  3900                           fsr1l	equ	0xFE1
  3901                           status	equ	0xFD8
  3902                           
  3903 ;; *************** function _V_ProgRiegoIlum *****************
  3904 ;; Defined at:
  3905 ;;		line 377 in file "../main.c"
  3906 ;; Parameters:    Size  Location     Type
  3907 ;;		None
  3908 ;; Auto vars:     Size  Location     Type
  3909 ;;  posicion        2   72[BANK0 ] int 
  3910 ;;  f_min_riego_    1   71[BANK0 ] unsigned char 
  3911 ;;  f_hora_riego    1   70[BANK0 ] unsigned char 
  3912 ;;  i_min_riego_    1   69[BANK0 ] unsigned char 
  3913 ;;  i_hora_riego    1   68[BANK0 ] unsigned char 
  3914 ;;  f_min_ilum_t    1   67[BANK0 ] unsigned char 
  3915 ;;  f_hora_ilum_    1   66[BANK0 ] unsigned char 
  3916 ;;  i_min_ilum_t    1   65[BANK0 ] unsigned char 
  3917 ;;  i_hora_ilum_    1   64[BANK0 ] unsigned char 
  3918 ;; Return value:  Size  Location     Type
  3919 ;;		None               void
  3920 ;; Registers used:
  3921 ;;		wreg, fsr0l, fsr0h, fsr2l, fsr2h, status,2, status,0, tblptrl, tblptrh, tblptru, prodl, prodh, cstack
  3922 ;; Tracked objects:
  3923 ;;		On entry : 0/0
  3924 ;;		On exit  : 0/0
  3925 ;;		Unchanged: 0/0
  3926 ;; Data sizes:     COMRAM   BANK0   BANK1   BANK2   BANK3   BANK4   BANK5   BANK6   BANK7   BANK8   BANK9  BANK10  BANK1
      +1  BANK12  BANK13  BANK14
  3927 ;;      Params:         0       0       0       0       0       0       0       0       0       0       0       0       
      +0       0       0       0
  3928 ;;      Locals:         0      10       0       0       0       0       0       0       0       0       0       0       
      +0       0       0       0
  3929 ;;      Temps:          2       0       0       0       0       0       0       0       0       0       0       0       
      +0       0       0       0
  3930 ;;      Totals:         2      10       0       0       0       0       0       0       0       0       0       0       
      +0       0       0       0
  3931 ;;Total ram usage:       12 bytes
  3932 ;; Hardware stack levels used:    1
  3933 ;; Hardware stack levels required when called:    5
  3934 ;; This function calls:
  3935 ;;		_Lcd_Cmd
  3936 ;;		_Lcd_Out
  3937 ;;		_escribir
  3938 ;;		_sprintf
  3939 ;; This function is called by:
  3940 ;;		_main
  3941 ;; This function uses a non-reentrant model
  3942 ;;
  3943                           
  3944                           	psect	text10
  3945  00E248                     __ptext10:
  3946                           	opt stack 0
  3947  00E248                     _V_ProgRiegoIlum:
  3948                           	opt stack 25
  3949                           
  3950                           ;main.c: 379: Lcd_Cmd(1);
  3951                           
  3952                           ;incstack = 0
  3953  00E248  0E01               	movlw	1
  3954  00E24A  EC20  F062         	call	_Lcd_Cmd
  3955                           
  3956                           ;main.c: 380: Lcd_Out(1, 0, "Riego               ");
  3957  00E24E  0E00               	movlw	0
  3958  00E250  6E54               	movwf	Lcd_Out@x,c
  3959  00E252  0EF6               	movlw	low STR_24
  3960  00E254  6E55               	movwf	Lcd_Out@buffer,c
  3961  00E256  0EFD               	movlw	high STR_24
  3962  00E258  6E56               	movwf	Lcd_Out@buffer+1,c
  3963  00E25A  0E01               	movlw	1
  3964  00E25C  EC49  F05D         	call	_Lcd_Out
  3965                           
  3966                           ;main.c: 381: sprintf(buffer1, "Inic %02u:%02u", inicio_hora_riego, inicio_min_riego);
  3967  00E260  0EC0               	movlw	low _buffer1
  3968  00E262  6E40               	movwf	sprintf@sp,c
  3969  00E264  0E00               	movlw	high _buffer1
  3970  00E266  6E41               	movwf	sprintf@sp+1,c
  3971  00E268  0EB4               	movlw	low STR_25
  3972  00E26A  6E42               	movwf	sprintf@f,c
  3973  00E26C  0EFF               	movlw	high STR_25
  3974  00E26E  6E43               	movwf	sprintf@f+1,c
  3975  00E270  C0EE  F044         	movff	_inicio_hora_riego,?_sprintf+4
  3976  00E274  6A45               	clrf	?_sprintf+5,c
  3977  00E276  C0BE  F046         	movff	_inicio_min_riego,?_sprintf+6
  3978  00E27A  6A47               	clrf	?_sprintf+7,c
  3979  00E27C  EC87  F074         	call	_sprintf	;wreg free
  3980                           
  3981                           ;main.c: 382: Lcd_Out(2, 0, buffer1);
  3982  00E280  0E00               	movlw	0
  3983  00E282  6E54               	movwf	Lcd_Out@x,c
  3984  00E284  0EC0               	movlw	low _buffer1
  3985  00E286  6E55               	movwf	Lcd_Out@buffer,c
  3986  00E288  0E00               	movlw	high _buffer1
  3987  00E28A  6E56               	movwf	Lcd_Out@buffer+1,c
  3988  00E28C  0E02               	movlw	2
  3989  00E28E  EC49  F05D         	call	_Lcd_Out
  3990                           
  3991                           ;main.c: 383: sprintf(buffer1, "Fin %02u:%02u", fin_hora_riego, fin_min_riego);
  3992  00E292  0EC0               	movlw	low _buffer1
  3993  00E294  6E40               	movwf	sprintf@sp,c
  3994  00E296  0E00               	movlw	high _buffer1
  3995  00E298  6E41               	movwf	sprintf@sp+1,c
  3996  00E29A  0ED1               	movlw	low STR_26
  3997  00E29C  6E42               	movwf	sprintf@f,c
  3998  00E29E  0EFF               	movlw	high STR_26
  3999  00E2A0  6E43               	movwf	sprintf@f+1,c
  4000  00E2A2  C0EB  F044         	movff	_fin_hora_riego,?_sprintf+4
  4001  00E2A6  6A45               	clrf	?_sprintf+5,c
  4002  00E2A8  C0EC  F046         	movff	_fin_min_riego,?_sprintf+6
  4003  00E2AC  6A47               	clrf	?_sprintf+7,c
  4004  00E2AE  EC87  F074         	call	_sprintf	;wreg free
  4005                           
  4006                           ;main.c: 384: Lcd_Out(2, 11, buffer1);
  4007  00E2B2  0E0B               	movlw	11
  4008  00E2B4  6E54               	movwf	Lcd_Out@x,c
  4009  00E2B6  0EC0               	movlw	low _buffer1
  4010  00E2B8  6E55               	movwf	Lcd_Out@buffer,c
  4011  00E2BA  0E00               	movlw	high _buffer1
  4012  00E2BC  6E56               	movwf	Lcd_Out@buffer+1,c
  4013  00E2BE  0E02               	movlw	2
  4014  00E2C0  EC49  F05D         	call	_Lcd_Out
  4015                           
  4016                           ;main.c: 385: Lcd_Out(3, 0, "Iluminacion         ");
  4017  00E2C4  0E00               	movlw	0
  4018  00E2C6  6E54               	movwf	Lcd_Out@x,c
  4019  00E2C8  0E9E               	movlw	low STR_27
  4020  00E2CA  6E55               	movwf	Lcd_Out@buffer,c
  4021  00E2CC  0EFE               	movlw	high STR_27
  4022  00E2CE  6E56               	movwf	Lcd_Out@buffer+1,c
  4023  00E2D0  0E03               	movlw	3
  4024  00E2D2  EC49  F05D         	call	_Lcd_Out
  4025                           
  4026                           ;main.c: 386: sprintf(buffer1, "Inic %02u:%02u", inicio_hora_ilum, inicio_min_ilum);
  4027  00E2D6  0EC0               	movlw	low _buffer1
  4028  00E2D8  6E40               	movwf	sprintf@sp,c
  4029  00E2DA  0E00               	movlw	high _buffer1
  4030  00E2DC  6E41               	movwf	sprintf@sp+1,c
  4031  00E2DE  0EB4               	movlw	low STR_25
  4032  00E2E0  6E42               	movwf	sprintf@f,c
  4033  00E2E2  0EFF               	movlw	high STR_25
  4034  00E2E4  6E43               	movwf	sprintf@f+1,c
  4035  00E2E6  C0ED  F044         	movff	_inicio_hora_ilum,?_sprintf+4
  4036  00E2EA  6A45               	clrf	?_sprintf+5,c
  4037  00E2EC  C0BD  F046         	movff	_inicio_min_ilum,?_sprintf+6
  4038  00E2F0  6A47               	clrf	?_sprintf+7,c
  4039  00E2F2  EC87  F074         	call	_sprintf	;wreg free
  4040                           
  4041                           ;main.c: 387: Lcd_Out(4, 0, buffer1);
  4042  00E2F6  0E00               	movlw	0
  4043  00E2F8  6E54               	movwf	Lcd_Out@x,c
  4044  00E2FA  0EC0               	movlw	low _buffer1
  4045  00E2FC  6E55               	movwf	Lcd_Out@buffer,c
  4046  00E2FE  0E00               	movlw	high _buffer1
  4047  00E300  6E56               	movwf	Lcd_Out@buffer+1,c
  4048  00E302  0E04               	movlw	4
  4049  00E304  EC49  F05D         	call	_Lcd_Out
  4050                           
  4051                           ;main.c: 388: sprintf(buffer1, "Fin %02u:%02u", fin_hora_ilum, fin_min_ilum);
  4052  00E308  0EC0               	movlw	low _buffer1
  4053  00E30A  6E40               	movwf	sprintf@sp,c
  4054  00E30C  0E00               	movlw	high _buffer1
  4055  00E30E  6E41               	movwf	sprintf@sp+1,c
  4056  00E310  0ED1               	movlw	low STR_26
  4057  00E312  6E42               	movwf	sprintf@f,c
  4058  00E314  0EFF               	movlw	high STR_26
  4059  00E316  6E43               	movwf	sprintf@f+1,c
  4060  00E318  C0EA  F044         	movff	_fin_hora_ilum,?_sprintf+4
  4061  00E31C  6A45               	clrf	?_sprintf+5,c
  4062  00E31E  C0BC  F046         	movff	_fin_min_ilum,?_sprintf+6
  4063  00E322  6A47               	clrf	?_sprintf+7,c
  4064  00E324  EC87  F074         	call	_sprintf	;wreg free
  4065                           
  4066                           ;main.c: 389: Lcd_Out(4, 11, buffer1);
  4067  00E328  0E0B               	movlw	11
  4068  00E32A  6E54               	movwf	Lcd_Out@x,c
  4069  00E32C  0EC0               	movlw	low _buffer1
  4070  00E32E  6E55               	movwf	Lcd_Out@buffer,c
  4071  00E330  0E00               	movlw	high _buffer1
  4072  00E332  6E56               	movwf	Lcd_Out@buffer+1,c
  4073  00E334  0E04               	movlw	4
  4074  00E336  EC49  F05D         	call	_Lcd_Out
  4075                           
  4076                           ;main.c: 391: char i_hora_ilum_tr = inicio_hora_ilum;
  4077  00E33A  C0ED  F0A0         	movff	_inicio_hora_ilum,V_ProgRiegoIlum@i_hora_ilum_tr
  4078                           
  4079                           ;main.c: 392: char i_min_ilum_tr = inicio_min_ilum;
  4080  00E33E  C0BD  F0A1         	movff	_inicio_min_ilum,V_ProgRiegoIlum@i_min_ilum_tr
  4081                           
  4082                           ;main.c: 393: char f_hora_ilum_tr = fin_hora_ilum;
  4083  00E342  C0EA  F0A2         	movff	_fin_hora_ilum,V_ProgRiegoIlum@f_hora_ilum_tr
  4084                           
  4085                           ;main.c: 394: char f_min_ilum_tr = fin_min_ilum;
  4086  00E346  C0BC  F0A3         	movff	_fin_min_ilum,V_ProgRiegoIlum@f_min_ilum_tr
  4087                           
  4088                           ;main.c: 395: char i_hora_riego_tr = inicio_hora_riego;
  4089  00E34A  C0EE  F0A4         	movff	_inicio_hora_riego,V_ProgRiegoIlum@i_hora_riego_tr
  4090                           
  4091                           ;main.c: 396: char i_min_riego_tr = inicio_min_riego;
  4092  00E34E  C0BE  F0A5         	movff	_inicio_min_riego,V_ProgRiegoIlum@i_min_riego_tr
  4093                           
  4094                           ;main.c: 397: char f_hora_riego_tr = fin_hora_riego;
  4095  00E352  C0EB  F0A6         	movff	_fin_hora_riego,V_ProgRiegoIlum@f_hora_riego_tr
  4096                           
  4097                           ;main.c: 398: char f_min_riego_tr = fin_min_riego;
  4098  00E356  C0EC  F0A7         	movff	_fin_min_riego,V_ProgRiegoIlum@f_min_riego_tr
  4099                           
  4100                           ;main.c: 399: int posicion = 0;
  4101  00E35A  0E00               	movlw	0
  4102  00E35C  0100               	movlb	0	; () banked
  4103  00E35E  6FA9               	movwf	(V_ProgRiegoIlum@posicion+1)& (0+255),b
  4104  00E360  0E00               	movlw	0
  4105  00E362  6FA8               	movwf	V_ProgRiegoIlum@posicion& (0+255),b
  4106                           
  4107                           ; BSR set to: 0
  4108                           ;main.c: 400: Lcd_Cmd(15);
  4109  00E364  0E0F               	movlw	15
  4110  00E366  EC20  F062         	call	_Lcd_Cmd
  4111                           
  4112                           ;main.c: 401: Lcd_Out(2, 5, "");
  4113  00E36A  0E05               	movlw	5
  4114  00E36C  6E54               	movwf	Lcd_Out@x,c
  4115  00E36E  0EF5               	movlw	low (STR_51+20)
  4116  00E370  6E55               	movwf	Lcd_Out@buffer,c
  4117  00E372  0EFD               	movlw	high (STR_51+20)
  4118  00E374  6E56               	movwf	Lcd_Out@buffer+1,c
  4119  00E376  0E02               	movlw	2
  4120  00E378  EC49  F05D         	call	_Lcd_Out
  4121                           
  4122                           ;main.c: 403: for (i = 0; i < 30; i++) {
  4123  00E37C  0E00               	movlw	0
  4124  00E37E  0100               	movlb	0	; () banked
  4125  00E380  6FB1               	movwf	(_i+1)& (0+255),b
  4126  00E382  0E00               	movlw	0
  4127  00E384  6FB0               	movwf	_i& (0+255),b
  4128                           
  4129                           ; BSR set to: 0
  4130  00E386  0100               	movlb	0	; () banked
  4131  00E388  BFB1               	btfsc	(_i+1)& (0+255),7,b
  4132  00E38A  D00A               	goto	l5840
  4133  00E38C  0100               	movlb	0	; () banked
  4134  00E38E  51B1               	movf	(_i+1)& (0+255),w,b
  4135  00E390  E106               	bnz	u7110
  4136  00E392  0E1E               	movlw	30
  4137  00E394  0100               	movlb	0	; () banked
  4138  00E396  5DB0               	subwf	_i& (0+255),w,b
  4139  00E398  B0D8               	btfsc	status,0,c
  4140  00E39A  D2B5               	goto	l6006
  4141  00E39C  D001               	goto	l5840
  4142  00E39E                     u7110:
  4143                           
  4144                           ; BSR set to: 0
  4145  00E39E  D2B3               	goto	l6006
  4146  00E3A0                     l5840:
  4147                           
  4148                           ; BSR set to: 0
  4149                           ;main.c: 404: _delay((unsigned long)((90)*(8000000/4000.0)));
  4150  00E3A0  0EEA               	movlw	234
  4151  00E3A2  6E5A               	movwf	??_V_ProgRiegoIlum& (0+255),c
  4152  00E3A4  0EC3               	movlw	195
  4153  00E3A6                     u7867:
  4154  00E3A6  2EE8               	decfsz	wreg,f,c
  4155  00E3A8  D7FE               	goto	u7867
  4156  00E3AA  2E5A               	decfsz	??_V_ProgRiegoIlum& (0+255),f,c
  4157  00E3AC  D7FC               	goto	u7867
  4158  00E3AE  F000               	nop	
  4159                           
  4160                           ;main.c: 406: if (Sw_Up = PORTAbits.RA3 == 0) {
  4161  00E3B0  B680               	btfsc	3968,3,c	;volatile
  4162  00E3B2  D002               	goto	u7120
  4163  00E3B4  0E01               	movlw	1
  4164  00E3B6  D001               	goto	u7130
  4165  00E3B8                     u7120:
  4166  00E3B8  0E00               	movlw	0
  4167  00E3BA                     u7130:
  4168  00E3BA  0100               	movlb	0	; () banked
  4169  00E3BC  6FBB               	movwf	_Sw_Up& (0+255),b
  4170  00E3BE  0100               	movlb	0	; () banked
  4171  00E3C0  51BB               	movf	_Sw_Up& (0+255),w,b
  4172  00E3C2  B4D8               	btfsc	status,2,c
  4173  00E3C4  D0EC               	goto	l5910
  4174                           
  4175                           ; BSR set to: 0
  4176                           ;main.c: 407: i = 0;
  4177  00E3C6  0E00               	movlw	0
  4178  00E3C8  0100               	movlb	0	; () banked
  4179  00E3CA  6FB1               	movwf	(_i+1)& (0+255),b
  4180  00E3CC  0E00               	movlw	0
  4181  00E3CE  6FB0               	movwf	_i& (0+255),b
  4182                           
  4183                           ; BSR set to: 0
  4184                           ;main.c: 408: if (posicion == 0) {
  4185  00E3D0  0100               	movlb	0	; () banked
  4186  00E3D2  51A8               	movf	V_ProgRiegoIlum@posicion& (0+255),w,b
  4187  00E3D4  0100               	movlb	0	; () banked
  4188  00E3D6  11A9               	iorwf	(V_ProgRiegoIlum@posicion+1)& (0+255),w,b
  4189  00E3D8  A4D8               	btfss	status,2,c
  4190  00E3DA  D016               	goto	l5854
  4191                           
  4192                           ; BSR set to: 0
  4193                           ;main.c: 409: if (i_hora_riego_tr < 23) {
  4194  00E3DC  0E17               	movlw	23
  4195  00E3DE  0100               	movlb	0	; () banked
  4196  00E3E0  61A4               	cpfslt	V_ProgRiegoIlum@i_hora_riego_tr& (0+255),b
  4197  00E3E2  D003               	goto	l5852
  4198                           
  4199                           ; BSR set to: 0
  4200                           ;main.c: 410: i_hora_riego_tr++;
  4201  00E3E4  0100               	movlb	0	; () banked
  4202  00E3E6  2BA4               	incf	V_ProgRiegoIlum@i_hora_riego_tr& (0+255),f,b
  4203  00E3E8  D000               	goto	l5852
  4204  00E3EA                     l5852:
  4205                           
  4206                           ; BSR set to: 0
  4207                           ;main.c: 411: }
  4208                           ;main.c: 412: escribir(2,5, "%02u", i_hora_riego_tr);
  4209  00E3EA  0E05               	movlw	5
  4210  00E3EC  0100               	movlb	0	; () banked
  4211  00E3EE  6F9C               	movwf	escribir@columna& (0+255),b
  4212  00E3F0  0EBE               	movlw	low (STR_25+10)
  4213  00E3F2  0100               	movlb	0	; () banked
  4214  00E3F4  6F9D               	movwf	escribir@formato& (0+255),b
  4215  00E3F6  0EFF               	movlw	high (STR_25+10)
  4216  00E3F8  0100               	movlb	0	; () banked
  4217  00E3FA  6F9E               	movwf	(escribir@formato+1)& (0+255),b
  4218  00E3FC  C0A4  F09F         	movff	V_ProgRiegoIlum@i_hora_riego_tr,escribir@variable
  4219  00E400  0E02               	movlw	2
  4220  00E402  EC03  F05B         	call	_escribir
  4221                           
  4222                           ;main.c: 413: } else if (posicion == 2) {
  4223  00E406  D0CB               	goto	l5910
  4224  00E408                     l5854:
  4225  00E408  0E02               	movlw	2
  4226  00E40A  0100               	movlb	0	; () banked
  4227  00E40C  19A8               	xorwf	V_ProgRiegoIlum@posicion& (0+255),w,b
  4228  00E40E  0100               	movlb	0	; () banked
  4229  00E410  11A9               	iorwf	(V_ProgRiegoIlum@posicion+1)& (0+255),w,b
  4230  00E412  A4D8               	btfss	status,2,c
  4231  00E414  D016               	goto	l5862
  4232                           
  4233                           ; BSR set to: 0
  4234                           ;main.c: 414: if (i_min_riego_tr < 59) {
  4235  00E416  0E3B               	movlw	59
  4236  00E418  0100               	movlb	0	; () banked
  4237  00E41A  61A5               	cpfslt	V_ProgRiegoIlum@i_min_riego_tr& (0+255),b
  4238  00E41C  D003               	goto	l5860
  4239                           
  4240                           ; BSR set to: 0
  4241                           ;main.c: 415: i_min_riego_tr++;
  4242  00E41E  0100               	movlb	0	; () banked
  4243  00E420  2BA5               	incf	V_ProgRiegoIlum@i_min_riego_tr& (0+255),f,b
  4244  00E422  D000               	goto	l5860
  4245  00E424                     l5860:
  4246                           
  4247                           ; BSR set to: 0
  4248                           ;main.c: 416: }
  4249                           ;main.c: 417: escribir(2,8, "%02u", i_min_riego_tr);
  4250  00E424  0E08               	movlw	8
  4251  00E426  0100               	movlb	0	; () banked
  4252  00E428  6F9C               	movwf	escribir@columna& (0+255),b
  4253  00E42A  0EBE               	movlw	low (STR_25+10)
  4254  00E42C  0100               	movlb	0	; () banked
  4255  00E42E  6F9D               	movwf	escribir@formato& (0+255),b
  4256  00E430  0EFF               	movlw	high (STR_25+10)
  4257  00E432  0100               	movlb	0	; () banked
  4258  00E434  6F9E               	movwf	(escribir@formato+1)& (0+255),b
  4259  00E436  C0A5  F09F         	movff	V_ProgRiegoIlum@i_min_riego_tr,escribir@variable
  4260  00E43A  0E02               	movlw	2
  4261  00E43C  EC03  F05B         	call	_escribir
  4262                           
  4263                           ;main.c: 418: } else if (posicion == 4) {
  4264  00E440  D0AE               	goto	l5910
  4265  00E442                     l5862:
  4266  00E442  0E04               	movlw	4
  4267  00E444  0100               	movlb	0	; () banked
  4268  00E446  19A8               	xorwf	V_ProgRiegoIlum@posicion& (0+255),w,b
  4269  00E448  0100               	movlb	0	; () banked
  4270  00E44A  11A9               	iorwf	(V_ProgRiegoIlum@posicion+1)& (0+255),w,b
  4271  00E44C  A4D8               	btfss	status,2,c
  4272  00E44E  D016               	goto	l5870
  4273                           
  4274                           ; BSR set to: 0
  4275                           ;main.c: 419: if (f_hora_riego_tr < 23) {
  4276  00E450  0E17               	movlw	23
  4277  00E452  0100               	movlb	0	; () banked
  4278  00E454  61A6               	cpfslt	V_ProgRiegoIlum@f_hora_riego_tr& (0+255),b
  4279  00E456  D003               	goto	l5868
  4280                           
  4281                           ; BSR set to: 0
  4282                           ;main.c: 420: f_hora_riego_tr++;
  4283  00E458  0100               	movlb	0	; () banked
  4284  00E45A  2BA6               	incf	V_ProgRiegoIlum@f_hora_riego_tr& (0+255),f,b
  4285  00E45C  D000               	goto	l5868
  4286  00E45E                     l5868:
  4287                           
  4288                           ; BSR set to: 0
  4289                           ;main.c: 421: }
  4290                           ;main.c: 422: escribir(2,15, "%02u", f_hora_riego_tr);
  4291  00E45E  0E0F               	movlw	15
  4292  00E460  0100               	movlb	0	; () banked
  4293  00E462  6F9C               	movwf	escribir@columna& (0+255),b
  4294  00E464  0EBE               	movlw	low (STR_25+10)
  4295  00E466  0100               	movlb	0	; () banked
  4296  00E468  6F9D               	movwf	escribir@formato& (0+255),b
  4297  00E46A  0EFF               	movlw	high (STR_25+10)
  4298  00E46C  0100               	movlb	0	; () banked
  4299  00E46E  6F9E               	movwf	(escribir@formato+1)& (0+255),b
  4300  00E470  C0A6  F09F         	movff	V_ProgRiegoIlum@f_hora_riego_tr,escribir@variable
  4301  00E474  0E02               	movlw	2
  4302  00E476  EC03  F05B         	call	_escribir
  4303                           
  4304                           ;main.c: 423: } else if (posicion == 6) {
  4305  00E47A  D091               	goto	l5910
  4306  00E47C                     l5870:
  4307  00E47C  0E06               	movlw	6
  4308  00E47E  0100               	movlb	0	; () banked
  4309  00E480  19A8               	xorwf	V_ProgRiegoIlum@posicion& (0+255),w,b
  4310  00E482  0100               	movlb	0	; () banked
  4311  00E484  11A9               	iorwf	(V_ProgRiegoIlum@posicion+1)& (0+255),w,b
  4312  00E486  A4D8               	btfss	status,2,c
  4313  00E488  D016               	goto	l5878
  4314                           
  4315                           ; BSR set to: 0
  4316                           ;main.c: 424: if (f_min_riego_tr < 59) {
  4317  00E48A  0E3B               	movlw	59
  4318  00E48C  0100               	movlb	0	; () banked
  4319  00E48E  61A7               	cpfslt	V_ProgRiegoIlum@f_min_riego_tr& (0+255),b
  4320  00E490  D003               	goto	l5876
  4321                           
  4322                           ; BSR set to: 0
  4323                           ;main.c: 425: f_min_riego_tr++;
  4324  00E492  0100               	movlb	0	; () banked
  4325  00E494  2BA7               	incf	V_ProgRiegoIlum@f_min_riego_tr& (0+255),f,b
  4326  00E496  D000               	goto	l5876
  4327  00E498                     l5876:
  4328                           
  4329                           ; BSR set to: 0
  4330                           ;main.c: 426: }
  4331                           ;main.c: 427: escribir(2,18, "%02u", f_min_riego_tr);
  4332  00E498  0E12               	movlw	18
  4333  00E49A  0100               	movlb	0	; () banked
  4334  00E49C  6F9C               	movwf	escribir@columna& (0+255),b
  4335  00E49E  0EBE               	movlw	low (STR_25+10)
  4336  00E4A0  0100               	movlb	0	; () banked
  4337  00E4A2  6F9D               	movwf	escribir@formato& (0+255),b
  4338  00E4A4  0EFF               	movlw	high (STR_25+10)
  4339  00E4A6  0100               	movlb	0	; () banked
  4340  00E4A8  6F9E               	movwf	(escribir@formato+1)& (0+255),b
  4341  00E4AA  C0A7  F09F         	movff	V_ProgRiegoIlum@f_min_riego_tr,escribir@variable
  4342  00E4AE  0E02               	movlw	2
  4343  00E4B0  EC03  F05B         	call	_escribir
  4344                           
  4345                           ;main.c: 428: } else if (posicion == 8) {
  4346  00E4B4  D074               	goto	l5910
  4347  00E4B6                     l5878:
  4348  00E4B6  0E08               	movlw	8
  4349  00E4B8  0100               	movlb	0	; () banked
  4350  00E4BA  19A8               	xorwf	V_ProgRiegoIlum@posicion& (0+255),w,b
  4351  00E4BC  0100               	movlb	0	; () banked
  4352  00E4BE  11A9               	iorwf	(V_ProgRiegoIlum@posicion+1)& (0+255),w,b
  4353  00E4C0  A4D8               	btfss	status,2,c
  4354  00E4C2  D016               	goto	l5886
  4355                           
  4356                           ; BSR set to: 0
  4357                           ;main.c: 429: if (i_hora_ilum_tr < 23) {
  4358  00E4C4  0E17               	movlw	23
  4359  00E4C6  0100               	movlb	0	; () banked
  4360  00E4C8  61A0               	cpfslt	V_ProgRiegoIlum@i_hora_ilum_tr& (0+255),b
  4361  00E4CA  D003               	goto	l5884
  4362                           
  4363                           ; BSR set to: 0
  4364                           ;main.c: 430: i_hora_ilum_tr++;
  4365  00E4CC  0100               	movlb	0	; () banked
  4366  00E4CE  2BA0               	incf	V_ProgRiegoIlum@i_hora_ilum_tr& (0+255),f,b
  4367  00E4D0  D000               	goto	l5884
  4368  00E4D2                     l5884:
  4369                           
  4370                           ; BSR set to: 0
  4371                           ;main.c: 431: }
  4372                           ;main.c: 432: escribir(4,5, "%02u", i_hora_ilum_tr);
  4373  00E4D2  0E05               	movlw	5
  4374  00E4D4  0100               	movlb	0	; () banked
  4375  00E4D6  6F9C               	movwf	escribir@columna& (0+255),b
  4376  00E4D8  0EBE               	movlw	low (STR_25+10)
  4377  00E4DA  0100               	movlb	0	; () banked
  4378  00E4DC  6F9D               	movwf	escribir@formato& (0+255),b
  4379  00E4DE  0EFF               	movlw	high (STR_25+10)
  4380  00E4E0  0100               	movlb	0	; () banked
  4381  00E4E2  6F9E               	movwf	(escribir@formato+1)& (0+255),b
  4382  00E4E4  C0A0  F09F         	movff	V_ProgRiegoIlum@i_hora_ilum_tr,escribir@variable
  4383  00E4E8  0E04               	movlw	4
  4384  00E4EA  EC03  F05B         	call	_escribir
  4385                           
  4386                           ;main.c: 433: } else if (posicion == 10) {
  4387  00E4EE  D057               	goto	l5910
  4388  00E4F0                     l5886:
  4389  00E4F0  0E0A               	movlw	10
  4390  00E4F2  0100               	movlb	0	; () banked
  4391  00E4F4  19A8               	xorwf	V_ProgRiegoIlum@posicion& (0+255),w,b
  4392  00E4F6  0100               	movlb	0	; () banked
  4393  00E4F8  11A9               	iorwf	(V_ProgRiegoIlum@posicion+1)& (0+255),w,b
  4394  00E4FA  A4D8               	btfss	status,2,c
  4395  00E4FC  D016               	goto	l5894
  4396                           
  4397                           ; BSR set to: 0
  4398                           ;main.c: 434: if (i_min_ilum_tr < 59) {
  4399  00E4FE  0E3B               	movlw	59
  4400  00E500  0100               	movlb	0	; () banked
  4401  00E502  61A1               	cpfslt	V_ProgRiegoIlum@i_min_ilum_tr& (0+255),b
  4402  00E504  D003               	goto	l5892
  4403                           
  4404                           ; BSR set to: 0
  4405                           ;main.c: 435: i_min_ilum_tr++;
  4406  00E506  0100               	movlb	0	; () banked
  4407  00E508  2BA1               	incf	V_ProgRiegoIlum@i_min_ilum_tr& (0+255),f,b
  4408  00E50A  D000               	goto	l5892
  4409  00E50C                     l5892:
  4410                           
  4411                           ; BSR set to: 0
  4412                           ;main.c: 436: }
  4413                           ;main.c: 437: escribir(4,8, "%02u", i_min_ilum_tr);
  4414  00E50C  0E08               	movlw	8
  4415  00E50E  0100               	movlb	0	; () banked
  4416  00E510  6F9C               	movwf	escribir@columna& (0+255),b
  4417  00E512  0EBE               	movlw	low (STR_25+10)
  4418  00E514  0100               	movlb	0	; () banked
  4419  00E516  6F9D               	movwf	escribir@formato& (0+255),b
  4420  00E518  0EFF               	movlw	high (STR_25+10)
  4421  00E51A  0100               	movlb	0	; () banked
  4422  00E51C  6F9E               	movwf	(escribir@formato+1)& (0+255),b
  4423  00E51E  C0A1  F09F         	movff	V_ProgRiegoIlum@i_min_ilum_tr,escribir@variable
  4424  00E522  0E04               	movlw	4
  4425  00E524  EC03  F05B         	call	_escribir
  4426                           
  4427                           ;main.c: 438: } else if (posicion == 12) {
  4428  00E528  D03A               	goto	l5910
  4429  00E52A                     l5894:
  4430  00E52A  0E0C               	movlw	12
  4431  00E52C  0100               	movlb	0	; () banked
  4432  00E52E  19A8               	xorwf	V_ProgRiegoIlum@posicion& (0+255),w,b
  4433  00E530  0100               	movlb	0	; () banked
  4434  00E532  11A9               	iorwf	(V_ProgRiegoIlum@posicion+1)& (0+255),w,b
  4435  00E534  A4D8               	btfss	status,2,c
  4436  00E536  D016               	goto	l5902
  4437                           
  4438                           ; BSR set to: 0
  4439                           ;main.c: 439: if (f_hora_ilum_tr < 23) {
  4440  00E538  0E17               	movlw	23
  4441  00E53A  0100               	movlb	0	; () banked
  4442  00E53C  61A2               	cpfslt	V_ProgRiegoIlum@f_hora_ilum_tr& (0+255),b
  4443  00E53E  D003               	goto	l5900
  4444                           
  4445                           ; BSR set to: 0
  4446                           ;main.c: 440: f_hora_ilum_tr++;
  4447  00E540  0100               	movlb	0	; () banked
  4448  00E542  2BA2               	incf	V_ProgRiegoIlum@f_hora_ilum_tr& (0+255),f,b
  4449  00E544  D000               	goto	l5900
  4450  00E546                     l5900:
  4451                           
  4452                           ; BSR set to: 0
  4453                           ;main.c: 441: }
  4454                           ;main.c: 442: escribir(4,15, "%02u", f_hora_ilum_tr);
  4455  00E546  0E0F               	movlw	15
  4456  00E548  0100               	movlb	0	; () banked
  4457  00E54A  6F9C               	movwf	escribir@columna& (0+255),b
  4458  00E54C  0EBE               	movlw	low (STR_25+10)
  4459  00E54E  0100               	movlb	0	; () banked
  4460  00E550  6F9D               	movwf	escribir@formato& (0+255),b
  4461  00E552  0EFF               	movlw	high (STR_25+10)
  4462  00E554  0100               	movlb	0	; () banked
  4463  00E556  6F9E               	movwf	(escribir@formato+1)& (0+255),b
  4464  00E558  C0A2  F09F         	movff	V_ProgRiegoIlum@f_hora_ilum_tr,escribir@variable
  4465  00E55C  0E04               	movlw	4
  4466  00E55E  EC03  F05B         	call	_escribir
  4467                           
  4468                           ;main.c: 443: } else if (posicion == 14) {
  4469  00E562  D01D               	goto	l5910
  4470  00E564                     l5902:
  4471  00E564  0E0E               	movlw	14
  4472  00E566  0100               	movlb	0	; () banked
  4473  00E568  19A8               	xorwf	V_ProgRiegoIlum@posicion& (0+255),w,b
  4474  00E56A  0100               	movlb	0	; () banked
  4475  00E56C  11A9               	iorwf	(V_ProgRiegoIlum@posicion+1)& (0+255),w,b
  4476  00E56E  A4D8               	btfss	status,2,c
  4477  00E570  D016               	goto	l5910
  4478                           
  4479                           ; BSR set to: 0
  4480                           ;main.c: 444: if (f_min_ilum_tr < 59) {
  4481  00E572  0E3B               	movlw	59
  4482  00E574  0100               	movlb	0	; () banked
  4483  00E576  61A3               	cpfslt	V_ProgRiegoIlum@f_min_ilum_tr& (0+255),b
  4484  00E578  D003               	goto	l5908
  4485                           
  4486                           ; BSR set to: 0
  4487                           ;main.c: 445: f_min_ilum_tr++;
  4488  00E57A  0100               	movlb	0	; () banked
  4489  00E57C  2BA3               	incf	V_ProgRiegoIlum@f_min_ilum_tr& (0+255),f,b
  4490  00E57E  D000               	goto	l5908
  4491  00E580                     l5908:
  4492                           
  4493                           ; BSR set to: 0
  4494                           ;main.c: 446: }
  4495                           ;main.c: 447: escribir(4,18, "%02u", f_min_ilum_tr);
  4496  00E580  0E12               	movlw	18
  4497  00E582  0100               	movlb	0	; () banked
  4498  00E584  6F9C               	movwf	escribir@columna& (0+255),b
  4499  00E586  0EBE               	movlw	low (STR_25+10)
  4500  00E588  0100               	movlb	0	; () banked
  4501  00E58A  6F9D               	movwf	escribir@formato& (0+255),b
  4502  00E58C  0EFF               	movlw	high (STR_25+10)
  4503  00E58E  0100               	movlb	0	; () banked
  4504  00E590  6F9E               	movwf	(escribir@formato+1)& (0+255),b
  4505  00E592  C0A3  F09F         	movff	V_ProgRiegoIlum@f_min_ilum_tr,escribir@variable
  4506  00E596  0E04               	movlw	4
  4507  00E598  EC03  F05B         	call	_escribir
  4508  00E59C  D000               	goto	l5910
  4509  00E59E                     l5910:
  4510                           
  4511                           ;main.c: 448: }
  4512                           ;main.c: 449: }
  4513                           ;main.c: 451: if (Sw_Right = PORTAbits.RA2 == 0) {
  4514  00E59E  B480               	btfsc	3968,2,c	;volatile
  4515  00E5A0  D002               	goto	u7310
  4516  00E5A2  0E01               	movlw	1
  4517  00E5A4  D001               	goto	u7320
  4518  00E5A6                     u7310:
  4519  00E5A6  0E00               	movlw	0
  4520  00E5A8                     u7320:
  4521  00E5A8  0100               	movlb	0	; () banked
  4522  00E5AA  6FBA               	movwf	_Sw_Right& (0+255),b
  4523  00E5AC  0100               	movlb	0	; () banked
  4524  00E5AE  51BA               	movf	_Sw_Right& (0+255),w,b
  4525  00E5B0  B4D8               	btfsc	status,2,c
  4526  00E5B2  D03C               	goto	l5920
  4527                           
  4528                           ; BSR set to: 0
  4529                           ;main.c: 452: if (posicion <= 13) {
  4530  00E5B4  0100               	movlb	0	; () banked
  4531  00E5B6  BFA9               	btfsc	(V_ProgRiegoIlum@posicion+1)& (0+255),7,b
  4532  00E5B8  D008               	goto	l5914
  4533  00E5BA  0100               	movlb	0	; () banked
  4534  00E5BC  51A9               	movf	(V_ProgRiegoIlum@posicion+1)& (0+255),w,b
  4535  00E5BE  E10B               	bnz	l5916
  4536  00E5C0  0E0E               	movlw	14
  4537  00E5C2  0100               	movlb	0	; () banked
  4538  00E5C4  5DA8               	subwf	V_ProgRiegoIlum@posicion& (0+255),w,b
  4539  00E5C6  B0D8               	btfsc	status,0,c
  4540  00E5C8  D006               	goto	l5916
  4541  00E5CA                     l5914:
  4542                           
  4543                           ; BSR set to: 0
  4544                           ;main.c: 453: posicion += 2;
  4545  00E5CA  0E02               	movlw	2
  4546  00E5CC  0100               	movlb	0	; () banked
  4547  00E5CE  27A8               	addwf	V_ProgRiegoIlum@posicion& (0+255),f,b
  4548  00E5D0  0E00               	movlw	0
  4549  00E5D2  23A9               	addwfc	(V_ProgRiegoIlum@posicion+1)& (0+255),f,b
  4550  00E5D4  D000               	goto	l5916
  4551  00E5D6                     l5916:
  4552                           
  4553                           ; BSR set to: 0
  4554                           ;main.c: 454: }
  4555                           ;main.c: 455: i = 0;
  4556  00E5D6  0E00               	movlw	0
  4557  00E5D8  0100               	movlb	0	; () banked
  4558  00E5DA  6FB1               	movwf	(_i+1)& (0+255),b
  4559  00E5DC  0E00               	movlw	0
  4560  00E5DE  6FB0               	movwf	_i& (0+255),b
  4561                           
  4562                           ; BSR set to: 0
  4563                           ;main.c: 456: Lcd_Out(posicionesUp[posicion], posicionesUp[posicion + 1], "");
  4564  00E5E0  C0A8  F05A         	movff	V_ProgRiegoIlum@posicion,??_V_ProgRiegoIlum
  4565  00E5E4  C0A9  F05B         	movff	V_ProgRiegoIlum@posicion+1,??_V_ProgRiegoIlum+1
  4566  00E5E8  90D8               	bcf	status,0,c
  4567  00E5EA  365A               	rlcf	??_V_ProgRiegoIlum,f,c
  4568  00E5EC  365B               	rlcf	??_V_ProgRiegoIlum+1,f,c
  4569  00E5EE  0E02               	movlw	2
  4570  00E5F0  265A               	addwf	??_V_ProgRiegoIlum,f,c
  4571  00E5F2  0E00               	movlw	0
  4572  00E5F4  225B               	addwfc	??_V_ProgRiegoIlum+1,f,c
  4573  00E5F6  0E00               	movlw	low _posicionesUp
  4574  00E5F8  245A               	addwf	??_V_ProgRiegoIlum,w,c
  4575  00E5FA  6ED9               	movwf	fsr2l,c
  4576  00E5FC  0E01               	movlw	high _posicionesUp
  4577  00E5FE  205B               	addwfc	??_V_ProgRiegoIlum+1,w,c
  4578  00E600  6EDA               	movwf	fsr2h,c
  4579  00E602  50DF               	movf	indf2,w,c
  4580  00E604  6E54               	movwf	Lcd_Out@x,c
  4581  00E606  0EF5               	movlw	low (STR_51+20)
  4582  00E608  6E55               	movwf	Lcd_Out@buffer,c
  4583  00E60A  0EFD               	movlw	high (STR_51+20)
  4584  00E60C  6E56               	movwf	Lcd_Out@buffer+1,c
  4585  00E60E  90D8               	bcf	status,0,c
  4586  00E610  0100               	movlb	0	; () banked
  4587  00E612  35A8               	rlcf	V_ProgRiegoIlum@posicion& (0+255),w,b
  4588  00E614  6ED9               	movwf	fsr2l,c
  4589  00E616  0100               	movlb	0	; () banked
  4590  00E618  35A9               	rlcf	(V_ProgRiegoIlum@posicion+1)& (0+255),w,b
  4591  00E61A  6EDA               	movwf	fsr2h,c
  4592  00E61C  0E00               	movlw	low _posicionesUp
  4593  00E61E  26D9               	addwf	fsr2l,f,c
  4594  00E620  0E01               	movlw	high _posicionesUp
  4595  00E622  22DA               	addwfc	fsr2h,f,c
  4596  00E624  50DF               	movf	indf2,w,c
  4597  00E626  EC49  F05D         	call	_Lcd_Out
  4598  00E62A  D000               	goto	l5920
  4599  00E62C                     l5920:
  4600                           
  4601                           ;main.c: 457: }
  4602                           ;main.c: 459: if (Sw_Left = PORTAbits.RA0 == 0) {
  4603  00E62C  B080               	btfsc	3968,0,c	;volatile
  4604  00E62E  D002               	goto	u7350
  4605  00E630  0E01               	movlw	1
  4606  00E632  D001               	goto	u7360
  4607  00E634                     u7350:
  4608  00E634  0E00               	movlw	0
  4609  00E636                     u7360:
  4610  00E636  0100               	movlb	0	; () banked
  4611  00E638  6FB9               	movwf	_Sw_Left& (0+255),b
  4612  00E63A  0100               	movlb	0	; () banked
  4613  00E63C  51B9               	movf	_Sw_Left& (0+255),w,b
  4614  00E63E  B4D8               	btfsc	status,2,c
  4615  00E640  D03C               	goto	l5930
  4616                           
  4617                           ; BSR set to: 0
  4618                           ;main.c: 460: if (posicion >= 2) {
  4619  00E642  0100               	movlb	0	; () banked
  4620  00E644  BFA9               	btfsc	(V_ProgRiegoIlum@posicion+1)& (0+255),7,b
  4621  00E646  D00E               	goto	l5926
  4622  00E648  0100               	movlb	0	; () banked
  4623  00E64A  51A9               	movf	(V_ProgRiegoIlum@posicion+1)& (0+255),w,b
  4624  00E64C  E105               	bnz	u7380
  4625  00E64E  0E02               	movlw	2
  4626  00E650  0100               	movlb	0	; () banked
  4627  00E652  5DA8               	subwf	V_ProgRiegoIlum@posicion& (0+255),w,b
  4628  00E654  A0D8               	btfss	status,0,c
  4629  00E656  D006               	goto	l5926
  4630  00E658                     u7380:
  4631                           
  4632                           ; BSR set to: 0
  4633                           ;main.c: 461: posicion -= 2;
  4634  00E658  0100               	movlb	0	; () banked
  4635  00E65A  0EFE               	movlw	254
  4636  00E65C  27A8               	addwf	V_ProgRiegoIlum@posicion& (0+255),f,b
  4637  00E65E  0EFF               	movlw	255
  4638  00E660  23A9               	addwfc	(V_ProgRiegoIlum@posicion+1)& (0+255),f,b
  4639  00E662  D000               	goto	l5926
  4640  00E664                     l5926:
  4641                           
  4642                           ; BSR set to: 0
  4643                           ;main.c: 462: }
  4644                           ;main.c: 463: i = 0;
  4645  00E664  0E00               	movlw	0
  4646  00E666  0100               	movlb	0	; () banked
  4647  00E668  6FB1               	movwf	(_i+1)& (0+255),b
  4648  00E66A  0E00               	movlw	0
  4649  00E66C  6FB0               	movwf	_i& (0+255),b
  4650                           
  4651                           ; BSR set to: 0
  4652                           ;main.c: 464: Lcd_Out(posicionesUp[posicion], posicionesUp[posicion + 1], "");
  4653  00E66E  C0A8  F05A         	movff	V_ProgRiegoIlum@posicion,??_V_ProgRiegoIlum
  4654  00E672  C0A9  F05B         	movff	V_ProgRiegoIlum@posicion+1,??_V_ProgRiegoIlum+1
  4655  00E676  90D8               	bcf	status,0,c
  4656  00E678  365A               	rlcf	??_V_ProgRiegoIlum,f,c
  4657  00E67A  365B               	rlcf	??_V_ProgRiegoIlum+1,f,c
  4658  00E67C  0E02               	movlw	2
  4659  00E67E  265A               	addwf	??_V_ProgRiegoIlum,f,c
  4660  00E680  0E00               	movlw	0
  4661  00E682  225B               	addwfc	??_V_ProgRiegoIlum+1,f,c
  4662  00E684  0E00               	movlw	low _posicionesUp
  4663  00E686  245A               	addwf	??_V_ProgRiegoIlum,w,c
  4664  00E688  6ED9               	movwf	fsr2l,c
  4665  00E68A  0E01               	movlw	high _posicionesUp
  4666  00E68C  205B               	addwfc	??_V_ProgRiegoIlum+1,w,c
  4667  00E68E  6EDA               	movwf	fsr2h,c
  4668  00E690  50DF               	movf	indf2,w,c
  4669  00E692  6E54               	movwf	Lcd_Out@x,c
  4670  00E694  0EF5               	movlw	low (STR_51+20)
  4671  00E696  6E55               	movwf	Lcd_Out@buffer,c
  4672  00E698  0EFD               	movlw	high (STR_51+20)
  4673  00E69A  6E56               	movwf	Lcd_Out@buffer+1,c
  4674  00E69C  90D8               	bcf	status,0,c
  4675  00E69E  0100               	movlb	0	; () banked
  4676  00E6A0  35A8               	rlcf	V_ProgRiegoIlum@posicion& (0+255),w,b
  4677  00E6A2  6ED9               	movwf	fsr2l,c
  4678  00E6A4  0100               	movlb	0	; () banked
  4679  00E6A6  35A9               	rlcf	(V_ProgRiegoIlum@posicion+1)& (0+255),w,b
  4680  00E6A8  6EDA               	movwf	fsr2h,c
  4681  00E6AA  0E00               	movlw	low _posicionesUp
  4682  00E6AC  26D9               	addwf	fsr2l,f,c
  4683  00E6AE  0E01               	movlw	high _posicionesUp
  4684  00E6B0  22DA               	addwfc	fsr2h,f,c
  4685  00E6B2  50DF               	movf	indf2,w,c
  4686  00E6B4  EC49  F05D         	call	_Lcd_Out
  4687  00E6B8  D000               	goto	l5930
  4688  00E6BA                     l5930:
  4689                           
  4690                           ;main.c: 465: }
  4691                           ;main.c: 467: if (Sw_Down = PORTCbits.RC4 == 0) {
  4692  00E6BA  B882               	btfsc	3970,4,c	;volatile
  4693  00E6BC  D002               	goto	u7390
  4694  00E6BE  0E01               	movlw	1
  4695  00E6C0  D001               	goto	u7400
  4696  00E6C2                     u7390:
  4697  00E6C2  0E00               	movlw	0
  4698  00E6C4                     u7400:
  4699  00E6C4  0100               	movlb	0	; () banked
  4700  00E6C6  6FB8               	movwf	_Sw_Down& (0+255),b
  4701  00E6C8  0100               	movlb	0	; () banked
  4702  00E6CA  51B8               	movf	_Sw_Down& (0+255),w,b
  4703  00E6CC  B4D8               	btfsc	status,2,c
  4704  00E6CE  D0F4               	goto	l5998
  4705                           
  4706                           ; BSR set to: 0
  4707                           ;main.c: 468: i = 0;
  4708  00E6D0  0E00               	movlw	0
  4709  00E6D2  0100               	movlb	0	; () banked
  4710  00E6D4  6FB1               	movwf	(_i+1)& (0+255),b
  4711  00E6D6  0E00               	movlw	0
  4712  00E6D8  6FB0               	movwf	_i& (0+255),b
  4713                           
  4714                           ; BSR set to: 0
  4715                           ;main.c: 469: if (posicion == 0) {
  4716  00E6DA  0100               	movlb	0	; () banked
  4717  00E6DC  51A8               	movf	V_ProgRiegoIlum@posicion& (0+255),w,b
  4718  00E6DE  0100               	movlb	0	; () banked
  4719  00E6E0  11A9               	iorwf	(V_ProgRiegoIlum@posicion+1)& (0+255),w,b
  4720  00E6E2  A4D8               	btfss	status,2,c
  4721  00E6E4  D017               	goto	l5942
  4722                           
  4723                           ; BSR set to: 0
  4724                           ;main.c: 470: if (i_hora_riego_tr > 0) {
  4725  00E6E6  0100               	movlb	0	; () banked
  4726  00E6E8  51A4               	movf	V_ProgRiegoIlum@i_hora_riego_tr& (0+255),w,b
  4727  00E6EA  0100               	movlb	0	; () banked
  4728  00E6EC  B4D8               	btfsc	status,2,c
  4729  00E6EE  D003               	goto	l5940
  4730                           
  4731                           ; BSR set to: 0
  4732                           ;main.c: 471: i_hora_riego_tr--;
  4733  00E6F0  0100               	movlb	0	; () banked
  4734  00E6F2  07A4               	decf	V_ProgRiegoIlum@i_hora_riego_tr& (0+255),f,b
  4735  00E6F4  D000               	goto	l5940
  4736  00E6F6                     l5940:
  4737                           
  4738                           ; BSR set to: 0
  4739                           ;main.c: 472: }
  4740                           ;main.c: 473: escribir(2,5, "%02u", i_hora_riego_tr);
  4741  00E6F6  0E05               	movlw	5
  4742  00E6F8  0100               	movlb	0	; () banked
  4743  00E6FA  6F9C               	movwf	escribir@columna& (0+255),b
  4744  00E6FC  0EBE               	movlw	low (STR_25+10)
  4745  00E6FE  0100               	movlb	0	; () banked
  4746  00E700  6F9D               	movwf	escribir@formato& (0+255),b
  4747  00E702  0EFF               	movlw	high (STR_25+10)
  4748  00E704  0100               	movlb	0	; () banked
  4749  00E706  6F9E               	movwf	(escribir@formato+1)& (0+255),b
  4750  00E708  C0A4  F09F         	movff	V_ProgRiegoIlum@i_hora_riego_tr,escribir@variable
  4751  00E70C  0E02               	movlw	2
  4752  00E70E  EC03  F05B         	call	_escribir
  4753                           
  4754                           ;main.c: 474: } else if (posicion == 2) {
  4755  00E712  D0D2               	goto	l5998
  4756  00E714                     l5942:
  4757  00E714  0E02               	movlw	2
  4758  00E716  0100               	movlb	0	; () banked
  4759  00E718  19A8               	xorwf	V_ProgRiegoIlum@posicion& (0+255),w,b
  4760  00E71A  0100               	movlb	0	; () banked
  4761  00E71C  11A9               	iorwf	(V_ProgRiegoIlum@posicion+1)& (0+255),w,b
  4762  00E71E  A4D8               	btfss	status,2,c
  4763  00E720  D017               	goto	l5950
  4764                           
  4765                           ; BSR set to: 0
  4766                           ;main.c: 475: if (i_min_riego_tr > 0) {
  4767  00E722  0100               	movlb	0	; () banked
  4768  00E724  51A5               	movf	V_ProgRiegoIlum@i_min_riego_tr& (0+255),w,b
  4769  00E726  0100               	movlb	0	; () banked
  4770  00E728  B4D8               	btfsc	status,2,c
  4771  00E72A  D003               	goto	l5948
  4772                           
  4773                           ; BSR set to: 0
  4774                           ;main.c: 476: i_min_riego_tr--;
  4775  00E72C  0100               	movlb	0	; () banked
  4776  00E72E  07A5               	decf	V_ProgRiegoIlum@i_min_riego_tr& (0+255),f,b
  4777  00E730  D000               	goto	l5948
  4778  00E732                     l5948:
  4779                           
  4780                           ; BSR set to: 0
  4781                           ;main.c: 477: }
  4782                           ;main.c: 478: escribir(2,8, "%02u", i_min_riego_tr);
  4783  00E732  0E08               	movlw	8
  4784  00E734  0100               	movlb	0	; () banked
  4785  00E736  6F9C               	movwf	escribir@columna& (0+255),b
  4786  00E738  0EBE               	movlw	low (STR_25+10)
  4787  00E73A  0100               	movlb	0	; () banked
  4788  00E73C  6F9D               	movwf	escribir@formato& (0+255),b
  4789  00E73E  0EFF               	movlw	high (STR_25+10)
  4790  00E740  0100               	movlb	0	; () banked
  4791  00E742  6F9E               	movwf	(escribir@formato+1)& (0+255),b
  4792  00E744  C0A5  F09F         	movff	V_ProgRiegoIlum@i_min_riego_tr,escribir@variable
  4793  00E748  0E02               	movlw	2
  4794  00E74A  EC03  F05B         	call	_escribir
  4795                           
  4796                           ;main.c: 479: } else if (posicion == 4) {
  4797  00E74E  D0B4               	goto	l5998
  4798  00E750                     l5950:
  4799  00E750  0E04               	movlw	4
  4800  00E752  0100               	movlb	0	; () banked
  4801  00E754  19A8               	xorwf	V_ProgRiegoIlum@posicion& (0+255),w,b
  4802  00E756  0100               	movlb	0	; () banked
  4803  00E758  11A9               	iorwf	(V_ProgRiegoIlum@posicion+1)& (0+255),w,b
  4804  00E75A  A4D8               	btfss	status,2,c
  4805  00E75C  D017               	goto	l5958
  4806                           
  4807                           ; BSR set to: 0
  4808                           ;main.c: 480: if (f_hora_riego_tr > 0) {
  4809  00E75E  0100               	movlb	0	; () banked
  4810  00E760  51A6               	movf	V_ProgRiegoIlum@f_hora_riego_tr& (0+255),w,b
  4811  00E762  0100               	movlb	0	; () banked
  4812  00E764  B4D8               	btfsc	status,2,c
  4813  00E766  D003               	goto	l5956
  4814                           
  4815                           ; BSR set to: 0
  4816                           ;main.c: 481: f_hora_riego_tr--;
  4817  00E768  0100               	movlb	0	; () banked
  4818  00E76A  07A6               	decf	V_ProgRiegoIlum@f_hora_riego_tr& (0+255),f,b
  4819  00E76C  D000               	goto	l5956
  4820  00E76E                     l5956:
  4821                           
  4822                           ; BSR set to: 0
  4823                           ;main.c: 482: }
  4824                           ;main.c: 483: escribir(2,15, "%02u", f_hora_riego_tr);
  4825  00E76E  0E0F               	movlw	15
  4826  00E770  0100               	movlb	0	; () banked
  4827  00E772  6F9C               	movwf	escribir@columna& (0+255),b
  4828  00E774  0EBE               	movlw	low (STR_25+10)
  4829  00E776  0100               	movlb	0	; () banked
  4830  00E778  6F9D               	movwf	escribir@formato& (0+255),b
  4831  00E77A  0EFF               	movlw	high (STR_25+10)
  4832  00E77C  0100               	movlb	0	; () banked
  4833  00E77E  6F9E               	movwf	(escribir@formato+1)& (0+255),b
  4834  00E780  C0A6  F09F         	movff	V_ProgRiegoIlum@f_hora_riego_tr,escribir@variable
  4835  00E784  0E02               	movlw	2
  4836  00E786  EC03  F05B         	call	_escribir
  4837                           
  4838                           ;main.c: 484: } else if (posicion == 6) {
  4839  00E78A  D096               	goto	l5998
  4840  00E78C                     l5958:
  4841  00E78C  0E06               	movlw	6
  4842  00E78E  0100               	movlb	0	; () banked
  4843  00E790  19A8               	xorwf	V_ProgRiegoIlum@posicion& (0+255),w,b
  4844  00E792  0100               	movlb	0	; () banked
  4845  00E794  11A9               	iorwf	(V_ProgRiegoIlum@posicion+1)& (0+255),w,b
  4846  00E796  A4D8               	btfss	status,2,c
  4847  00E798  D017               	goto	l5966
  4848                           
  4849                           ; BSR set to: 0
  4850                           ;main.c: 485: if (f_min_riego_tr > 0) {
  4851  00E79A  0100               	movlb	0	; () banked
  4852  00E79C  51A7               	movf	V_ProgRiegoIlum@f_min_riego_tr& (0+255),w,b
  4853  00E79E  0100               	movlb	0	; () banked
  4854  00E7A0  B4D8               	btfsc	status,2,c
  4855  00E7A2  D003               	goto	l5964
  4856                           
  4857                           ; BSR set to: 0
  4858                           ;main.c: 486: f_min_riego_tr--;
  4859  00E7A4  0100               	movlb	0	; () banked
  4860  00E7A6  07A7               	decf	V_ProgRiegoIlum@f_min_riego_tr& (0+255),f,b
  4861  00E7A8  D000               	goto	l5964
  4862  00E7AA                     l5964:
  4863                           
  4864                           ; BSR set to: 0
  4865                           ;main.c: 487: }
  4866                           ;main.c: 488: escribir(2,18, "%02u", f_min_riego_tr);
  4867  00E7AA  0E12               	movlw	18
  4868  00E7AC  0100               	movlb	0	; () banked
  4869  00E7AE  6F9C               	movwf	escribir@columna& (0+255),b
  4870  00E7B0  0EBE               	movlw	low (STR_25+10)
  4871  00E7B2  0100               	movlb	0	; () banked
  4872  00E7B4  6F9D               	movwf	escribir@formato& (0+255),b
  4873  00E7B6  0EFF               	movlw	high (STR_25+10)
  4874  00E7B8  0100               	movlb	0	; () banked
  4875  00E7BA  6F9E               	movwf	(escribir@formato+1)& (0+255),b
  4876  00E7BC  C0A7  F09F         	movff	V_ProgRiegoIlum@f_min_riego_tr,escribir@variable
  4877  00E7C0  0E02               	movlw	2
  4878  00E7C2  EC03  F05B         	call	_escribir
  4879                           
  4880                           ;main.c: 489: } else if (posicion == 8) {
  4881  00E7C6  D078               	goto	l5998
  4882  00E7C8                     l5966:
  4883  00E7C8  0E08               	movlw	8
  4884  00E7CA  0100               	movlb	0	; () banked
  4885  00E7CC  19A8               	xorwf	V_ProgRiegoIlum@posicion& (0+255),w,b
  4886  00E7CE  0100               	movlb	0	; () banked
  4887  00E7D0  11A9               	iorwf	(V_ProgRiegoIlum@posicion+1)& (0+255),w,b
  4888  00E7D2  A4D8               	btfss	status,2,c
  4889  00E7D4  D017               	goto	l5974
  4890                           
  4891                           ; BSR set to: 0
  4892                           ;main.c: 490: if (i_hora_ilum_tr > 0) {
  4893  00E7D6  0100               	movlb	0	; () banked
  4894  00E7D8  51A0               	movf	V_ProgRiegoIlum@i_hora_ilum_tr& (0+255),w,b
  4895  00E7DA  0100               	movlb	0	; () banked
  4896  00E7DC  B4D8               	btfsc	status,2,c
  4897  00E7DE  D003               	goto	l5972
  4898                           
  4899                           ; BSR set to: 0
  4900                           ;main.c: 491: i_hora_ilum_tr--;
  4901  00E7E0  0100               	movlb	0	; () banked
  4902  00E7E2  07A0               	decf	V_ProgRiegoIlum@i_hora_ilum_tr& (0+255),f,b
  4903  00E7E4  D000               	goto	l5972
  4904  00E7E6                     l5972:
  4905                           
  4906                           ; BSR set to: 0
  4907                           ;main.c: 492: }
  4908                           ;main.c: 493: escribir(4,5, "%02u", i_hora_ilum_tr);
  4909  00E7E6  0E05               	movlw	5
  4910  00E7E8  0100               	movlb	0	; () banked
  4911  00E7EA  6F9C               	movwf	escribir@columna& (0+255),b
  4912  00E7EC  0EBE               	movlw	low (STR_25+10)
  4913  00E7EE  0100               	movlb	0	; () banked
  4914  00E7F0  6F9D               	movwf	escribir@formato& (0+255),b
  4915  00E7F2  0EFF               	movlw	high (STR_25+10)
  4916  00E7F4  0100               	movlb	0	; () banked
  4917  00E7F6  6F9E               	movwf	(escribir@formato+1)& (0+255),b
  4918  00E7F8  C0A0  F09F         	movff	V_ProgRiegoIlum@i_hora_ilum_tr,escribir@variable
  4919  00E7FC  0E04               	movlw	4
  4920  00E7FE  EC03  F05B         	call	_escribir
  4921                           
  4922                           ;main.c: 494: } else if (posicion == 10) {
  4923  00E802  D05A               	goto	l5998
  4924  00E804                     l5974:
  4925  00E804  0E0A               	movlw	10
  4926  00E806  0100               	movlb	0	; () banked
  4927  00E808  19A8               	xorwf	V_ProgRiegoIlum@posicion& (0+255),w,b
  4928  00E80A  0100               	movlb	0	; () banked
  4929  00E80C  11A9               	iorwf	(V_ProgRiegoIlum@posicion+1)& (0+255),w,b
  4930  00E80E  A4D8               	btfss	status,2,c
  4931  00E810  D017               	goto	l5982
  4932                           
  4933                           ; BSR set to: 0
  4934                           ;main.c: 495: if (i_min_ilum_tr > 0) {
  4935  00E812  0100               	movlb	0	; () banked
  4936  00E814  51A1               	movf	V_ProgRiegoIlum@i_min_ilum_tr& (0+255),w,b
  4937  00E816  0100               	movlb	0	; () banked
  4938  00E818  B4D8               	btfsc	status,2,c
  4939  00E81A  D003               	goto	l5980
  4940                           
  4941                           ; BSR set to: 0
  4942                           ;main.c: 496: i_min_ilum_tr--;
  4943  00E81C  0100               	movlb	0	; () banked
  4944  00E81E  07A1               	decf	V_ProgRiegoIlum@i_min_ilum_tr& (0+255),f,b
  4945  00E820  D000               	goto	l5980
  4946  00E822                     l5980:
  4947                           
  4948                           ; BSR set to: 0
  4949                           ;main.c: 497: }
  4950                           ;main.c: 498: escribir(4,8, "%02u", i_min_ilum_tr);
  4951  00E822  0E08               	movlw	8
  4952  00E824  0100               	movlb	0	; () banked
  4953  00E826  6F9C               	movwf	escribir@columna& (0+255),b
  4954  00E828  0EBE               	movlw	low (STR_25+10)
  4955  00E82A  0100               	movlb	0	; () banked
  4956  00E82C  6F9D               	movwf	escribir@formato& (0+255),b
  4957  00E82E  0EFF               	movlw	high (STR_25+10)
  4958  00E830  0100               	movlb	0	; () banked
  4959  00E832  6F9E               	movwf	(escribir@formato+1)& (0+255),b
  4960  00E834  C0A1  F09F         	movff	V_ProgRiegoIlum@i_min_ilum_tr,escribir@variable
  4961  00E838  0E04               	movlw	4
  4962  00E83A  EC03  F05B         	call	_escribir
  4963                           
  4964                           ;main.c: 499: } else if (posicion == 12) {
  4965  00E83E  D03C               	goto	l5998
  4966  00E840                     l5982:
  4967  00E840  0E0C               	movlw	12
  4968  00E842  0100               	movlb	0	; () banked
  4969  00E844  19A8               	xorwf	V_ProgRiegoIlum@posicion& (0+255),w,b
  4970  00E846  0100               	movlb	0	; () banked
  4971  00E848  11A9               	iorwf	(V_ProgRiegoIlum@posicion+1)& (0+255),w,b
  4972  00E84A  A4D8               	btfss	status,2,c
  4973  00E84C  D017               	goto	l5990
  4974                           
  4975                           ; BSR set to: 0
  4976                           ;main.c: 500: if (f_hora_ilum_tr > 0) {
  4977  00E84E  0100               	movlb	0	; () banked
  4978  00E850  51A2               	movf	V_ProgRiegoIlum@f_hora_ilum_tr& (0+255),w,b
  4979  00E852  0100               	movlb	0	; () banked
  4980  00E854  B4D8               	btfsc	status,2,c
  4981  00E856  D003               	goto	l5988
  4982                           
  4983                           ; BSR set to: 0
  4984                           ;main.c: 501: f_hora_ilum_tr--;
  4985  00E858  0100               	movlb	0	; () banked
  4986  00E85A  07A2               	decf	V_ProgRiegoIlum@f_hora_ilum_tr& (0+255),f,b
  4987  00E85C  D000               	goto	l5988
  4988  00E85E                     l5988:
  4989                           
  4990                           ; BSR set to: 0
  4991                           ;main.c: 502: }
  4992                           ;main.c: 503: escribir(4,15, "%02u", f_hora_ilum_tr);
  4993  00E85E  0E0F               	movlw	15
  4994  00E860  0100               	movlb	0	; () banked
  4995  00E862  6F9C               	movwf	escribir@columna& (0+255),b
  4996  00E864  0EBE               	movlw	low (STR_25+10)
  4997  00E866  0100               	movlb	0	; () banked
  4998  00E868  6F9D               	movwf	escribir@formato& (0+255),b
  4999  00E86A  0EFF               	movlw	high (STR_25+10)
  5000  00E86C  0100               	movlb	0	; () banked
  5001  00E86E  6F9E               	movwf	(escribir@formato+1)& (0+255),b
  5002  00E870  C0A2  F09F         	movff	V_ProgRiegoIlum@f_hora_ilum_tr,escribir@variable
  5003  00E874  0E04               	movlw	4
  5004  00E876  EC03  F05B         	call	_escribir
  5005                           
  5006                           ;main.c: 504: } else if (posicion == 14) {
  5007  00E87A  D01E               	goto	l5998
  5008  00E87C                     l5990:
  5009  00E87C  0E0E               	movlw	14
  5010  00E87E  0100               	movlb	0	; () banked
  5011  00E880  19A8               	xorwf	V_ProgRiegoIlum@posicion& (0+255),w,b
  5012  00E882  0100               	movlb	0	; () banked
  5013  00E884  11A9               	iorwf	(V_ProgRiegoIlum@posicion+1)& (0+255),w,b
  5014  00E886  A4D8               	btfss	status,2,c
  5015  00E888  D017               	goto	l5998
  5016                           
  5017                           ; BSR set to: 0
  5018                           ;main.c: 505: if (f_min_ilum_tr > 0) {
  5019  00E88A  0100               	movlb	0	; () banked
  5020  00E88C  51A3               	movf	V_ProgRiegoIlum@f_min_ilum_tr& (0+255),w,b
  5021  00E88E  0100               	movlb	0	; () banked
  5022  00E890  B4D8               	btfsc	status,2,c
  5023  00E892  D003               	goto	l5996
  5024                           
  5025                           ; BSR set to: 0
  5026                           ;main.c: 506: f_min_ilum_tr--;
  5027  00E894  0100               	movlb	0	; () banked
  5028  00E896  07A3               	decf	V_ProgRiegoIlum@f_min_ilum_tr& (0+255),f,b
  5029  00E898  D000               	goto	l5996
  5030  00E89A                     l5996:
  5031                           
  5032                           ; BSR set to: 0
  5033                           ;main.c: 507: }
  5034                           ;main.c: 508: escribir(4,18, "%02u", f_min_ilum_tr);
  5035  00E89A  0E12               	movlw	18
  5036  00E89C  0100               	movlb	0	; () banked
  5037  00E89E  6F9C               	movwf	escribir@columna& (0+255),b
  5038  00E8A0  0EBE               	movlw	low (STR_25+10)
  5039  00E8A2  0100               	movlb	0	; () banked
  5040  00E8A4  6F9D               	movwf	escribir@formato& (0+255),b
  5041  00E8A6  0EFF               	movlw	high (STR_25+10)
  5042  00E8A8  0100               	movlb	0	; () banked
  5043  00E8AA  6F9E               	movwf	(escribir@formato+1)& (0+255),b
  5044  00E8AC  C0A3  F09F         	movff	V_ProgRiegoIlum@f_min_ilum_tr,escribir@variable
  5045  00E8B0  0E04               	movlw	4
  5046  00E8B2  EC03  F05B         	call	_escribir
  5047  00E8B6  D000               	goto	l5998
  5048  00E8B8                     l5998:
  5049                           
  5050                           ;main.c: 509: }
  5051                           ;main.c: 510: }
  5052                           ;main.c: 513: if (Sw_Center = PORTAbits.RA5 == 0) {
  5053  00E8B8  BA80               	btfsc	3968,5,c	;volatile
  5054  00E8BA  D002               	goto	u7580
  5055  00E8BC  0E01               	movlw	1
  5056  00E8BE  D001               	goto	u7590
  5057  00E8C0                     u7580:
  5058  00E8C0  0E00               	movlw	0
  5059  00E8C2                     u7590:
  5060  00E8C2  0100               	movlb	0	; () banked
  5061  00E8C4  6FB7               	movwf	_Sw_Center& (0+255),b
  5062  00E8C6  0100               	movlb	0	; () banked
  5063  00E8C8  51B7               	movf	_Sw_Center& (0+255),w,b
  5064  00E8CA  B4D8               	btfsc	status,2,c
  5065  00E8CC  D011               	goto	l6002
  5066                           
  5067                           ; BSR set to: 0
  5068                           ;main.c: 514: inicio_hora_ilum = i_hora_ilum_tr;
  5069  00E8CE  C0A0  F0ED         	movff	V_ProgRiegoIlum@i_hora_ilum_tr,_inicio_hora_ilum
  5070                           
  5071                           ;main.c: 515: inicio_min_ilum = i_min_ilum_tr;
  5072  00E8D2  C0A1  F0BD         	movff	V_ProgRiegoIlum@i_min_ilum_tr,_inicio_min_ilum
  5073                           
  5074                           ;main.c: 516: fin_hora_ilum = f_hora_ilum_tr;
  5075  00E8D6  C0A2  F0EA         	movff	V_ProgRiegoIlum@f_hora_ilum_tr,_fin_hora_ilum
  5076                           
  5077                           ;main.c: 517: fin_min_ilum = f_min_ilum_tr;
  5078  00E8DA  C0A3  F0BC         	movff	V_ProgRiegoIlum@f_min_ilum_tr,_fin_min_ilum
  5079                           
  5080                           ;main.c: 518: inicio_hora_riego = i_hora_riego_tr;
  5081  00E8DE  C0A4  F0EE         	movff	V_ProgRiegoIlum@i_hora_riego_tr,_inicio_hora_riego
  5082                           
  5083                           ;main.c: 519: inicio_min_riego = i_min_riego_tr;
  5084  00E8E2  C0A5  F0BE         	movff	V_ProgRiegoIlum@i_min_riego_tr,_inicio_min_riego
  5085                           
  5086                           ;main.c: 520: fin_hora_riego = f_hora_riego_tr;
  5087  00E8E6  C0A6  F0EB         	movff	V_ProgRiegoIlum@f_hora_riego_tr,_fin_hora_riego
  5088                           
  5089                           ;main.c: 521: fin_min_riego = f_min_riego_tr;
  5090  00E8EA  C0A7  F0EC         	movff	V_ProgRiegoIlum@f_min_riego_tr,_fin_min_riego
  5091                           
  5092                           ;main.c: 523: break;
  5093  00E8EE  D00B               	goto	l6006
  5094  00E8F0                     l6002:
  5095                           
  5096                           ; BSR set to: 0
  5097  00E8F0  0100               	movlb	0	; () banked
  5098  00E8F2  4BB0               	infsnz	_i& (0+255),f,b
  5099  00E8F4  2BB1               	incf	(_i+1)& (0+255),f,b
  5100                           
  5101                           ; BSR set to: 0
  5102  00E8F6  0100               	movlb	0	; () banked
  5103  00E8F8  BFB1               	btfsc	(_i+1)& (0+255),7,b
  5104  00E8FA  D552               	goto	l5840
  5105  00E8FC  0100               	movlb	0	; () banked
  5106  00E8FE  51B1               	movf	(_i+1)& (0+255),w,b
  5107  00E900  E102               	bnz	l6006
  5108  00E902  D547               	goto	L3
  5109  00E904  D000               	goto	l6006
  5110  00E906                     l6006:
  5111                           
  5112                           ; BSR set to: 0
  5113                           ;main.c: 524: }
  5114                           ;main.c: 525: }
  5115                           ;main.c: 526: Lcd_Cmd(12);
  5116  00E906  0E0C               	movlw	12
  5117  00E908  EC20  F062         	call	_Lcd_Cmd
  5118  00E90C  0012               	return		;funcret
  5119  00E90E                     __end_of_V_ProgRiegoIlum:
  5120                           	opt stack 0
  5121                           tblptru	equ	0xFF8
  5122                           tblptrh	equ	0xFF7
  5123                           tblptrl	equ	0xFF6
  5124                           tablat	equ	0xFF5
  5125                           postinc0	equ	0xFEE
  5126                           wreg	equ	0xFE8
  5127                           postdec1	equ	0xFE5
  5128                           fsr1l	equ	0xFE1
  5129                           indf2	equ	0xFDF
  5130                           fsr2h	equ	0xFDA
  5131                           fsr2l	equ	0xFD9
  5132                           status	equ	0xFD8
  5133                           
  5134 ;; *************** function _V_ProgReloj *****************
  5135 ;; Defined at:
  5136 ;;		line 239 in file "../main.c"
  5137 ;; Parameters:    Size  Location     Type
  5138 ;;		None
  5139 ;; Auto vars:     Size  Location     Type
  5140 ;;  posicion        2   72[BANK0 ] int 
  5141 ;;  cte             2   64[BANK0 ] PTR unsigned char 
  5142 ;;		 -> Convert_diasem@buffer_dia(20), 
  5143 ;;  diasem_tr       1   71[BANK0 ] unsigned char 
  5144 ;;  minuto_tr       1   70[BANK0 ] unsigned char 
  5145 ;;  hora_tr         1   69[BANK0 ] unsigned char 
  5146 ;;  anio_tr         1   68[BANK0 ] unsigned char 
  5147 ;;  mes_tr          1   67[BANK0 ] unsigned char 
  5148 ;;  dia_tr          1   66[BANK0 ] unsigned char 
  5149 ;; Return value:  Size  Location     Type
  5150 ;;		None               void
  5151 ;; Registers used:
  5152 ;;		wreg, fsr0l, fsr0h, fsr2l, fsr2h, status,2, status,0, tblptrl, tblptrh, tblptru, prodl, prodh, cstack
  5153 ;; Tracked objects:
  5154 ;;		On entry : 0/0
  5155 ;;		On exit  : 0/0
  5156 ;;		Unchanged: 0/0
  5157 ;; Data sizes:     COMRAM   BANK0   BANK1   BANK2   BANK3   BANK4   BANK5   BANK6   BANK7   BANK8   BANK9  BANK10  BANK1
      +1  BANK12  BANK13  BANK14
  5158 ;;      Params:         0       0       0       0       0       0       0       0       0       0       0       0       
      +0       0       0       0
  5159 ;;      Locals:         0      10       0       0       0       0       0       0       0       0       0       0       
      +0       0       0       0
  5160 ;;      Temps:          2       0       0       0       0       0       0       0       0       0       0       0       
      +0       0       0       0
  5161 ;;      Totals:         2      10       0       0       0       0       0       0       0       0       0       0       
      +0       0       0       0
  5162 ;;Total ram usage:       12 bytes
  5163 ;; Hardware stack levels used:    1
  5164 ;; Hardware stack levels required when called:    5
  5165 ;; This function calls:
  5166 ;;		_Convert_diasem
  5167 ;;		_Lcd_Cmd
  5168 ;;		_Lcd_Out
  5169 ;;		_Write_RTC
  5170 ;;		_escribir
  5171 ;;		_sprintf
  5172 ;; This function is called by:
  5173 ;;		_main
  5174 ;; This function uses a non-reentrant model
  5175 ;;
  5176                           
  5177                           	psect	text11
  5178  00DC54                     __ptext11:
  5179                           	opt stack 0
  5180  00DC54                     _V_ProgReloj:
  5181                           	opt stack 25
  5182                           
  5183                           ;main.c: 241: Lcd_Cmd(1);
  5184                           
  5185                           ;incstack = 0
  5186  00DC54  0E01               	movlw	1
  5187  00DC56  EC20  F062         	call	_Lcd_Cmd
  5188                           
  5189                           ;main.c: 242: Lcd_Out(1, 0, "Program del reloj   ");
  5190  00DC5A  0E00               	movlw	0
  5191  00DC5C  6E54               	movwf	Lcd_Out@x,c
  5192  00DC5E  0EDD               	movlw	low STR_5
  5193  00DC60  6E55               	movwf	Lcd_Out@buffer,c
  5194  00DC62  0EFE               	movlw	high STR_5
  5195  00DC64  6E56               	movwf	Lcd_Out@buffer+1,c
  5196  00DC66  0E01               	movlw	1
  5197  00DC68  EC49  F05D         	call	_Lcd_Out
  5198                           
  5199                           ;main.c: 243: char* cte = Convert_diasem(diasem);
  5200  00DC6C  C0AE  F050         	movff	_diasem,Convert_diasem@dia
  5201  00DC70  C0AF  F051         	movff	_diasem+1,Convert_diasem@dia+1
  5202  00DC74  EC91  F061         	call	_Convert_diasem	;wreg free
  5203  00DC78  C050  F0A0         	movff	?_Convert_diasem,V_ProgReloj@cte
  5204  00DC7C  C051  F0A1         	movff	?_Convert_diasem+1,V_ProgReloj@cte+1
  5205                           
  5206                           ;main.c: 244: Lcd_Out(2, 0, cte);
  5207  00DC80  0E00               	movlw	0
  5208  00DC82  6E54               	movwf	Lcd_Out@x,c
  5209  00DC84  C0A0  F055         	movff	V_ProgReloj@cte,Lcd_Out@buffer
  5210  00DC88  C0A1  F056         	movff	V_ProgReloj@cte+1,Lcd_Out@buffer+1
  5211  00DC8C  0E02               	movlw	2
  5212  00DC8E  EC49  F05D         	call	_Lcd_Out
  5213                           
  5214                           ;main.c: 245: sprintf(buffer1, "%02u/%02u/%02u             ", dia, mes, anio);
  5215  00DC92  0EC0               	movlw	low _buffer1
  5216  00DC94  6E40               	movwf	sprintf@sp,c
  5217  00DC96  0E00               	movlw	high _buffer1
  5218  00DC98  6E41               	movwf	sprintf@sp+1,c
  5219  00DC9A  0EC5               	movlw	low STR_2
  5220  00DC9C  6E42               	movwf	sprintf@f,c
  5221  00DC9E  0EFD               	movlw	high STR_2
  5222  00DCA0  6E43               	movwf	sprintf@f+1,c
  5223  00DCA2  C0E4  F044         	movff	_dia,?_sprintf+4
  5224  00DCA6  C0E5  F045         	movff	_dia+1,?_sprintf+5
  5225  00DCAA  C0E6  F046         	movff	_mes,?_sprintf+6
  5226  00DCAE  C0E7  F047         	movff	_mes+1,?_sprintf+7
  5227  00DCB2  C0E2  F048         	movff	_anio,?_sprintf+8
  5228  00DCB6  C0E3  F049         	movff	_anio+1,?_sprintf+9
  5229  00DCBA  EC87  F074         	call	_sprintf	;wreg free
  5230                           
  5231                           ;main.c: 246: Lcd_Out(3, 0, buffer1);
  5232  00DCBE  0E00               	movlw	0
  5233  00DCC0  6E54               	movwf	Lcd_Out@x,c
  5234  00DCC2  0EC0               	movlw	low _buffer1
  5235  00DCC4  6E55               	movwf	Lcd_Out@buffer,c
  5236  00DCC6  0E00               	movlw	high _buffer1
  5237  00DCC8  6E56               	movwf	Lcd_Out@buffer+1,c
  5238  00DCCA  0E03               	movlw	3
  5239  00DCCC  EC49  F05D         	call	_Lcd_Out
  5240                           
  5241                           ;main.c: 247: sprintf(buffer1, "%02u:%02u       ", hora, minuto);
  5242  00DCD0  0EC0               	movlw	low _buffer1
  5243  00DCD2  6E40               	movwf	sprintf@sp,c
  5244  00DCD4  0E00               	movlw	high _buffer1
  5245  00DCD6  6E41               	movwf	sprintf@sp+1,c
  5246  00DCD8  0E92               	movlw	low STR_7
  5247  00DCDA  6E42               	movwf	sprintf@f,c
  5248  00DCDC  0EFF               	movlw	high STR_7
  5249  00DCDE  6E43               	movwf	sprintf@f+1,c
  5250  00DCE0  C05E  F044         	movff	_hora,?_sprintf+4
  5251  00DCE4  C05F  F045         	movff	_hora+1,?_sprintf+5
  5252  00DCE8  C0E8  F046         	movff	_minuto,?_sprintf+6
  5253  00DCEC  C0E9  F047         	movff	_minuto+1,?_sprintf+7
  5254  00DCF0  EC87  F074         	call	_sprintf	;wreg free
  5255                           
  5256                           ;main.c: 248: Lcd_Out(4, 0, buffer1);
  5257  00DCF4  0E00               	movlw	0
  5258  00DCF6  6E54               	movwf	Lcd_Out@x,c
  5259  00DCF8  0EC0               	movlw	low _buffer1
  5260  00DCFA  6E55               	movwf	Lcd_Out@buffer,c
  5261  00DCFC  0E00               	movlw	high _buffer1
  5262  00DCFE  6E56               	movwf	Lcd_Out@buffer+1,c
  5263  00DD00  0E04               	movlw	4
  5264  00DD02  EC49  F05D         	call	_Lcd_Out
  5265                           
  5266                           ;main.c: 249: char diasem_tr = diasem;
  5267  00DD06  C0AE  F0A7         	movff	_diasem,V_ProgReloj@diasem_tr
  5268                           
  5269                           ;main.c: 250: char dia_tr = dia;
  5270  00DD0A  C0E4  F0A2         	movff	_dia,V_ProgReloj@dia_tr
  5271                           
  5272                           ;main.c: 251: char mes_tr = mes;
  5273  00DD0E  C0E6  F0A3         	movff	_mes,V_ProgReloj@mes_tr
  5274                           
  5275                           ;main.c: 252: char anio_tr = anio;
  5276  00DD12  C0E2  F0A4         	movff	_anio,V_ProgReloj@anio_tr
  5277                           
  5278                           ;main.c: 253: char hora_tr = hora;
  5279  00DD16  C05E  F0A5         	movff	_hora,V_ProgReloj@hora_tr
  5280                           
  5281                           ;main.c: 254: char minuto_tr = minuto;
  5282  00DD1A  C0E8  F0A6         	movff	_minuto,V_ProgReloj@minuto_tr
  5283                           
  5284                           ;main.c: 255: int posicion = 0;
  5285  00DD1E  0E00               	movlw	0
  5286  00DD20  0100               	movlb	0	; () banked
  5287  00DD22  6FA9               	movwf	(V_ProgReloj@posicion+1)& (0+255),b
  5288  00DD24  0E00               	movlw	0
  5289  00DD26  6FA8               	movwf	V_ProgReloj@posicion& (0+255),b
  5290                           
  5291                           ; BSR set to: 0
  5292                           ;main.c: 256: Lcd_Cmd(15);
  5293  00DD28  0E0F               	movlw	15
  5294  00DD2A  EC20  F062         	call	_Lcd_Cmd
  5295                           
  5296                           ;main.c: 257: Lcd_Out(2, 0, "");
  5297  00DD2E  0E00               	movlw	0
  5298  00DD30  6E54               	movwf	Lcd_Out@x,c
  5299  00DD32  0EF5               	movlw	low (STR_51+20)
  5300  00DD34  6E55               	movwf	Lcd_Out@buffer,c
  5301  00DD36  0EFD               	movlw	high (STR_51+20)
  5302  00DD38  6E56               	movwf	Lcd_Out@buffer+1,c
  5303  00DD3A  0E02               	movlw	2
  5304  00DD3C  EC49  F05D         	call	_Lcd_Out
  5305                           
  5306                           ;main.c: 259: for (i = 0; i < 30; i++) {
  5307  00DD40  0E00               	movlw	0
  5308  00DD42  0100               	movlb	0	; () banked
  5309  00DD44  6FB1               	movwf	(_i+1)& (0+255),b
  5310  00DD46  0E00               	movlw	0
  5311  00DD48  6FB0               	movwf	_i& (0+255),b
  5312                           
  5313                           ; BSR set to: 0
  5314  00DD4A  0100               	movlb	0	; () banked
  5315  00DD4C  BFB1               	btfsc	(_i+1)& (0+255),7,b
  5316  00DD4E  D00A               	goto	l5518
  5317  00DD50  0100               	movlb	0	; () banked
  5318  00DD52  51B1               	movf	(_i+1)& (0+255),w,b
  5319  00DD54  E106               	bnz	u6430
  5320  00DD56  0E1E               	movlw	30
  5321  00DD58  0100               	movlb	0	; () banked
  5322  00DD5A  5DB0               	subwf	_i& (0+255),w,b
  5323  00DD5C  B0D8               	btfsc	status,0,c
  5324  00DD5E  D270               	goto	l5668
  5325  00DD60  D001               	goto	l5518
  5326  00DD62                     u6430:
  5327                           
  5328                           ; BSR set to: 0
  5329  00DD62  D26E               	goto	l5668
  5330  00DD64                     l5518:
  5331                           
  5332                           ; BSR set to: 0
  5333                           ;main.c: 261: sprintf(buffer1, "%d", diasem_tr);
  5334  00DD64  0EC0               	movlw	low _buffer1
  5335  00DD66  6E40               	movwf	sprintf@sp,c
  5336  00DD68  0E00               	movlw	high _buffer1
  5337  00DD6A  6E41               	movwf	sprintf@sp+1,c
  5338  00DD6C  0EF1               	movlw	low STR_9
  5339  00DD6E  6E42               	movwf	sprintf@f,c
  5340  00DD70  0EFF               	movlw	high STR_9
  5341  00DD72  6E43               	movwf	sprintf@f+1,c
  5342  00DD74  C0A7  F044         	movff	V_ProgReloj@diasem_tr,?_sprintf+4
  5343  00DD78  6A45               	clrf	?_sprintf+5,c
  5344  00DD7A  EC87  F074         	call	_sprintf	;wreg free
  5345                           
  5346                           ;main.c: 263: _delay((unsigned long)((90)*(8000000/4000.0)));
  5347  00DD7E  0EEA               	movlw	234
  5348  00DD80  6E5A               	movwf	??_V_ProgReloj& (0+255),c
  5349  00DD82  0EC3               	movlw	195
  5350  00DD84                     u7877:
  5351  00DD84  2EE8               	decfsz	wreg,f,c
  5352  00DD86  D7FE               	goto	u7877
  5353  00DD88  2E5A               	decfsz	??_V_ProgReloj& (0+255),f,c
  5354  00DD8A  D7FC               	goto	u7877
  5355  00DD8C  F000               	nop	
  5356                           
  5357                           ;main.c: 266: if (Sw_Up = PORTAbits.RA3 == 0) {
  5358  00DD8E  B680               	btfsc	3968,3,c	;volatile
  5359  00DD90  D002               	goto	u6440
  5360  00DD92  0E01               	movlw	1
  5361  00DD94  D001               	goto	u6450
  5362  00DD96                     u6440:
  5363  00DD96  0E00               	movlw	0
  5364  00DD98                     u6450:
  5365  00DD98  0100               	movlb	0	; () banked
  5366  00DD9A  6FBB               	movwf	_Sw_Up& (0+255),b
  5367  00DD9C  0100               	movlb	0	; () banked
  5368  00DD9E  51BB               	movf	_Sw_Up& (0+255),w,b
  5369  00DDA0  B4D8               	btfsc	status,2,c
  5370  00DDA2  D0C1               	goto	l5580
  5371                           
  5372                           ; BSR set to: 0
  5373                           ;main.c: 268: i = 0;
  5374  00DDA4  0E00               	movlw	0
  5375  00DDA6  0100               	movlb	0	; () banked
  5376  00DDA8  6FB1               	movwf	(_i+1)& (0+255),b
  5377  00DDAA  0E00               	movlw	0
  5378  00DDAC  6FB0               	movwf	_i& (0+255),b
  5379                           
  5380                           ; BSR set to: 0
  5381                           ;main.c: 269: if (posicion == 0) {
  5382  00DDAE  0100               	movlb	0	; () banked
  5383  00DDB0  51A8               	movf	V_ProgReloj@posicion& (0+255),w,b
  5384  00DDB2  0100               	movlb	0	; () banked
  5385  00DDB4  11A9               	iorwf	(V_ProgReloj@posicion+1)& (0+255),w,b
  5386  00DDB6  A4D8               	btfss	status,2,c
  5387  00DDB8  D025               	goto	l5540
  5388                           
  5389                           ; BSR set to: 0
  5390                           ;main.c: 270: if (diasem_tr < 6) {
  5391  00DDBA  0E06               	movlw	6
  5392  00DDBC  0100               	movlb	0	; () banked
  5393  00DDBE  61A7               	cpfslt	V_ProgReloj@diasem_tr& (0+255),b
  5394  00DDC0  D003               	goto	l5532
  5395                           
  5396                           ; BSR set to: 0
  5397                           ;main.c: 271: diasem_tr++;
  5398  00DDC2  0100               	movlb	0	; () banked
  5399  00DDC4  2BA7               	incf	V_ProgReloj@diasem_tr& (0+255),f,b
  5400  00DDC6  D000               	goto	l5532
  5401  00DDC8                     l5532:
  5402                           
  5403                           ; BSR set to: 0
  5404                           ;main.c: 272: }
  5405                           ;main.c: 273: Lcd_Cmd(12);
  5406  00DDC8  0E0C               	movlw	12
  5407  00DDCA  EC20  F062         	call	_Lcd_Cmd
  5408                           
  5409                           ;main.c: 274: Lcd_Out(2, 0, Convert_diasem(diasem_tr));
  5410  00DDCE  0E00               	movlw	0
  5411  00DDD0  6E54               	movwf	Lcd_Out@x,c
  5412  00DDD2  C0A7  F050         	movff	V_ProgReloj@diasem_tr,Convert_diasem@dia
  5413  00DDD6  6A51               	clrf	Convert_diasem@dia+1,c
  5414  00DDD8  EC91  F061         	call	_Convert_diasem	;wreg free
  5415  00DDDC  C050  F055         	movff	?_Convert_diasem,Lcd_Out@buffer
  5416  00DDE0  C051  F056         	movff	?_Convert_diasem+1,Lcd_Out@buffer+1
  5417  00DDE4  0E02               	movlw	2
  5418  00DDE6  EC49  F05D         	call	_Lcd_Out
  5419                           
  5420                           ;main.c: 275: Lcd_Out(2, 0, "");
  5421  00DDEA  0E00               	movlw	0
  5422  00DDEC  6E54               	movwf	Lcd_Out@x,c
  5423  00DDEE  0EF5               	movlw	low (STR_51+20)
  5424  00DDF0  6E55               	movwf	Lcd_Out@buffer,c
  5425  00DDF2  0EFD               	movlw	high (STR_51+20)
  5426  00DDF4  6E56               	movwf	Lcd_Out@buffer+1,c
  5427  00DDF6  0E02               	movlw	2
  5428  00DDF8  EC49  F05D         	call	_Lcd_Out
  5429                           
  5430                           ;main.c: 276: Lcd_Cmd(15);
  5431  00DDFC  0E0F               	movlw	15
  5432  00DDFE  EC20  F062         	call	_Lcd_Cmd
  5433                           
  5434                           ;main.c: 277: } else if (posicion == 2) {
  5435  00DE02  D091               	goto	l5580
  5436  00DE04                     l5540:
  5437  00DE04  0E02               	movlw	2
  5438  00DE06  0100               	movlb	0	; () banked
  5439  00DE08  19A8               	xorwf	V_ProgReloj@posicion& (0+255),w,b
  5440  00DE0A  0100               	movlb	0	; () banked
  5441  00DE0C  11A9               	iorwf	(V_ProgReloj@posicion+1)& (0+255),w,b
  5442  00DE0E  A4D8               	btfss	status,2,c
  5443  00DE10  D016               	goto	l5548
  5444                           
  5445                           ; BSR set to: 0
  5446                           ;main.c: 278: if (dia_tr < 31) {
  5447  00DE12  0E1F               	movlw	31
  5448  00DE14  0100               	movlb	0	; () banked
  5449  00DE16  61A2               	cpfslt	V_ProgReloj@dia_tr& (0+255),b
  5450  00DE18  D003               	goto	l5546
  5451                           
  5452                           ; BSR set to: 0
  5453                           ;main.c: 279: dia_tr++;
  5454  00DE1A  0100               	movlb	0	; () banked
  5455  00DE1C  2BA2               	incf	V_ProgReloj@dia_tr& (0+255),f,b
  5456  00DE1E  D000               	goto	l5546
  5457  00DE20                     l5546:
  5458                           
  5459                           ; BSR set to: 0
  5460                           ;main.c: 280: }
  5461                           ;main.c: 281: escribir(3,0, "%02u", dia_tr);
  5462  00DE20  0E00               	movlw	0
  5463  00DE22  0100               	movlb	0	; () banked
  5464  00DE24  6F9C               	movwf	escribir@columna& (0+255),b
  5465  00DE26  0EBE               	movlw	low (STR_25+10)
  5466  00DE28  0100               	movlb	0	; () banked
  5467  00DE2A  6F9D               	movwf	escribir@formato& (0+255),b
  5468  00DE2C  0EFF               	movlw	high (STR_25+10)
  5469  00DE2E  0100               	movlb	0	; () banked
  5470  00DE30  6F9E               	movwf	(escribir@formato+1)& (0+255),b
  5471  00DE32  C0A2  F09F         	movff	V_ProgReloj@dia_tr,escribir@variable
  5472  00DE36  0E03               	movlw	3
  5473  00DE38  EC03  F05B         	call	_escribir
  5474                           
  5475                           ;main.c: 282: } else if (posicion == 4) {
  5476  00DE3C  D074               	goto	l5580
  5477  00DE3E                     l5548:
  5478  00DE3E  0E04               	movlw	4
  5479  00DE40  0100               	movlb	0	; () banked
  5480  00DE42  19A8               	xorwf	V_ProgReloj@posicion& (0+255),w,b
  5481  00DE44  0100               	movlb	0	; () banked
  5482  00DE46  11A9               	iorwf	(V_ProgReloj@posicion+1)& (0+255),w,b
  5483  00DE48  A4D8               	btfss	status,2,c
  5484  00DE4A  D016               	goto	l5556
  5485                           
  5486                           ; BSR set to: 0
  5487                           ;main.c: 283: if (mes_tr < 12) {
  5488  00DE4C  0E0C               	movlw	12
  5489  00DE4E  0100               	movlb	0	; () banked
  5490  00DE50  61A3               	cpfslt	V_ProgReloj@mes_tr& (0+255),b
  5491  00DE52  D003               	goto	l5554
  5492                           
  5493                           ; BSR set to: 0
  5494                           ;main.c: 284: mes_tr++;
  5495  00DE54  0100               	movlb	0	; () banked
  5496  00DE56  2BA3               	incf	V_ProgReloj@mes_tr& (0+255),f,b
  5497  00DE58  D000               	goto	l5554
  5498  00DE5A                     l5554:
  5499                           
  5500                           ; BSR set to: 0
  5501                           ;main.c: 285: }
  5502                           ;main.c: 286: escribir(3,3,"%02u", mes_tr );
  5503  00DE5A  0E03               	movlw	3
  5504  00DE5C  0100               	movlb	0	; () banked
  5505  00DE5E  6F9C               	movwf	escribir@columna& (0+255),b
  5506  00DE60  0EBE               	movlw	low (STR_25+10)
  5507  00DE62  0100               	movlb	0	; () banked
  5508  00DE64  6F9D               	movwf	escribir@formato& (0+255),b
  5509  00DE66  0EFF               	movlw	high (STR_25+10)
  5510  00DE68  0100               	movlb	0	; () banked
  5511  00DE6A  6F9E               	movwf	(escribir@formato+1)& (0+255),b
  5512  00DE6C  C0A3  F09F         	movff	V_ProgReloj@mes_tr,escribir@variable
  5513  00DE70  0E03               	movlw	3
  5514  00DE72  EC03  F05B         	call	_escribir
  5515                           
  5516                           ;main.c: 287: } else if (posicion == 6) {
  5517  00DE76  D057               	goto	l5580
  5518  00DE78                     l5556:
  5519  00DE78  0E06               	movlw	6
  5520  00DE7A  0100               	movlb	0	; () banked
  5521  00DE7C  19A8               	xorwf	V_ProgReloj@posicion& (0+255),w,b
  5522  00DE7E  0100               	movlb	0	; () banked
  5523  00DE80  11A9               	iorwf	(V_ProgReloj@posicion+1)& (0+255),w,b
  5524  00DE82  A4D8               	btfss	status,2,c
  5525  00DE84  D016               	goto	l5564
  5526                           
  5527                           ; BSR set to: 0
  5528                           ;main.c: 288: if (anio_tr < 99) {
  5529  00DE86  0E63               	movlw	99
  5530  00DE88  0100               	movlb	0	; () banked
  5531  00DE8A  61A4               	cpfslt	V_ProgReloj@anio_tr& (0+255),b
  5532  00DE8C  D003               	goto	l5562
  5533                           
  5534                           ; BSR set to: 0
  5535                           ;main.c: 289: anio_tr++;
  5536  00DE8E  0100               	movlb	0	; () banked
  5537  00DE90  2BA4               	incf	V_ProgReloj@anio_tr& (0+255),f,b
  5538  00DE92  D000               	goto	l5562
  5539  00DE94                     l5562:
  5540                           
  5541                           ; BSR set to: 0
  5542                           ;main.c: 290: }
  5543                           ;main.c: 291: escribir(3,6, "%02u", anio_tr);
  5544  00DE94  0E06               	movlw	6
  5545  00DE96  0100               	movlb	0	; () banked
  5546  00DE98  6F9C               	movwf	escribir@columna& (0+255),b
  5547  00DE9A  0EBE               	movlw	low (STR_25+10)
  5548  00DE9C  0100               	movlb	0	; () banked
  5549  00DE9E  6F9D               	movwf	escribir@formato& (0+255),b
  5550  00DEA0  0EFF               	movlw	high (STR_25+10)
  5551  00DEA2  0100               	movlb	0	; () banked
  5552  00DEA4  6F9E               	movwf	(escribir@formato+1)& (0+255),b
  5553  00DEA6  C0A4  F09F         	movff	V_ProgReloj@anio_tr,escribir@variable
  5554  00DEAA  0E03               	movlw	3
  5555  00DEAC  EC03  F05B         	call	_escribir
  5556                           
  5557                           ;main.c: 292: } else if (posicion == 8) {
  5558  00DEB0  D03A               	goto	l5580
  5559  00DEB2                     l5564:
  5560  00DEB2  0E08               	movlw	8
  5561  00DEB4  0100               	movlb	0	; () banked
  5562  00DEB6  19A8               	xorwf	V_ProgReloj@posicion& (0+255),w,b
  5563  00DEB8  0100               	movlb	0	; () banked
  5564  00DEBA  11A9               	iorwf	(V_ProgReloj@posicion+1)& (0+255),w,b
  5565  00DEBC  A4D8               	btfss	status,2,c
  5566  00DEBE  D016               	goto	l5572
  5567                           
  5568                           ; BSR set to: 0
  5569                           ;main.c: 293: if (hora_tr < 23) {
  5570  00DEC0  0E17               	movlw	23
  5571  00DEC2  0100               	movlb	0	; () banked
  5572  00DEC4  61A5               	cpfslt	V_ProgReloj@hora_tr& (0+255),b
  5573  00DEC6  D003               	goto	l5570
  5574                           
  5575                           ; BSR set to: 0
  5576                           ;main.c: 294: hora_tr++;
  5577  00DEC8  0100               	movlb	0	; () banked
  5578  00DECA  2BA5               	incf	V_ProgReloj@hora_tr& (0+255),f,b
  5579  00DECC  D000               	goto	l5570
  5580  00DECE                     l5570:
  5581                           
  5582                           ; BSR set to: 0
  5583                           ;main.c: 295: }
  5584                           ;main.c: 296: escribir(4,0, "%02u", hora_tr);
  5585  00DECE  0E00               	movlw	0
  5586  00DED0  0100               	movlb	0	; () banked
  5587  00DED2  6F9C               	movwf	escribir@columna& (0+255),b
  5588  00DED4  0EBE               	movlw	low (STR_25+10)
  5589  00DED6  0100               	movlb	0	; () banked
  5590  00DED8  6F9D               	movwf	escribir@formato& (0+255),b
  5591  00DEDA  0EFF               	movlw	high (STR_25+10)
  5592  00DEDC  0100               	movlb	0	; () banked
  5593  00DEDE  6F9E               	movwf	(escribir@formato+1)& (0+255),b
  5594  00DEE0  C0A5  F09F         	movff	V_ProgReloj@hora_tr,escribir@variable
  5595  00DEE4  0E04               	movlw	4
  5596  00DEE6  EC03  F05B         	call	_escribir
  5597                           
  5598                           ;main.c: 297: } else if (posicion == 10) {
  5599  00DEEA  D01D               	goto	l5580
  5600  00DEEC                     l5572:
  5601  00DEEC  0E0A               	movlw	10
  5602  00DEEE  0100               	movlb	0	; () banked
  5603  00DEF0  19A8               	xorwf	V_ProgReloj@posicion& (0+255),w,b
  5604  00DEF2  0100               	movlb	0	; () banked
  5605  00DEF4  11A9               	iorwf	(V_ProgReloj@posicion+1)& (0+255),w,b
  5606  00DEF6  A4D8               	btfss	status,2,c
  5607  00DEF8  D016               	goto	l5580
  5608                           
  5609                           ; BSR set to: 0
  5610                           ;main.c: 298: if (minuto_tr < 59) {
  5611  00DEFA  0E3B               	movlw	59
  5612  00DEFC  0100               	movlb	0	; () banked
  5613  00DEFE  61A6               	cpfslt	V_ProgReloj@minuto_tr& (0+255),b
  5614  00DF00  D003               	goto	l5578
  5615                           
  5616                           ; BSR set to: 0
  5617                           ;main.c: 299: minuto_tr++;
  5618  00DF02  0100               	movlb	0	; () banked
  5619  00DF04  2BA6               	incf	V_ProgReloj@minuto_tr& (0+255),f,b
  5620  00DF06  D000               	goto	l5578
  5621  00DF08                     l5578:
  5622                           
  5623                           ; BSR set to: 0
  5624                           ;main.c: 300: }
  5625                           ;main.c: 301: escribir(4,3, "%02u", minuto_tr);
  5626  00DF08  0E03               	movlw	3
  5627  00DF0A  0100               	movlb	0	; () banked
  5628  00DF0C  6F9C               	movwf	escribir@columna& (0+255),b
  5629  00DF0E  0EBE               	movlw	low (STR_25+10)
  5630  00DF10  0100               	movlb	0	; () banked
  5631  00DF12  6F9D               	movwf	escribir@formato& (0+255),b
  5632  00DF14  0EFF               	movlw	high (STR_25+10)
  5633  00DF16  0100               	movlb	0	; () banked
  5634  00DF18  6F9E               	movwf	(escribir@formato+1)& (0+255),b
  5635  00DF1A  C0A6  F09F         	movff	V_ProgReloj@minuto_tr,escribir@variable
  5636  00DF1E  0E04               	movlw	4
  5637  00DF20  EC03  F05B         	call	_escribir
  5638  00DF24  D000               	goto	l5580
  5639  00DF26                     l5580:
  5640                           
  5641                           ;main.c: 302: }
  5642                           ;main.c: 303: }
  5643                           ;main.c: 305: if (Sw_Right = PORTAbits.RA2 == 0) {
  5644  00DF26  B480               	btfsc	3968,2,c	;volatile
  5645  00DF28  D002               	goto	u6590
  5646  00DF2A  0E01               	movlw	1
  5647  00DF2C  D001               	goto	u6600
  5648  00DF2E                     u6590:
  5649  00DF2E  0E00               	movlw	0
  5650  00DF30                     u6600:
  5651  00DF30  0100               	movlb	0	; () banked
  5652  00DF32  6FBA               	movwf	_Sw_Right& (0+255),b
  5653  00DF34  0100               	movlb	0	; () banked
  5654  00DF36  51BA               	movf	_Sw_Right& (0+255),w,b
  5655  00DF38  B4D8               	btfsc	status,2,c
  5656  00DF3A  D03C               	goto	l5590
  5657                           
  5658                           ; BSR set to: 0
  5659                           ;main.c: 306: if (posicion <= 9) {
  5660  00DF3C  0100               	movlb	0	; () banked
  5661  00DF3E  BFA9               	btfsc	(V_ProgReloj@posicion+1)& (0+255),7,b
  5662  00DF40  D008               	goto	l5584
  5663  00DF42  0100               	movlb	0	; () banked
  5664  00DF44  51A9               	movf	(V_ProgReloj@posicion+1)& (0+255),w,b
  5665  00DF46  E10B               	bnz	l5586
  5666  00DF48  0E0A               	movlw	10
  5667  00DF4A  0100               	movlb	0	; () banked
  5668  00DF4C  5DA8               	subwf	V_ProgReloj@posicion& (0+255),w,b
  5669  00DF4E  B0D8               	btfsc	status,0,c
  5670  00DF50  D006               	goto	l5586
  5671  00DF52                     l5584:
  5672                           
  5673                           ; BSR set to: 0
  5674                           ;main.c: 307: posicion += 2;
  5675  00DF52  0E02               	movlw	2
  5676  00DF54  0100               	movlb	0	; () banked
  5677  00DF56  27A8               	addwf	V_ProgReloj@posicion& (0+255),f,b
  5678  00DF58  0E00               	movlw	0
  5679  00DF5A  23A9               	addwfc	(V_ProgReloj@posicion+1)& (0+255),f,b
  5680  00DF5C  D000               	goto	l5586
  5681  00DF5E                     l5586:
  5682                           
  5683                           ; BSR set to: 0
  5684                           ;main.c: 308: }
  5685                           ;main.c: 309: i = 0;
  5686  00DF5E  0E00               	movlw	0
  5687  00DF60  0100               	movlb	0	; () banked
  5688  00DF62  6FB1               	movwf	(_i+1)& (0+255),b
  5689  00DF64  0E00               	movlw	0
  5690  00DF66  6FB0               	movwf	_i& (0+255),b
  5691                           
  5692                           ; BSR set to: 0
  5693                           ;main.c: 310: Lcd_Out(posicionesLeft[posicion], posicionesLeft[posicion + 1], "");
  5694  00DF68  C0A8  F05A         	movff	V_ProgReloj@posicion,??_V_ProgReloj
  5695  00DF6C  C0A9  F05B         	movff	V_ProgReloj@posicion+1,??_V_ProgReloj+1
  5696  00DF70  90D8               	bcf	status,0,c
  5697  00DF72  365A               	rlcf	??_V_ProgReloj,f,c
  5698  00DF74  365B               	rlcf	??_V_ProgReloj+1,f,c
  5699  00DF76  0E02               	movlw	2
  5700  00DF78  265A               	addwf	??_V_ProgReloj,f,c
  5701  00DF7A  0E00               	movlw	0
  5702  00DF7C  225B               	addwfc	??_V_ProgReloj+1,f,c
  5703  00DF7E  0E20               	movlw	low _posicionesLeft
  5704  00DF80  245A               	addwf	??_V_ProgReloj,w,c
  5705  00DF82  6ED9               	movwf	fsr2l,c
  5706  00DF84  0E01               	movlw	high _posicionesLeft
  5707  00DF86  205B               	addwfc	??_V_ProgReloj+1,w,c
  5708  00DF88  6EDA               	movwf	fsr2h,c
  5709  00DF8A  50DF               	movf	indf2,w,c
  5710  00DF8C  6E54               	movwf	Lcd_Out@x,c
  5711  00DF8E  0EF5               	movlw	low (STR_51+20)
  5712  00DF90  6E55               	movwf	Lcd_Out@buffer,c
  5713  00DF92  0EFD               	movlw	high (STR_51+20)
  5714  00DF94  6E56               	movwf	Lcd_Out@buffer+1,c
  5715  00DF96  90D8               	bcf	status,0,c
  5716  00DF98  0100               	movlb	0	; () banked
  5717  00DF9A  35A8               	rlcf	V_ProgReloj@posicion& (0+255),w,b
  5718  00DF9C  6ED9               	movwf	fsr2l,c
  5719  00DF9E  0100               	movlb	0	; () banked
  5720  00DFA0  35A9               	rlcf	(V_ProgReloj@posicion+1)& (0+255),w,b
  5721  00DFA2  6EDA               	movwf	fsr2h,c
  5722  00DFA4  0E20               	movlw	low _posicionesLeft
  5723  00DFA6  26D9               	addwf	fsr2l,f,c
  5724  00DFA8  0E01               	movlw	high _posicionesLeft
  5725  00DFAA  22DA               	addwfc	fsr2h,f,c
  5726  00DFAC  50DF               	movf	indf2,w,c
  5727  00DFAE  EC49  F05D         	call	_Lcd_Out
  5728  00DFB2  D000               	goto	l5590
  5729  00DFB4                     l5590:
  5730                           
  5731                           ;main.c: 311: }
  5732                           ;main.c: 313: if (Sw_Left = PORTAbits.RA0 == 0) {
  5733  00DFB4  B080               	btfsc	3968,0,c	;volatile
  5734  00DFB6  D002               	goto	u6630
  5735  00DFB8  0E01               	movlw	1
  5736  00DFBA  D001               	goto	u6640
  5737  00DFBC                     u6630:
  5738  00DFBC  0E00               	movlw	0
  5739  00DFBE                     u6640:
  5740  00DFBE  0100               	movlb	0	; () banked
  5741  00DFC0  6FB9               	movwf	_Sw_Left& (0+255),b
  5742  00DFC2  0100               	movlb	0	; () banked
  5743  00DFC4  51B9               	movf	_Sw_Left& (0+255),w,b
  5744  00DFC6  B4D8               	btfsc	status,2,c
  5745  00DFC8  D03C               	goto	l5600
  5746                           
  5747                           ; BSR set to: 0
  5748                           ;main.c: 314: if (posicion >= 2) {
  5749  00DFCA  0100               	movlb	0	; () banked
  5750  00DFCC  BFA9               	btfsc	(V_ProgReloj@posicion+1)& (0+255),7,b
  5751  00DFCE  D00E               	goto	l5596
  5752  00DFD0  0100               	movlb	0	; () banked
  5753  00DFD2  51A9               	movf	(V_ProgReloj@posicion+1)& (0+255),w,b
  5754  00DFD4  E105               	bnz	u6660
  5755  00DFD6  0E02               	movlw	2
  5756  00DFD8  0100               	movlb	0	; () banked
  5757  00DFDA  5DA8               	subwf	V_ProgReloj@posicion& (0+255),w,b
  5758  00DFDC  A0D8               	btfss	status,0,c
  5759  00DFDE  D006               	goto	l5596
  5760  00DFE0                     u6660:
  5761                           
  5762                           ; BSR set to: 0
  5763                           ;main.c: 315: posicion -= 2;
  5764  00DFE0  0100               	movlb	0	; () banked
  5765  00DFE2  0EFE               	movlw	254
  5766  00DFE4  27A8               	addwf	V_ProgReloj@posicion& (0+255),f,b
  5767  00DFE6  0EFF               	movlw	255
  5768  00DFE8  23A9               	addwfc	(V_ProgReloj@posicion+1)& (0+255),f,b
  5769  00DFEA  D000               	goto	l5596
  5770  00DFEC                     l5596:
  5771                           
  5772                           ; BSR set to: 0
  5773                           ;main.c: 316: }
  5774                           ;main.c: 317: i = 0;
  5775  00DFEC  0E00               	movlw	0
  5776  00DFEE  0100               	movlb	0	; () banked
  5777  00DFF0  6FB1               	movwf	(_i+1)& (0+255),b
  5778  00DFF2  0E00               	movlw	0
  5779  00DFF4  6FB0               	movwf	_i& (0+255),b
  5780                           
  5781                           ; BSR set to: 0
  5782                           ;main.c: 318: Lcd_Out(posicionesLeft[posicion], posicionesLeft[posicion + 1], "");
  5783  00DFF6  C0A8  F05A         	movff	V_ProgReloj@posicion,??_V_ProgReloj
  5784  00DFFA  C0A9  F05B         	movff	V_ProgReloj@posicion+1,??_V_ProgReloj+1
  5785  00DFFE  90D8               	bcf	status,0,c
  5786  00E000  365A               	rlcf	??_V_ProgReloj,f,c
  5787  00E002  365B               	rlcf	??_V_ProgReloj+1,f,c
  5788  00E004  0E02               	movlw	2
  5789  00E006  265A               	addwf	??_V_ProgReloj,f,c
  5790  00E008  0E00               	movlw	0
  5791  00E00A  225B               	addwfc	??_V_ProgReloj+1,f,c
  5792  00E00C  0E20               	movlw	low _posicionesLeft
  5793  00E00E  245A               	addwf	??_V_ProgReloj,w,c
  5794  00E010  6ED9               	movwf	fsr2l,c
  5795  00E012  0E01               	movlw	high _posicionesLeft
  5796  00E014  205B               	addwfc	??_V_ProgReloj+1,w,c
  5797  00E016  6EDA               	movwf	fsr2h,c
  5798  00E018  50DF               	movf	indf2,w,c
  5799  00E01A  6E54               	movwf	Lcd_Out@x,c
  5800  00E01C  0EF5               	movlw	low (STR_51+20)
  5801  00E01E  6E55               	movwf	Lcd_Out@buffer,c
  5802  00E020  0EFD               	movlw	high (STR_51+20)
  5803  00E022  6E56               	movwf	Lcd_Out@buffer+1,c
  5804  00E024  90D8               	bcf	status,0,c
  5805  00E026  0100               	movlb	0	; () banked
  5806  00E028  35A8               	rlcf	V_ProgReloj@posicion& (0+255),w,b
  5807  00E02A  6ED9               	movwf	fsr2l,c
  5808  00E02C  0100               	movlb	0	; () banked
  5809  00E02E  35A9               	rlcf	(V_ProgReloj@posicion+1)& (0+255),w,b
  5810  00E030  6EDA               	movwf	fsr2h,c
  5811  00E032  0E20               	movlw	low _posicionesLeft
  5812  00E034  26D9               	addwf	fsr2l,f,c
  5813  00E036  0E01               	movlw	high _posicionesLeft
  5814  00E038  22DA               	addwfc	fsr2h,f,c
  5815  00E03A  50DF               	movf	indf2,w,c
  5816  00E03C  EC49  F05D         	call	_Lcd_Out
  5817  00E040  D000               	goto	l5600
  5818  00E042                     l5600:
  5819                           
  5820                           ;main.c: 319: }
  5821                           ;main.c: 321: if (Sw_Down = PORTCbits.RC4 == 0) {
  5822  00E042  B882               	btfsc	3970,4,c	;volatile
  5823  00E044  D002               	goto	u6670
  5824  00E046  0E01               	movlw	1
  5825  00E048  D001               	goto	u6680
  5826  00E04A                     u6670:
  5827  00E04A  0E00               	movlw	0
  5828  00E04C                     u6680:
  5829  00E04C  0100               	movlb	0	; () banked
  5830  00E04E  6FB8               	movwf	_Sw_Down& (0+255),b
  5831  00E050  0100               	movlb	0	; () banked
  5832  00E052  51B8               	movf	_Sw_Down& (0+255),w,b
  5833  00E054  B4D8               	btfsc	status,2,c
  5834  00E056  D0C4               	goto	l5658
  5835                           
  5836                           ; BSR set to: 0
  5837                           ;main.c: 322: i = 0;
  5838  00E058  0E00               	movlw	0
  5839  00E05A  0100               	movlb	0	; () banked
  5840  00E05C  6FB1               	movwf	(_i+1)& (0+255),b
  5841  00E05E  0E00               	movlw	0
  5842  00E060  6FB0               	movwf	_i& (0+255),b
  5843                           
  5844                           ; BSR set to: 0
  5845                           ;main.c: 323: if (posicion == 0) {
  5846  00E062  0100               	movlb	0	; () banked
  5847  00E064  51A8               	movf	V_ProgReloj@posicion& (0+255),w,b
  5848  00E066  0100               	movlb	0	; () banked
  5849  00E068  11A9               	iorwf	(V_ProgReloj@posicion+1)& (0+255),w,b
  5850  00E06A  A4D8               	btfss	status,2,c
  5851  00E06C  D026               	goto	l5618
  5852                           
  5853                           ; BSR set to: 0
  5854                           ;main.c: 324: if (diasem_tr > 0) {
  5855  00E06E  0100               	movlb	0	; () banked
  5856  00E070  51A7               	movf	V_ProgReloj@diasem_tr& (0+255),w,b
  5857  00E072  0100               	movlb	0	; () banked
  5858  00E074  B4D8               	btfsc	status,2,c
  5859  00E076  D003               	goto	l5610
  5860                           
  5861                           ; BSR set to: 0
  5862                           ;main.c: 325: diasem_tr--;
  5863  00E078  0100               	movlb	0	; () banked
  5864  00E07A  07A7               	decf	V_ProgReloj@diasem_tr& (0+255),f,b
  5865  00E07C  D000               	goto	l5610
  5866  00E07E                     l5610:
  5867                           
  5868                           ; BSR set to: 0
  5869                           ;main.c: 326: }
  5870                           ;main.c: 327: Lcd_Cmd(12);
  5871  00E07E  0E0C               	movlw	12
  5872  00E080  EC20  F062         	call	_Lcd_Cmd
  5873                           
  5874                           ;main.c: 328: Lcd_Out(2, 0, Convert_diasem(diasem_tr));
  5875  00E084  0E00               	movlw	0
  5876  00E086  6E54               	movwf	Lcd_Out@x,c
  5877  00E088  C0A7  F050         	movff	V_ProgReloj@diasem_tr,Convert_diasem@dia
  5878  00E08C  6A51               	clrf	Convert_diasem@dia+1,c
  5879  00E08E  EC91  F061         	call	_Convert_diasem	;wreg free
  5880  00E092  C050  F055         	movff	?_Convert_diasem,Lcd_Out@buffer
  5881  00E096  C051  F056         	movff	?_Convert_diasem+1,Lcd_Out@buffer+1
  5882  00E09A  0E02               	movlw	2
  5883  00E09C  EC49  F05D         	call	_Lcd_Out
  5884                           
  5885                           ;main.c: 329: Lcd_Out(2, 0, "");
  5886  00E0A0  0E00               	movlw	0
  5887  00E0A2  6E54               	movwf	Lcd_Out@x,c
  5888  00E0A4  0EF5               	movlw	low (STR_51+20)
  5889  00E0A6  6E55               	movwf	Lcd_Out@buffer,c
  5890  00E0A8  0EFD               	movlw	high (STR_51+20)
  5891  00E0AA  6E56               	movwf	Lcd_Out@buffer+1,c
  5892  00E0AC  0E02               	movlw	2
  5893  00E0AE  EC49  F05D         	call	_Lcd_Out
  5894                           
  5895                           ;main.c: 330: Lcd_Cmd(15);
  5896  00E0B2  0E0F               	movlw	15
  5897  00E0B4  EC20  F062         	call	_Lcd_Cmd
  5898                           
  5899                           ;main.c: 331: } else if (posicion == 2) {
  5900  00E0B8  D093               	goto	l5658
  5901  00E0BA                     l5618:
  5902  00E0BA  0E02               	movlw	2
  5903  00E0BC  0100               	movlb	0	; () banked
  5904  00E0BE  19A8               	xorwf	V_ProgReloj@posicion& (0+255),w,b
  5905  00E0C0  0100               	movlb	0	; () banked
  5906  00E0C2  11A9               	iorwf	(V_ProgReloj@posicion+1)& (0+255),w,b
  5907  00E0C4  A4D8               	btfss	status,2,c
  5908  00E0C6  D016               	goto	l5626
  5909                           
  5910                           ; BSR set to: 0
  5911                           ;main.c: 332: if (dia_tr > 1) {
  5912  00E0C8  0E01               	movlw	1
  5913  00E0CA  0100               	movlb	0	; () banked
  5914  00E0CC  65A2               	cpfsgt	V_ProgReloj@dia_tr& (0+255),b
  5915  00E0CE  D003               	goto	l5624
  5916                           
  5917                           ; BSR set to: 0
  5918                           ;main.c: 333: dia_tr--;
  5919  00E0D0  0100               	movlb	0	; () banked
  5920  00E0D2  07A2               	decf	V_ProgReloj@dia_tr& (0+255),f,b
  5921  00E0D4  D000               	goto	l5624
  5922  00E0D6                     l5624:
  5923                           
  5924                           ; BSR set to: 0
  5925                           ;main.c: 334: }
  5926                           ;main.c: 335: escribir(3,0, "%02u", dia_tr);
  5927  00E0D6  0E00               	movlw	0
  5928  00E0D8  0100               	movlb	0	; () banked
  5929  00E0DA  6F9C               	movwf	escribir@columna& (0+255),b
  5930  00E0DC  0EBE               	movlw	low (STR_25+10)
  5931  00E0DE  0100               	movlb	0	; () banked
  5932  00E0E0  6F9D               	movwf	escribir@formato& (0+255),b
  5933  00E0E2  0EFF               	movlw	high (STR_25+10)
  5934  00E0E4  0100               	movlb	0	; () banked
  5935  00E0E6  6F9E               	movwf	(escribir@formato+1)& (0+255),b
  5936  00E0E8  C0A2  F09F         	movff	V_ProgReloj@dia_tr,escribir@variable
  5937  00E0EC  0E03               	movlw	3
  5938  00E0EE  EC03  F05B         	call	_escribir
  5939                           
  5940                           ;main.c: 336: } else if (posicion == 4) {
  5941  00E0F2  D076               	goto	l5658
  5942  00E0F4                     l5626:
  5943  00E0F4  0E04               	movlw	4
  5944  00E0F6  0100               	movlb	0	; () banked
  5945  00E0F8  19A8               	xorwf	V_ProgReloj@posicion& (0+255),w,b
  5946  00E0FA  0100               	movlb	0	; () banked
  5947  00E0FC  11A9               	iorwf	(V_ProgReloj@posicion+1)& (0+255),w,b
  5948  00E0FE  A4D8               	btfss	status,2,c
  5949  00E100  D016               	goto	l5634
  5950                           
  5951                           ; BSR set to: 0
  5952                           ;main.c: 337: if (mes_tr > 1) {
  5953  00E102  0E01               	movlw	1
  5954  00E104  0100               	movlb	0	; () banked
  5955  00E106  65A3               	cpfsgt	V_ProgReloj@mes_tr& (0+255),b
  5956  00E108  D003               	goto	l5632
  5957                           
  5958                           ; BSR set to: 0
  5959                           ;main.c: 338: mes_tr--;
  5960  00E10A  0100               	movlb	0	; () banked
  5961  00E10C  07A3               	decf	V_ProgReloj@mes_tr& (0+255),f,b
  5962  00E10E  D000               	goto	l5632
  5963  00E110                     l5632:
  5964                           
  5965                           ; BSR set to: 0
  5966                           ;main.c: 339: }
  5967                           ;main.c: 340: escribir(3,3, "%02u", mes_tr);
  5968  00E110  0E03               	movlw	3
  5969  00E112  0100               	movlb	0	; () banked
  5970  00E114  6F9C               	movwf	escribir@columna& (0+255),b
  5971  00E116  0EBE               	movlw	low (STR_25+10)
  5972  00E118  0100               	movlb	0	; () banked
  5973  00E11A  6F9D               	movwf	escribir@formato& (0+255),b
  5974  00E11C  0EFF               	movlw	high (STR_25+10)
  5975  00E11E  0100               	movlb	0	; () banked
  5976  00E120  6F9E               	movwf	(escribir@formato+1)& (0+255),b
  5977  00E122  C0A3  F09F         	movff	V_ProgReloj@mes_tr,escribir@variable
  5978  00E126  0E03               	movlw	3
  5979  00E128  EC03  F05B         	call	_escribir
  5980                           
  5981                           ;main.c: 341: } else if (posicion == 6) {
  5982  00E12C  D059               	goto	l5658
  5983  00E12E                     l5634:
  5984  00E12E  0E06               	movlw	6
  5985  00E130  0100               	movlb	0	; () banked
  5986  00E132  19A8               	xorwf	V_ProgReloj@posicion& (0+255),w,b
  5987  00E134  0100               	movlb	0	; () banked
  5988  00E136  11A9               	iorwf	(V_ProgReloj@posicion+1)& (0+255),w,b
  5989  00E138  A4D8               	btfss	status,2,c
  5990  00E13A  D016               	goto	l5642
  5991                           
  5992                           ; BSR set to: 0
  5993                           ;main.c: 342: if (anio_tr > 20) {
  5994  00E13C  0E14               	movlw	20
  5995  00E13E  0100               	movlb	0	; () banked
  5996  00E140  65A4               	cpfsgt	V_ProgReloj@anio_tr& (0+255),b
  5997  00E142  D003               	goto	l5640
  5998                           
  5999                           ; BSR set to: 0
  6000                           ;main.c: 343: anio_tr--;
  6001  00E144  0100               	movlb	0	; () banked
  6002  00E146  07A4               	decf	V_ProgReloj@anio_tr& (0+255),f,b
  6003  00E148  D000               	goto	l5640
  6004  00E14A                     l5640:
  6005                           
  6006                           ; BSR set to: 0
  6007                           ;main.c: 344: }
  6008                           ;main.c: 345: escribir(3,6, "%02u", anio_tr);
  6009  00E14A  0E06               	movlw	6
  6010  00E14C  0100               	movlb	0	; () banked
  6011  00E14E  6F9C               	movwf	escribir@columna& (0+255),b
  6012  00E150  0EBE               	movlw	low (STR_25+10)
  6013  00E152  0100               	movlb	0	; () banked
  6014  00E154  6F9D               	movwf	escribir@formato& (0+255),b
  6015  00E156  0EFF               	movlw	high (STR_25+10)
  6016  00E158  0100               	movlb	0	; () banked
  6017  00E15A  6F9E               	movwf	(escribir@formato+1)& (0+255),b
  6018  00E15C  C0A4  F09F         	movff	V_ProgReloj@anio_tr,escribir@variable
  6019  00E160  0E03               	movlw	3
  6020  00E162  EC03  F05B         	call	_escribir
  6021                           
  6022                           ;main.c: 346: } else if (posicion == 8) {
  6023  00E166  D03C               	goto	l5658
  6024  00E168                     l5642:
  6025  00E168  0E08               	movlw	8
  6026  00E16A  0100               	movlb	0	; () banked
  6027  00E16C  19A8               	xorwf	V_ProgReloj@posicion& (0+255),w,b
  6028  00E16E  0100               	movlb	0	; () banked
  6029  00E170  11A9               	iorwf	(V_ProgReloj@posicion+1)& (0+255),w,b
  6030  00E172  A4D8               	btfss	status,2,c
  6031  00E174  D017               	goto	l5650
  6032                           
  6033                           ; BSR set to: 0
  6034                           ;main.c: 347: if (hora_tr > 0) {
  6035  00E176  0100               	movlb	0	; () banked
  6036  00E178  51A5               	movf	V_ProgReloj@hora_tr& (0+255),w,b
  6037  00E17A  0100               	movlb	0	; () banked
  6038  00E17C  B4D8               	btfsc	status,2,c
  6039  00E17E  D003               	goto	l5648
  6040                           
  6041                           ; BSR set to: 0
  6042                           ;main.c: 348: hora_tr--;
  6043  00E180  0100               	movlb	0	; () banked
  6044  00E182  07A5               	decf	V_ProgReloj@hora_tr& (0+255),f,b
  6045  00E184  D000               	goto	l5648
  6046  00E186                     l5648:
  6047                           
  6048                           ; BSR set to: 0
  6049                           ;main.c: 349: }
  6050                           ;main.c: 350: escribir(4,0, "%02u", hora_tr);
  6051  00E186  0E00               	movlw	0
  6052  00E188  0100               	movlb	0	; () banked
  6053  00E18A  6F9C               	movwf	escribir@columna& (0+255),b
  6054  00E18C  0EBE               	movlw	low (STR_25+10)
  6055  00E18E  0100               	movlb	0	; () banked
  6056  00E190  6F9D               	movwf	escribir@formato& (0+255),b
  6057  00E192  0EFF               	movlw	high (STR_25+10)
  6058  00E194  0100               	movlb	0	; () banked
  6059  00E196  6F9E               	movwf	(escribir@formato+1)& (0+255),b
  6060  00E198  C0A5  F09F         	movff	V_ProgReloj@hora_tr,escribir@variable
  6061  00E19C  0E04               	movlw	4
  6062  00E19E  EC03  F05B         	call	_escribir
  6063                           
  6064                           ;main.c: 351: } else if (posicion == 10) {
  6065  00E1A2  D01E               	goto	l5658
  6066  00E1A4                     l5650:
  6067  00E1A4  0E0A               	movlw	10
  6068  00E1A6  0100               	movlb	0	; () banked
  6069  00E1A8  19A8               	xorwf	V_ProgReloj@posicion& (0+255),w,b
  6070  00E1AA  0100               	movlb	0	; () banked
  6071  00E1AC  11A9               	iorwf	(V_ProgReloj@posicion+1)& (0+255),w,b
  6072  00E1AE  A4D8               	btfss	status,2,c
  6073  00E1B0  D017               	goto	l5658
  6074                           
  6075                           ; BSR set to: 0
  6076                           ;main.c: 352: if (minuto_tr > 0) {
  6077  00E1B2  0100               	movlb	0	; () banked
  6078  00E1B4  51A6               	movf	V_ProgReloj@minuto_tr& (0+255),w,b
  6079  00E1B6  0100               	movlb	0	; () banked
  6080  00E1B8  B4D8               	btfsc	status,2,c
  6081  00E1BA  D003               	goto	l5656
  6082                           
  6083                           ; BSR set to: 0
  6084                           ;main.c: 353: minuto_tr--;
  6085  00E1BC  0100               	movlb	0	; () banked
  6086  00E1BE  07A6               	decf	V_ProgReloj@minuto_tr& (0+255),f,b
  6087  00E1C0  D000               	goto	l5656
  6088  00E1C2                     l5656:
  6089                           
  6090                           ; BSR set to: 0
  6091                           ;main.c: 354: }
  6092                           ;main.c: 355: escribir(4,3, "%02u", minuto_tr);
  6093  00E1C2  0E03               	movlw	3
  6094  00E1C4  0100               	movlb	0	; () banked
  6095  00E1C6  6F9C               	movwf	escribir@columna& (0+255),b
  6096  00E1C8  0EBE               	movlw	low (STR_25+10)
  6097  00E1CA  0100               	movlb	0	; () banked
  6098  00E1CC  6F9D               	movwf	escribir@formato& (0+255),b
  6099  00E1CE  0EFF               	movlw	high (STR_25+10)
  6100  00E1D0  0100               	movlb	0	; () banked
  6101  00E1D2  6F9E               	movwf	(escribir@formato+1)& (0+255),b
  6102  00E1D4  C0A6  F09F         	movff	V_ProgReloj@minuto_tr,escribir@variable
  6103  00E1D8  0E04               	movlw	4
  6104  00E1DA  EC03  F05B         	call	_escribir
  6105  00E1DE  D000               	goto	l5658
  6106  00E1E0                     l5658:
  6107                           
  6108                           ;main.c: 356: }
  6109                           ;main.c: 357: }
  6110                           ;main.c: 359: if (Sw_Center = PORTAbits.RA5 == 0) {
  6111  00E1E0  BA80               	btfsc	3968,5,c	;volatile
  6112  00E1E2  D002               	goto	u6820
  6113  00E1E4  0E01               	movlw	1
  6114  00E1E6  D001               	goto	u6830
  6115  00E1E8                     u6820:
  6116  00E1E8  0E00               	movlw	0
  6117  00E1EA                     u6830:
  6118  00E1EA  0100               	movlb	0	; () banked
  6119  00E1EC  6FB7               	movwf	_Sw_Center& (0+255),b
  6120  00E1EE  0100               	movlb	0	; () banked
  6121  00E1F0  51B7               	movf	_Sw_Center& (0+255),w,b
  6122  00E1F2  B4D8               	btfsc	status,2,c
  6123  00E1F4  D01A               	goto	l5664
  6124                           
  6125                           ; BSR set to: 0
  6126                           ;main.c: 360: diasem = diasem_tr;
  6127  00E1F6  C0A7  F0AE         	movff	V_ProgReloj@diasem_tr,_diasem
  6128  00E1FA  0100               	movlb	0	; () banked
  6129  00E1FC  6BAF               	clrf	(_diasem+1)& (0+255),b
  6130                           
  6131                           ;main.c: 361: dia = dia_tr;
  6132  00E1FE  C0A2  F0E4         	movff	V_ProgReloj@dia_tr,_dia
  6133  00E202  0100               	movlb	0	; () banked
  6134  00E204  6BE5               	clrf	(_dia+1)& (0+255),b
  6135                           
  6136                           ;main.c: 362: mes = mes_tr;
  6137  00E206  C0A3  F0E6         	movff	V_ProgReloj@mes_tr,_mes
  6138  00E20A  0100               	movlb	0	; () banked
  6139  00E20C  6BE7               	clrf	(_mes+1)& (0+255),b
  6140                           
  6141                           ;main.c: 363: anio = anio_tr;
  6142  00E20E  C0A4  F0E2         	movff	V_ProgReloj@anio_tr,_anio
  6143  00E212  0100               	movlb	0	; () banked
  6144  00E214  6BE3               	clrf	(_anio+1)& (0+255),b
  6145                           
  6146                           ;main.c: 364: hora = hora_tr;
  6147  00E216  C0A5  F05E         	movff	V_ProgReloj@hora_tr,_hora
  6148  00E21A  6A5F               	clrf	_hora+1,c
  6149                           
  6150                           ;main.c: 365: minuto = minuto_tr;
  6151  00E21C  C0A6  F0E8         	movff	V_ProgReloj@minuto_tr,_minuto
  6152  00E220  0100               	movlb	0	; () banked
  6153  00E222  6BE9               	clrf	(_minuto+1)& (0+255),b
  6154                           
  6155                           ; BSR set to: 0
  6156                           ;main.c: 366: Write_RTC();
  6157  00E224  EC1A  F067         	call	_Write_RTC	;wreg free
  6158                           
  6159                           ;main.c: 367: break;
  6160  00E228  D00B               	goto	l5668
  6161  00E22A                     l5664:
  6162  00E22A  0100               	movlb	0	; () banked
  6163  00E22C  4BB0               	infsnz	_i& (0+255),f,b
  6164  00E22E  2BB1               	incf	(_i+1)& (0+255),f,b
  6165                           
  6166                           ; BSR set to: 0
  6167  00E230  0100               	movlb	0	; () banked
  6168  00E232  BFB1               	btfsc	(_i+1)& (0+255),7,b
  6169  00E234  D597               	goto	l5518
  6170  00E236  0100               	movlb	0	; () banked
  6171  00E238  51B1               	movf	(_i+1)& (0+255),w,b
  6172  00E23A  E102               	bnz	l5668
  6173  00E23C  D58C               	goto	L4
  6174  00E23E  D000               	goto	l5668
  6175  00E240                     l5668:
  6176                           
  6177                           ;main.c: 368: }
  6178                           ;main.c: 369: }
  6179                           ;main.c: 370: Lcd_Cmd(12);
  6180  00E240  0E0C               	movlw	12
  6181  00E242  EC20  F062         	call	_Lcd_Cmd
  6182  00E246  0012               	return		;funcret
  6183  00E248                     __end_of_V_ProgReloj:
  6184                           	opt stack 0
  6185                           tblptru	equ	0xFF8
  6186                           tblptrh	equ	0xFF7
  6187                           tblptrl	equ	0xFF6
  6188                           tablat	equ	0xFF5
  6189                           postinc0	equ	0xFEE
  6190                           wreg	equ	0xFE8
  6191                           postdec1	equ	0xFE5
  6192                           fsr1l	equ	0xFE1
  6193                           indf2	equ	0xFDF
  6194                           fsr2h	equ	0xFDA
  6195                           fsr2l	equ	0xFD9
  6196                           status	equ	0xFD8
  6197                           
  6198 ;; *************** function _escribir *****************
  6199 ;; Defined at:
  6200 ;;		line 823 in file "../main.c"
  6201 ;; Parameters:    Size  Location     Type
  6202 ;;  fila            1    wreg     unsigned char 
  6203 ;;  columna         1   60[BANK0 ] unsigned char 
  6204 ;;  formato         2   61[BANK0 ] PTR unsigned char 
  6205 ;;		 -> STR_48(5), STR_47(5), STR_46(5), STR_45(5), 
  6206 ;;		 -> STR_44(5), STR_43(5), STR_42(5), STR_41(5), 
  6207 ;;		 -> STR_38(5), STR_37(5), STR_36(5), STR_35(5), 
  6208 ;;		 -> STR_34(5), STR_33(5), STR_32(5), STR_31(5), 
  6209 ;;		 -> STR_23(5), STR_22(5), STR_21(5), STR_20(5), 
  6210 ;;		 -> STR_19(5), STR_15(5), STR_14(5), STR_13(5), 
  6211 ;;		 -> STR_12(5), STR_11(5), 
  6212 ;;  variable        1   63[BANK0 ] unsigned char 
  6213 ;; Auto vars:     Size  Location     Type
  6214 ;;  fila            1   88[COMRAM] unsigned char 
  6215 ;; Return value:  Size  Location     Type
  6216 ;;		None               void
  6217 ;; Registers used:
  6218 ;;		wreg, fsr0l, fsr0h, fsr2l, fsr2h, status,2, status,0, tblptrl, tblptrh, tblptru, prodl, prodh, cstack
  6219 ;; Tracked objects:
  6220 ;;		On entry : 0/0
  6221 ;;		On exit  : 0/0
  6222 ;;		Unchanged: 0/0
  6223 ;; Data sizes:     COMRAM   BANK0   BANK1   BANK2   BANK3   BANK4   BANK5   BANK6   BANK7   BANK8   BANK9  BANK10  BANK1
      +1  BANK12  BANK13  BANK14
  6224 ;;      Params:         0       4       0       0       0       0       0       0       0       0       0       0       
      +0       0       0       0
  6225 ;;      Locals:         1       0       0       0       0       0       0       0       0       0       0       0       
      +0       0       0       0
  6226 ;;      Temps:          0       0       0       0       0       0       0       0       0       0       0       0       
      +0       0       0       0
  6227 ;;      Totals:         1       4       0       0       0       0       0       0       0       0       0       0       
      +0       0       0       0
  6228 ;;Total ram usage:        5 bytes
  6229 ;; Hardware stack levels used:    1
  6230 ;; Hardware stack levels required when called:    4
  6231 ;; This function calls:
  6232 ;;		_Lcd_Cmd
  6233 ;;		_Lcd_Out
  6234 ;;		_sprintf
  6235 ;; This function is called by:
  6236 ;;		_V_ProgReloj
  6237 ;;		_V_ProgRiegoIlum
  6238 ;; This function uses a non-reentrant model
  6239 ;;
  6240                           
  6241                           	psect	text12
  6242  00B606                     __ptext12:
  6243                           	opt stack 0
  6244  00B606                     _escribir:
  6245                           	opt stack 25
  6246                           
  6247                           ;incstack = 0
  6248                           ;escribir@fila stored from wreg
  6249  00B606  6E59               	movwf	escribir@fila,c
  6250                           
  6251                           ;main.c: 825: Lcd_Cmd(12);
  6252  00B608  0E0C               	movlw	12
  6253  00B60A  EC20  F062         	call	_Lcd_Cmd
  6254                           
  6255                           ;main.c: 826: sprintf(buffer1, formato , variable);
  6256  00B60E  0EC0               	movlw	low _buffer1
  6257  00B610  6E40               	movwf	sprintf@sp,c
  6258  00B612  0E00               	movlw	high _buffer1
  6259  00B614  6E41               	movwf	sprintf@sp+1,c
  6260  00B616  C09D  F042         	movff	escribir@formato,sprintf@f
  6261  00B61A  C09E  F043         	movff	escribir@formato+1,sprintf@f+1
  6262  00B61E  C09F  F044         	movff	escribir@variable,?_sprintf+4
  6263  00B622  6A45               	clrf	?_sprintf+5,c
  6264  00B624  EC87  F074         	call	_sprintf	;wreg free
  6265                           
  6266                           ;main.c: 827: Lcd_Out(fila, columna, buffer1);
  6267  00B628  C09C  F054         	movff	escribir@columna,Lcd_Out@x
  6268  00B62C  0EC0               	movlw	low _buffer1
  6269  00B62E  6E55               	movwf	Lcd_Out@buffer,c
  6270  00B630  0E00               	movlw	high _buffer1
  6271  00B632  6E56               	movwf	Lcd_Out@buffer+1,c
  6272  00B634  5059               	movf	escribir@fila,w,c
  6273  00B636  EC49  F05D         	call	_Lcd_Out
  6274                           
  6275                           ;main.c: 828: Lcd_Out(fila, columna, "");
  6276  00B63A  C09C  F054         	movff	escribir@columna,Lcd_Out@x
  6277  00B63E  0EF5               	movlw	low (STR_51+20)
  6278  00B640  6E55               	movwf	Lcd_Out@buffer,c
  6279  00B642  0EFD               	movlw	high (STR_51+20)
  6280  00B644  6E56               	movwf	Lcd_Out@buffer+1,c
  6281  00B646  5059               	movf	escribir@fila,w,c
  6282  00B648  EC49  F05D         	call	_Lcd_Out
  6283                           
  6284                           ;main.c: 829: Lcd_Cmd(15);
  6285  00B64C  0E0F               	movlw	15
  6286  00B64E  EC20  F062         	call	_Lcd_Cmd
  6287  00B652  0012               	return		;funcret
  6288  00B654                     __end_of_escribir:
  6289                           	opt stack 0
  6290                           tblptru	equ	0xFF8
  6291                           tblptrh	equ	0xFF7
  6292                           tblptrl	equ	0xFF6
  6293                           tablat	equ	0xFF5
  6294                           postinc0	equ	0xFEE
  6295                           wreg	equ	0xFE8
  6296                           postdec1	equ	0xFE5
  6297                           fsr1l	equ	0xFE1
  6298                           indf2	equ	0xFDF
  6299                           fsr2h	equ	0xFDA
  6300                           fsr2l	equ	0xFD9
  6301                           status	equ	0xFD8
  6302                           
  6303 ;; *************** function _Write_RTC *****************
  6304 ;; Defined at:
  6305 ;;		line 650 in file "../main.c"
  6306 ;; Parameters:    Size  Location     Type
  6307 ;;		None
  6308 ;; Auto vars:     Size  Location     Type
  6309 ;;		None
  6310 ;; Return value:  Size  Location     Type
  6311 ;;		None               void
  6312 ;; Registers used:
  6313 ;;		wreg, fsr2l, fsr2h, status,2, status,0, prodl, prodh, cstack
  6314 ;; Tracked objects:
  6315 ;;		On entry : 0/0
  6316 ;;		On exit  : 0/0
  6317 ;;		Unchanged: 0/0
  6318 ;; Data sizes:     COMRAM   BANK0   BANK1   BANK2   BANK3   BANK4   BANK5   BANK6   BANK7   BANK8   BANK9  BANK10  BANK1
      +1  BANK12  BANK13  BANK14
  6319 ;;      Params:         0       0       0       0       0       0       0       0       0       0       0       0       
      +0       0       0       0
  6320 ;;      Locals:         0       0       0       0       0       0       0       0       0       0       0       0       
      +0       0       0       0
  6321 ;;      Temps:          0       0       0       0       0       0       0       0       0       0       0       0       
      +0       0       0       0
  6322 ;;      Totals:         0       0       0       0       0       0       0       0       0       0       0       0       
      +0       0       0       0
  6323 ;;Total ram usage:        0 bytes
  6324 ;; Hardware stack levels used:    1
  6325 ;; Hardware stack levels required when called:    2
  6326 ;; This function calls:
  6327 ;;		_RtccWrOn
  6328 ;;		_RtccWriteDate
  6329 ;;		_RtccWriteTime
  6330 ;;		___awdiv
  6331 ;; This function is called by:
  6332 ;;		_main
  6333 ;;		_V_ProgReloj
  6334 ;;		_V_Reiniciar
  6335 ;; This function uses a non-reentrant model
  6336 ;;
  6337                           
  6338                           	psect	text13
  6339  00CE34                     __ptext13:
  6340                           	opt stack 0
  6341  00CE34                     _Write_RTC:
  6342                           	opt stack 28
  6343                           
  6344                           ;main.c: 651: RtccWrOn();
  6345                           
  6346                           ;incstack = 0
  6347  00CE34  EC3A  F05A         	call	_RtccWrOn	;wreg free
  6348                           
  6349                           ;main.c: 653: PIE3bits.RTCCIE = 1;
  6350  00CE38  80A3               	bsf	4003,0,c	;volatile
  6351                           
  6352                           ;main.c: 654: segundo_d = segundo / 10;
  6353  00CE3A  C0B2  F007         	movff	_segundo,___awdiv@dividend
  6354  00CE3E  C0B3  F008         	movff	_segundo+1,___awdiv@dividend+1
  6355  00CE42  0E00               	movlw	0
  6356  00CE44  6E0A               	movwf	___awdiv@divisor+1,c
  6357  00CE46  0E0A               	movlw	10
  6358  00CE48  6E09               	movwf	___awdiv@divisor,c
  6359  00CE4A  ECDE  F05D         	call	___awdiv	;wreg free
  6360  00CE4E  5007               	movf	?___awdiv,w,c
  6361  00CE50  0100               	movlb	0	; () banked
  6362  00CE52  6FFA               	movwf	_segundo_d& (0+255),b
  6363                           
  6364                           ; BSR set to: 0
  6365                           ;main.c: 655: segundo_u = segundo - segundo_d * 10;
  6366  00CE54  0100               	movlb	0	; () banked
  6367  00CE56  51FA               	movf	_segundo_d& (0+255),w,b
  6368  00CE58  0D0A               	mullw	10
  6369  00CE5A  50F3               	movf	prodl,w,c
  6370  00CE5C  0800               	sublw	0
  6371  00CE5E  0100               	movlb	0	; () banked
  6372  00CE60  25B2               	addwf	_segundo& (0+255),w,b
  6373  00CE62  0100               	movlb	0	; () banked
  6374  00CE64  6FFB               	movwf	_segundo_u& (0+255),b
  6375                           
  6376                           ; BSR set to: 0
  6377                           ;main.c: 656: RtccTime.f.sec = segundo_d * 16 + segundo_u;
  6378  00CE66  0100               	movlb	0	; () banked
  6379  00CE68  51FA               	movf	_segundo_d& (0+255),w,b
  6380  00CE6A  0D10               	mullw	16
  6381  00CE6C  50F3               	movf	prodl,w,c
  6382  00CE6E  0100               	movlb	0	; () banked
  6383  00CE70  25FB               	addwf	_segundo_u& (0+255),w,b
  6384  00CE72  0100               	movlb	0	; () banked
  6385  00CE74  6FD9               	movwf	(_RtccTime+1)& (0+255),b
  6386                           
  6387                           ; BSR set to: 0
  6388                           ;main.c: 657: minuto_d = minuto / 10;
  6389  00CE76  C0E8  F007         	movff	_minuto,___awdiv@dividend
  6390  00CE7A  C0E9  F008         	movff	_minuto+1,___awdiv@dividend+1
  6391  00CE7E  0E00               	movlw	0
  6392  00CE80  6E0A               	movwf	___awdiv@divisor+1,c
  6393  00CE82  0E0A               	movlw	10
  6394  00CE84  6E09               	movwf	___awdiv@divisor,c
  6395  00CE86  ECDE  F05D         	call	___awdiv	;wreg free
  6396  00CE8A  5007               	movf	?___awdiv,w,c
  6397  00CE8C  0100               	movlb	0	; () banked
  6398  00CE8E  6FF8               	movwf	_minuto_d& (0+255),b
  6399                           
  6400                           ; BSR set to: 0
  6401                           ;main.c: 658: minuto_u = minuto - minuto_d * 10;
  6402  00CE90  0100               	movlb	0	; () banked
  6403  00CE92  51F8               	movf	_minuto_d& (0+255),w,b
  6404  00CE94  0D0A               	mullw	10
  6405  00CE96  50F3               	movf	prodl,w,c
  6406  00CE98  0800               	sublw	0
  6407  00CE9A  0100               	movlb	0	; () banked
  6408  00CE9C  25E8               	addwf	_minuto& (0+255),w,b
  6409  00CE9E  0100               	movlb	0	; () banked
  6410  00CEA0  6FF9               	movwf	_minuto_u& (0+255),b
  6411                           
  6412                           ; BSR set to: 0
  6413                           ;main.c: 659: RtccTime.f.min = minuto_d * 16 + minuto_u;
  6414  00CEA2  0100               	movlb	0	; () banked
  6415  00CEA4  51F8               	movf	_minuto_d& (0+255),w,b
  6416  00CEA6  0D10               	mullw	16
  6417  00CEA8  50F3               	movf	prodl,w,c
  6418  00CEAA  0100               	movlb	0	; () banked
  6419  00CEAC  25F9               	addwf	_minuto_u& (0+255),w,b
  6420  00CEAE  0100               	movlb	0	; () banked
  6421  00CEB0  6FDA               	movwf	(_RtccTime+2)& (0+255),b
  6422                           
  6423                           ; BSR set to: 0
  6424                           ;main.c: 660: hora_d = hora / 10;
  6425  00CEB2  C05E  F007         	movff	_hora,___awdiv@dividend
  6426  00CEB6  C05F  F008         	movff	_hora+1,___awdiv@dividend+1
  6427  00CEBA  0E00               	movlw	0
  6428  00CEBC  6E0A               	movwf	___awdiv@divisor+1,c
  6429  00CEBE  0E0A               	movlw	10
  6430  00CEC0  6E09               	movwf	___awdiv@divisor,c
  6431  00CEC2  ECDE  F05D         	call	___awdiv	;wreg free
  6432  00CEC6  5007               	movf	?___awdiv,w,c
  6433  00CEC8  0100               	movlb	0	; () banked
  6434  00CECA  6FF4               	movwf	_hora_d& (0+255),b
  6435                           
  6436                           ; BSR set to: 0
  6437                           ;main.c: 661: hora_u = hora - hora_d * 10;
  6438  00CECC  0100               	movlb	0	; () banked
  6439  00CECE  51F4               	movf	_hora_d& (0+255),w,b
  6440  00CED0  0D0A               	mullw	10
  6441  00CED2  50F3               	movf	prodl,w,c
  6442  00CED4  0800               	sublw	0
  6443  00CED6  245E               	addwf	_hora,w,c
  6444  00CED8  0100               	movlb	0	; () banked
  6445  00CEDA  6FF5               	movwf	_hora_u& (0+255),b
  6446                           
  6447                           ; BSR set to: 0
  6448                           ;main.c: 662: RtccTime.f.hour = hora_d * 16 + hora_u;
  6449  00CEDC  0100               	movlb	0	; () banked
  6450  00CEDE  51F4               	movf	_hora_d& (0+255),w,b
  6451  00CEE0  0D10               	mullw	16
  6452  00CEE2  50F3               	movf	prodl,w,c
  6453  00CEE4  0100               	movlb	0	; () banked
  6454  00CEE6  25F5               	addwf	_hora_u& (0+255),w,b
  6455  00CEE8  0100               	movlb	0	; () banked
  6456  00CEEA  6FDB               	movwf	(_RtccTime+3)& (0+255),b
  6457                           
  6458                           ; BSR set to: 0
  6459                           ;main.c: 663: anio_d = anio / 10;
  6460  00CEEC  C0E2  F007         	movff	_anio,___awdiv@dividend
  6461  00CEF0  C0E3  F008         	movff	_anio+1,___awdiv@dividend+1
  6462  00CEF4  0E00               	movlw	0
  6463  00CEF6  6E0A               	movwf	___awdiv@divisor+1,c
  6464  00CEF8  0E0A               	movlw	10
  6465  00CEFA  6E09               	movwf	___awdiv@divisor,c
  6466  00CEFC  ECDE  F05D         	call	___awdiv	;wreg free
  6467  00CF00  5007               	movf	?___awdiv,w,c
  6468  00CF02  0100               	movlb	0	; () banked
  6469  00CF04  6FEF               	movwf	_anio_d& (0+255),b
  6470                           
  6471                           ; BSR set to: 0
  6472                           ;main.c: 664: anio_u = anio - anio_d * 10;
  6473  00CF06  0100               	movlb	0	; () banked
  6474  00CF08  51EF               	movf	_anio_d& (0+255),w,b
  6475  00CF0A  0D0A               	mullw	10
  6476  00CF0C  50F3               	movf	prodl,w,c
  6477  00CF0E  0800               	sublw	0
  6478  00CF10  0100               	movlb	0	; () banked
  6479  00CF12  25E2               	addwf	_anio& (0+255),w,b
  6480  00CF14  0100               	movlb	0	; () banked
  6481  00CF16  6FF0               	movwf	_anio_u& (0+255),b
  6482                           
  6483                           ; BSR set to: 0
  6484                           ;main.c: 665: RtccDate.f.year = anio_d * 16 + anio_u;
  6485  00CF18  0100               	movlb	0	; () banked
  6486  00CF1A  51EF               	movf	_anio_d& (0+255),w,b
  6487  00CF1C  0D10               	mullw	16
  6488  00CF1E  50F3               	movf	prodl,w,c
  6489  00CF20  0100               	movlb	0	; () banked
  6490  00CF22  25F0               	addwf	_anio_u& (0+255),w,b
  6491  00CF24  0100               	movlb	0	; () banked
  6492  00CF26  6FD7               	movwf	(_RtccDate+3)& (0+255),b
  6493                           
  6494                           ; BSR set to: 0
  6495                           ;main.c: 666: mes_d = mes / 10;
  6496  00CF28  C0E6  F007         	movff	_mes,___awdiv@dividend
  6497  00CF2C  C0E7  F008         	movff	_mes+1,___awdiv@dividend+1
  6498  00CF30  0E00               	movlw	0
  6499  00CF32  6E0A               	movwf	___awdiv@divisor+1,c
  6500  00CF34  0E0A               	movlw	10
  6501  00CF36  6E09               	movwf	___awdiv@divisor,c
  6502  00CF38  ECDE  F05D         	call	___awdiv	;wreg free
  6503  00CF3C  5007               	movf	?___awdiv,w,c
  6504  00CF3E  0100               	movlb	0	; () banked
  6505  00CF40  6FF6               	movwf	_mes_d& (0+255),b
  6506                           
  6507                           ; BSR set to: 0
  6508                           ;main.c: 667: mes_u = mes - mes_d * 10;
  6509  00CF42  0100               	movlb	0	; () banked
  6510  00CF44  51F6               	movf	_mes_d& (0+255),w,b
  6511  00CF46  0D0A               	mullw	10
  6512  00CF48  50F3               	movf	prodl,w,c
  6513  00CF4A  0800               	sublw	0
  6514  00CF4C  0100               	movlb	0	; () banked
  6515  00CF4E  25E6               	addwf	_mes& (0+255),w,b
  6516  00CF50  0100               	movlb	0	; () banked
  6517  00CF52  6FF7               	movwf	_mes_u& (0+255),b
  6518                           
  6519                           ; BSR set to: 0
  6520                           ;main.c: 668: RtccDate.f.mon = mes_d * 16 + mes_u;
  6521  00CF54  0100               	movlb	0	; () banked
  6522  00CF56  51F6               	movf	_mes_d& (0+255),w,b
  6523  00CF58  0D10               	mullw	16
  6524  00CF5A  50F3               	movf	prodl,w,c
  6525  00CF5C  0100               	movlb	0	; () banked
  6526  00CF5E  25F7               	addwf	_mes_u& (0+255),w,b
  6527  00CF60  0100               	movlb	0	; () banked
  6528  00CF62  6FD6               	movwf	(_RtccDate+2)& (0+255),b
  6529                           
  6530                           ; BSR set to: 0
  6531                           ;main.c: 669: fecha_d = dia / 10;
  6532  00CF64  C0E4  F007         	movff	_dia,___awdiv@dividend
  6533  00CF68  C0E5  F008         	movff	_dia+1,___awdiv@dividend+1
  6534  00CF6C  0E00               	movlw	0
  6535  00CF6E  6E0A               	movwf	___awdiv@divisor+1,c
  6536  00CF70  0E0A               	movlw	10
  6537  00CF72  6E09               	movwf	___awdiv@divisor,c
  6538  00CF74  ECDE  F05D         	call	___awdiv	;wreg free
  6539  00CF78  5007               	movf	?___awdiv,w,c
  6540  00CF7A  0100               	movlb	0	; () banked
  6541  00CF7C  6FF2               	movwf	_fecha_d& (0+255),b
  6542                           
  6543                           ; BSR set to: 0
  6544                           ;main.c: 670: fecha_u = dia - fecha_d * 10;
  6545  00CF7E  0100               	movlb	0	; () banked
  6546  00CF80  51F2               	movf	_fecha_d& (0+255),w,b
  6547  00CF82  0D0A               	mullw	10
  6548  00CF84  50F3               	movf	prodl,w,c
  6549  00CF86  0800               	sublw	0
  6550  00CF88  0100               	movlb	0	; () banked
  6551  00CF8A  25E4               	addwf	_dia& (0+255),w,b
  6552  00CF8C  0100               	movlb	0	; () banked
  6553  00CF8E  6FF3               	movwf	_fecha_u& (0+255),b
  6554                           
  6555                           ; BSR set to: 0
  6556                           ;main.c: 671: RtccDate.f.mday = fecha_d * 16 + fecha_u;
  6557  00CF90  0100               	movlb	0	; () banked
  6558  00CF92  51F2               	movf	_fecha_d& (0+255),w,b
  6559  00CF94  0D10               	mullw	16
  6560  00CF96  50F3               	movf	prodl,w,c
  6561  00CF98  0100               	movlb	0	; () banked
  6562  00CF9A  25F3               	addwf	_fecha_u& (0+255),w,b
  6563  00CF9C  0100               	movlb	0	; () banked
  6564  00CF9E  6FD5               	movwf	(_RtccDate+1)& (0+255),b
  6565                           
  6566                           ; BSR set to: 0
  6567                           ;main.c: 672: dia_semana = diasem;
  6568  00CFA0  C0AE  F0F1         	movff	_diasem,_dia_semana
  6569                           
  6570                           ; BSR set to: 0
  6571                           ;main.c: 673: RtccDate.f.wday = diasem;
  6572  00CFA4  C0AE  F0D4         	movff	_diasem,_RtccDate
  6573                           
  6574                           ; BSR set to: 0
  6575                           ;main.c: 675: RtccWriteTime(&RtccTime, 1);
  6576  00CFA8  0ED8               	movlw	low _RtccTime
  6577  00CFAA  6E01               	movwf	RtccWriteTime@pTm,c
  6578  00CFAC  0E00               	movlw	high _RtccTime
  6579  00CFAE  6E02               	movwf	RtccWriteTime@pTm+1,c
  6580  00CFB0  0E01               	movlw	1
  6581  00CFB2  6E03               	movwf	RtccWriteTime@di,c
  6582  00CFB4  EC7E  F060         	call	_RtccWriteTime	;wreg free
  6583                           
  6584                           ;main.c: 676: RtccWriteDate(&RtccDate, 1);
  6585  00CFB8  0ED4               	movlw	low _RtccDate
  6586  00CFBA  6E01               	movwf	RtccWriteDate@pDt,c
  6587  00CFBC  0E00               	movlw	high _RtccDate
  6588  00CFBE  6E02               	movwf	RtccWriteDate@pDt+1,c
  6589  00CFC0  0E01               	movlw	1
  6590  00CFC2  6E03               	movwf	RtccWriteDate@di,c
  6591  00CFC4  EC1C  F065         	call	_RtccWriteDate	;wreg free
  6592                           
  6593                           ;main.c: 677: (RTCCFGbits.RTCEN=1);
  6594  00CFC8  010F               	movlb	15	; () banked
  6595  00CFCA  8F3F               	bsf	63,7,b	;volatile
  6596                           
  6597                           ; BSR set to: 15
  6598  00CFCC  0012               	return		;funcret
  6599  00CFCE                     __end_of_Write_RTC:
  6600                           	opt stack 0
  6601                           tblptru	equ	0xFF8
  6602                           tblptrh	equ	0xFF7
  6603                           tblptrl	equ	0xFF6
  6604                           tablat	equ	0xFF5
  6605                           prodl	equ	0xFF3
  6606                           postinc0	equ	0xFEE
  6607                           wreg	equ	0xFE8
  6608                           postdec1	equ	0xFE5
  6609                           fsr1l	equ	0xFE1
  6610                           indf2	equ	0xFDF
  6611                           fsr2h	equ	0xFDA
  6612                           fsr2l	equ	0xFD9
  6613                           status	equ	0xFD8
  6614                           
  6615 ;; *************** function _RtccWriteTime *****************
  6616 ;; Defined at:
  6617 ;;		line 34 in file "C:\Program Files (x86)\Microchip\xc8\v1.34\sources\pic18\plib\rtcc\RtccWriteTime.c"
  6618 ;; Parameters:    Size  Location     Type
  6619 ;;  pTm             2    0[COMRAM] PTR const struct .
  6620 ;;		 -> RtccTime(4), 
  6621 ;;  di              1    2[COMRAM] enum E7121
  6622 ;; Auto vars:     Size  Location     Type
  6623 ;;  tempHourWDay    2    9[COMRAM] struct .
  6624 ;;  tempMinSec      2    7[COMRAM] struct .
  6625 ;;  wasWrEn         1    6[COMRAM] enum E7121
  6626 ;;  wasAlrm         1    5[COMRAM] enum E7121
  6627 ;;  wasOn           1    4[COMRAM] enum E7121
  6628 ;; Return value:  Size  Location     Type
  6629 ;;                  1    wreg      enum E7337
  6630 ;; Registers used:
  6631 ;;		wreg, fsr2l, fsr2h, status,2, status,0, cstack
  6632 ;; Tracked objects:
  6633 ;;		On entry : 0/0
  6634 ;;		On exit  : 0/0
  6635 ;;		Unchanged: 0/0
  6636 ;; Data sizes:     COMRAM   BANK0   BANK1   BANK2   BANK3   BANK4   BANK5   BANK6   BANK7   BANK8   BANK9  BANK10  BANK1
      +1  BANK12  BANK13  BANK14
  6637 ;;      Params:         3       0       0       0       0       0       0       0       0       0       0       0       
      +0       0       0       0
  6638 ;;      Locals:         7       0       0       0       0       0       0       0       0       0       0       0       
      +0       0       0       0
  6639 ;;      Temps:          1       0       0       0       0       0       0       0       0       0       0       0       
      +0       0       0       0
  6640 ;;      Totals:        11       0       0       0       0       0       0       0       0       0       0       0       
      +0       0       0       0
  6641 ;;Total ram usage:       11 bytes
  6642 ;; Hardware stack levels used:    1
  6643 ;; Hardware stack levels required when called:    1
  6644 ;; This function calls:
  6645 ;;		_RtccWrOn
  6646 ;; This function is called by:
  6647 ;;		_Write_RTC
  6648 ;; This function uses a non-reentrant model
  6649 ;;
  6650                           
  6651                           	psect	text14
  6652  00C0FC                     __ptext14:
  6653                           	opt stack 0
  6654  00C0FC                     _RtccWriteTime:
  6655                           	opt stack 28
  6656                           
  6657                           ; BSR set to: 15
  6658                           ;incstack = 0
  6659  00C0FC  0E00               	movlw	0
  6660  00C0FE  6E06               	movwf	RtccWriteTime@wasAlrm,c
  6661  00C100  EE20 F002          	lfsr	2,2
  6662  00C104  5001               	movf	RtccWriteTime@pTm,w,c
  6663  00C106  26D9               	addwf	fsr2l,f,c
  6664  00C108  5002               	movf	RtccWriteTime@pTm+1,w,c
  6665  00C10A  22DA               	addwfc	fsr2h,f,c
  6666  00C10C  0E5A               	movlw	90
  6667  00C10E  60DF               	cpfslt	indf2,c
  6668  00C110  0012               	return	
  6669  00C112  EE20 F001          	lfsr	2,1
  6670  00C116  5001               	movf	RtccWriteTime@pTm,w,c
  6671  00C118  26D9               	addwf	fsr2l,f,c
  6672  00C11A  5002               	movf	RtccWriteTime@pTm+1,w,c
  6673  00C11C  22DA               	addwfc	fsr2h,f,c
  6674  00C11E  0E5A               	movlw	90
  6675  00C120  60DF               	cpfslt	indf2,c
  6676  00C122  0012               	return	
  6677  00C124  EE20 F003          	lfsr	2,3
  6678  00C128  5001               	movf	RtccWriteTime@pTm,w,c
  6679  00C12A  26D9               	addwf	fsr2l,f,c
  6680  00C12C  5002               	movf	RtccWriteTime@pTm+1,w,c
  6681  00C12E  22DA               	addwfc	fsr2h,f,c
  6682  00C130  0E24               	movlw	36
  6683  00C132  64DF               	cpfsgt	indf2,c
  6684  00C134  D002               	goto	l4968
  6685  00C136  0012               	return	
  6686                           
  6687                           ;	Return value of _RtccWriteTime is never used
  6688  00C138  0012               	return	
  6689  00C13A                     l4968:
  6690  00C13A  EE20 F002          	lfsr	2,2
  6691  00C13E  5001               	movf	RtccWriteTime@pTm,w,c
  6692  00C140  26D9               	addwf	fsr2l,f,c
  6693  00C142  5002               	movf	RtccWriteTime@pTm+1,w,c
  6694  00C144  22DA               	addwfc	fsr2h,f,c
  6695  00C146  50DF               	movf	indf2,w,c
  6696  00C148  6E09               	movwf	RtccWriteTime@tempMinSec+1,c
  6697  00C14A  EE20 F001          	lfsr	2,1
  6698  00C14E  5001               	movf	RtccWriteTime@pTm,w,c
  6699  00C150  26D9               	addwf	fsr2l,f,c
  6700  00C152  5002               	movf	RtccWriteTime@pTm+1,w,c
  6701  00C154  22DA               	addwfc	fsr2h,f,c
  6702  00C156  50DF               	movf	indf2,w,c
  6703  00C158  6E08               	movwf	RtccWriteTime@tempMinSec,c
  6704  00C15A  5003               	movf	RtccWriteTime@di,w,c
  6705  00C15C  B4D8               	btfsc	status,2,c
  6706  00C15E  D002               	goto	l4974
  6707  00C160  9CF2               	bcf	intcon,6,c	;volatile
  6708  00C162  D000               	goto	l4974
  6709  00C164                     l4974:
  6710  00C164  0E00               	movlw	0
  6711  00C166  BB3F               	btfsc	63,5,b	;volatile
  6712  00C168  0E01               	movlw	1
  6713  00C16A  6E07               	movwf	RtccWriteTime@wasWrEn,c
  6714  00C16C  5007               	movf	RtccWriteTime@wasWrEn,w,c
  6715  00C16E  A4D8               	btfss	status,2,c
  6716  00C170  D003               	goto	l4978
  6717  00C172  EC3A  F05A         	call	_RtccWrOn	;wreg free
  6718  00C176  D000               	goto	l4978
  6719  00C178                     l4978:
  6720  00C178  0E00               	movlw	0
  6721  00C17A  BF3F               	btfsc	63,7,b	;volatile
  6722  00C17C  0E01               	movlw	1
  6723  00C17E  6E05               	movwf	RtccWriteTime@wasOn,c
  6724  00C180  5005               	movf	RtccWriteTime@wasOn,w,c
  6725  00C182  B4D8               	btfsc	status,2,c
  6726  00C184  D007               	goto	l4984
  6727  00C186  0E00               	movlw	0
  6728  00C188  BE91               	btfsc	3985,7,c	;volatile
  6729  00C18A  0E01               	movlw	1
  6730  00C18C  6E06               	movwf	RtccWriteTime@wasAlrm,c
  6731  00C18E  010F               	movlb	15	; () banked
  6732  00C190  9F3F               	bcf	63,7,b	;volatile
  6733  00C192  D000               	goto	l4984
  6734  00C194                     l4984:
  6735  00C194  0EFC               	movlw	252
  6736  00C196  010F               	movlb	15	; () banked
  6737  00C198  173F               	andwf	63,f,b	;volatile
  6738  00C19A  010F               	movlb	15	; () banked
  6739  00C19C  813F               	bsf	63,0,b	;volatile
  6740                           
  6741                           ; BSR set to: 15
  6742  00C19E  CF98 F00A          	movff	3992,RtccWriteTime@tempHourWDay	;volatile
  6743                           
  6744                           ; BSR set to: 15
  6745  00C1A2  CF99 F00B          	movff	3993,RtccWriteTime@tempHourWDay+1	;volatile
  6746                           
  6747                           ; BSR set to: 15
  6748  00C1A6  EE20 F003          	lfsr	2,3
  6749  00C1AA  5001               	movf	RtccWriteTime@pTm,w,c
  6750  00C1AC  26D9               	addwf	fsr2l,f,c
  6751  00C1AE  5002               	movf	RtccWriteTime@pTm+1,w,c
  6752  00C1B0  22DA               	addwfc	fsr2h,f,c
  6753  00C1B2  50DF               	movf	indf2,w,c
  6754  00C1B4  6E0A               	movwf	RtccWriteTime@tempHourWDay,c
  6755                           
  6756                           ; BSR set to: 15
  6757  00C1B6  0EFC               	movlw	252
  6758  00C1B8  010F               	movlb	15	; () banked
  6759  00C1BA  173F               	andwf	63,f,b	;volatile
  6760                           
  6761                           ; BSR set to: 15
  6762  00C1BC  010F               	movlb	15	; () banked
  6763  00C1BE  813F               	bsf	63,0,b	;volatile
  6764                           
  6765                           ; BSR set to: 15
  6766  00C1C0  C00A  FF98         	movff	RtccWriteTime@tempHourWDay,3992	;volatile
  6767                           
  6768                           ; BSR set to: 15
  6769  00C1C4  C00B  FF99         	movff	RtccWriteTime@tempHourWDay+1,3993	;volatile
  6770                           
  6771                           ; BSR set to: 15
  6772  00C1C8  C008  FF98         	movff	RtccWriteTime@tempMinSec,3992	;volatile
  6773                           
  6774                           ; BSR set to: 15
  6775  00C1CC  C009  FF99         	movff	RtccWriteTime@tempMinSec+1,3993	;volatile
  6776                           
  6777                           ; BSR set to: 15
  6778  00C1D0  5005               	movf	RtccWriteTime@wasOn,w,c
  6779  00C1D2  B4D8               	btfsc	status,2,c
  6780  00C1D4  D00D               	goto	l5016
  6781                           
  6782                           ; BSR set to: 15
  6783  00C1D6  010F               	movlb	15	; () banked
  6784  00C1D8  8F3F               	bsf	63,7,b	;volatile
  6785                           
  6786                           ; BSR set to: 15
  6787  00C1DA  5006               	movf	RtccWriteTime@wasAlrm,w,c
  6788  00C1DC  B4D8               	btfsc	status,2,c
  6789  00C1DE  D002               	goto	l5012
  6790                           
  6791                           ; BSR set to: 15
  6792  00C1E0  8E91               	bsf	3985,7,c	;volatile
  6793  00C1E2  D000               	goto	l5012
  6794  00C1E4                     l5012:
  6795                           
  6796                           ; BSR set to: 15
  6797  00C1E4  5007               	movf	RtccWriteTime@wasWrEn,w,c
  6798  00C1E6  B4D8               	btfsc	status,2,c
  6799  00C1E8  D009               	goto	l5020
  6800                           
  6801                           ; BSR set to: 15
  6802  00C1EA  EC3A  F05A         	call	_RtccWrOn	;wreg free
  6803  00C1EE  D006               	goto	l5020
  6804  00C1F0                     l5016:
  6805  00C1F0  5007               	movf	RtccWriteTime@wasWrEn,w,c
  6806  00C1F2  A4D8               	btfss	status,2,c
  6807  00C1F4  D003               	goto	l5020
  6808  00C1F6  010F               	movlb	15	; () banked
  6809  00C1F8  9B3F               	bcf	63,5,b	;volatile
  6810                           
  6811                           ; BSR set to: 15
  6812  00C1FA  D000               	goto	l5020
  6813  00C1FC                     l5020:
  6814  00C1FC  5003               	movf	RtccWriteTime@di,w,c
  6815  00C1FE  B4D8               	btfsc	status,2,c
  6816  00C200  0012               	return	
  6817  00C202  8CF2               	bsf	intcon,6,c	;volatile
  6818  00C204  0012               	return	
  6819                           
  6820                           ;	Return value of _RtccWriteTime is never used
  6821  00C206  0012               	return		;funcret
  6822  00C208                     __end_of_RtccWriteTime:
  6823                           	opt stack 0
  6824                           tblptru	equ	0xFF8
  6825                           tblptrh	equ	0xFF7
  6826                           tblptrl	equ	0xFF6
  6827                           tablat	equ	0xFF5
  6828                           prodl	equ	0xFF3
  6829                           intcon	equ	0xFF2
  6830                           postinc0	equ	0xFEE
  6831                           wreg	equ	0xFE8
  6832                           postdec1	equ	0xFE5
  6833                           fsr1l	equ	0xFE1
  6834                           indf2	equ	0xFDF
  6835                           fsr2h	equ	0xFDA
  6836                           fsr2l	equ	0xFD9
  6837                           status	equ	0xFD8
  6838                           
  6839 ;; *************** function _RtccWriteDate *****************
  6840 ;; Defined at:
  6841 ;;		line 35 in file "C:\Program Files (x86)\Microchip\xc8\v1.34\sources\pic18\plib\rtcc\RtccWriteDate.c"
  6842 ;; Parameters:    Size  Location     Type
  6843 ;;  pDt             2    0[COMRAM] PTR const struct .
  6844 ;;		 -> RtccDate(4), 
  6845 ;;  di              1    2[COMRAM] enum E7121
  6846 ;; Auto vars:     Size  Location     Type
  6847 ;;  tempHourWDay    2   11[COMRAM] struct .
  6848 ;;  tempDayMonth    2    9[COMRAM] struct .
  6849 ;;  tempYear        2    6[COMRAM] struct .
  6850 ;;  wasWrEn         1    8[COMRAM] enum E7121
  6851 ;;  wasAlrm         1    5[COMRAM] enum E7121
  6852 ;;  wasOn           1    4[COMRAM] enum E7121
  6853 ;; Return value:  Size  Location     Type
  6854 ;;                  1    wreg      enum E7337
  6855 ;; Registers used:
  6856 ;;		wreg, fsr2l, fsr2h, status,2, status,0, cstack
  6857 ;; Tracked objects:
  6858 ;;		On entry : 0/0
  6859 ;;		On exit  : 0/0
  6860 ;;		Unchanged: 0/0
  6861 ;; Data sizes:     COMRAM   BANK0   BANK1   BANK2   BANK3   BANK4   BANK5   BANK6   BANK7   BANK8   BANK9  BANK10  BANK1
      +1  BANK12  BANK13  BANK14
  6862 ;;      Params:         3       0       0       0       0       0       0       0       0       0       0       0       
      +0       0       0       0
  6863 ;;      Locals:         9       0       0       0       0       0       0       0       0       0       0       0       
      +0       0       0       0
  6864 ;;      Temps:          1       0       0       0       0       0       0       0       0       0       0       0       
      +0       0       0       0
  6865 ;;      Totals:        13       0       0       0       0       0       0       0       0       0       0       0       
      +0       0       0       0
  6866 ;;Total ram usage:       13 bytes
  6867 ;; Hardware stack levels used:    1
  6868 ;; Hardware stack levels required when called:    1
  6869 ;; This function calls:
  6870 ;;		_RtccWrOn
  6871 ;; This function is called by:
  6872 ;;		_Write_RTC
  6873 ;; This function uses a non-reentrant model
  6874 ;;
  6875                           
  6876                           	psect	text15
  6877  00CA38                     __ptext15:
  6878                           	opt stack 0
  6879  00CA38                     _RtccWriteDate:
  6880                           	opt stack 28
  6881                           
  6882                           ;incstack = 0
  6883  00CA38  0E00               	movlw	0
  6884  00CA3A  6E06               	movwf	RtccWriteDate@wasAlrm,c
  6885  00CA3C  EE20 F002          	lfsr	2,2
  6886  00CA40  5001               	movf	RtccWriteDate@pDt,w,c
  6887  00CA42  26D9               	addwf	fsr2l,f,c
  6888  00CA44  5002               	movf	RtccWriteDate@pDt+1,w,c
  6889  00CA46  22DA               	addwfc	fsr2h,f,c
  6890  00CA48  0E13               	movlw	19
  6891  00CA4A  60DF               	cpfslt	indf2,c
  6892  00CA4C  0012               	return	
  6893  00CA4E  EE20 F002          	lfsr	2,2
  6894  00CA52  5001               	movf	RtccWriteDate@pDt,w,c
  6895  00CA54  26D9               	addwf	fsr2l,f,c
  6896  00CA56  5002               	movf	RtccWriteDate@pDt+1,w,c
  6897  00CA58  22DA               	addwfc	fsr2h,f,c
  6898  00CA5A  50DF               	movf	indf2,w,c
  6899  00CA5C  B4D8               	btfsc	status,2,c
  6900  00CA5E  0012               	return	
  6901  00CA60  EE20 F001          	lfsr	2,1
  6902  00CA64  5001               	movf	RtccWriteDate@pDt,w,c
  6903  00CA66  26D9               	addwf	fsr2l,f,c
  6904  00CA68  5002               	movf	RtccWriteDate@pDt+1,w,c
  6905  00CA6A  22DA               	addwfc	fsr2h,f,c
  6906  00CA6C  0E32               	movlw	50
  6907  00CA6E  60DF               	cpfslt	indf2,c
  6908  00CA70  0012               	return	
  6909  00CA72  EE20 F001          	lfsr	2,1
  6910  00CA76  5001               	movf	RtccWriteDate@pDt,w,c
  6911  00CA78  26D9               	addwf	fsr2l,f,c
  6912  00CA7A  5002               	movf	RtccWriteDate@pDt+1,w,c
  6913  00CA7C  22DA               	addwfc	fsr2h,f,c
  6914  00CA7E  50DF               	movf	indf2,w,c
  6915  00CA80  B4D8               	btfsc	status,2,c
  6916  00CA82  0012               	return	
  6917  00CA84  EE20 F003          	lfsr	2,3
  6918  00CA88  5001               	movf	RtccWriteDate@pDt,w,c
  6919  00CA8A  26D9               	addwf	fsr2l,f,c
  6920  00CA8C  5002               	movf	RtccWriteDate@pDt+1,w,c
  6921  00CA8E  22DA               	addwfc	fsr2h,f,c
  6922  00CA90  0E99               	movlw	153
  6923  00CA92  64DF               	cpfsgt	indf2,c
  6924  00CA94  D002               	goto	l5036
  6925  00CA96  0012               	return	
  6926                           
  6927                           ;	Return value of _RtccWriteDate is never used
  6928  00CA98  0012               	return	
  6929  00CA9A                     l5036:
  6930  00CA9A  EE20 F003          	lfsr	2,3
  6931  00CA9E  5001               	movf	RtccWriteDate@pDt,w,c
  6932  00CAA0  26D9               	addwf	fsr2l,f,c
  6933  00CAA2  5002               	movf	RtccWriteDate@pDt+1,w,c
  6934  00CAA4  22DA               	addwfc	fsr2h,f,c
  6935  00CAA6  50DF               	movf	indf2,w,c
  6936  00CAA8  6E07               	movwf	RtccWriteDate@tempYear,c
  6937  00CAAA  EE20 F001          	lfsr	2,1
  6938  00CAAE  5001               	movf	RtccWriteDate@pDt,w,c
  6939  00CAB0  26D9               	addwf	fsr2l,f,c
  6940  00CAB2  5002               	movf	RtccWriteDate@pDt+1,w,c
  6941  00CAB4  22DA               	addwfc	fsr2h,f,c
  6942  00CAB6  50DF               	movf	indf2,w,c
  6943  00CAB8  6E0A               	movwf	RtccWriteDate@tempDayMonth,c
  6944  00CABA  EE20 F002          	lfsr	2,2
  6945  00CABE  5001               	movf	RtccWriteDate@pDt,w,c
  6946  00CAC0  26D9               	addwf	fsr2l,f,c
  6947  00CAC2  5002               	movf	RtccWriteDate@pDt+1,w,c
  6948  00CAC4  22DA               	addwfc	fsr2h,f,c
  6949  00CAC6  50DF               	movf	indf2,w,c
  6950  00CAC8  6E0B               	movwf	RtccWriteDate@tempDayMonth+1,c
  6951  00CACA  5003               	movf	RtccWriteDate@di,w,c
  6952  00CACC  B4D8               	btfsc	status,2,c
  6953  00CACE  D002               	goto	l5042
  6954  00CAD0  9CF2               	bcf	intcon,6,c	;volatile
  6955  00CAD2  D000               	goto	l5042
  6956  00CAD4                     l5042:
  6957  00CAD4  0E00               	movlw	0
  6958  00CAD6  BB3F               	btfsc	63,5,b	;volatile
  6959  00CAD8  0E01               	movlw	1
  6960  00CADA  6E09               	movwf	RtccWriteDate@wasWrEn,c
  6961  00CADC  5009               	movf	RtccWriteDate@wasWrEn,w,c
  6962  00CADE  A4D8               	btfss	status,2,c
  6963  00CAE0  D003               	goto	l5046
  6964  00CAE2  EC3A  F05A         	call	_RtccWrOn	;wreg free
  6965  00CAE6  D000               	goto	l5046
  6966  00CAE8                     l5046:
  6967  00CAE8  0E00               	movlw	0
  6968  00CAEA  BF3F               	btfsc	63,7,b	;volatile
  6969  00CAEC  0E01               	movlw	1
  6970  00CAEE  6E05               	movwf	RtccWriteDate@wasOn,c
  6971  00CAF0  5005               	movf	RtccWriteDate@wasOn,w,c
  6972  00CAF2  B4D8               	btfsc	status,2,c
  6973  00CAF4  D007               	goto	l5052
  6974  00CAF6  0E00               	movlw	0
  6975  00CAF8  BE91               	btfsc	3985,7,c	;volatile
  6976  00CAFA  0E01               	movlw	1
  6977  00CAFC  6E06               	movwf	RtccWriteDate@wasAlrm,c
  6978  00CAFE  010F               	movlb	15	; () banked
  6979  00CB00  9F3F               	bcf	63,7,b	;volatile
  6980  00CB02  D000               	goto	l5052
  6981  00CB04                     l5052:
  6982  00CB04  0EFC               	movlw	252
  6983  00CB06  010F               	movlb	15	; () banked
  6984  00CB08  173F               	andwf	63,f,b	;volatile
  6985  00CB0A  010F               	movlb	15	; () banked
  6986  00CB0C  813F               	bsf	63,0,b	;volatile
  6987                           
  6988                           ; BSR set to: 15
  6989  00CB0E  CF98 F00C          	movff	3992,RtccWriteDate@tempHourWDay	;volatile
  6990                           
  6991                           ; BSR set to: 15
  6992  00CB12  CF99 F00D          	movff	3993,RtccWriteDate@tempHourWDay+1	;volatile
  6993                           
  6994                           ; BSR set to: 15
  6995  00CB16  C001  FFD9         	movff	RtccWriteDate@pDt,fsr2l
  6996  00CB1A  C002  FFDA         	movff	RtccWriteDate@pDt+1,fsr2h
  6997  00CB1E  50DF               	movf	indf2,w,c
  6998  00CB20  6E0D               	movwf	RtccWriteDate@tempHourWDay+1,c
  6999                           
  7000                           ; BSR set to: 15
  7001  00CB22  0EFC               	movlw	252
  7002  00CB24  010F               	movlb	15	; () banked
  7003  00CB26  173F               	andwf	63,f,b	;volatile
  7004                           
  7005                           ; BSR set to: 15
  7006  00CB28  0E03               	movlw	3
  7007  00CB2A  010F               	movlb	15	; () banked
  7008  00CB2C  133F               	iorwf	63,f,b	;volatile
  7009                           
  7010                           ; BSR set to: 15
  7011  00CB2E  C007  FF98         	movff	RtccWriteDate@tempYear,3992	;volatile
  7012                           
  7013                           ; BSR set to: 15
  7014  00CB32  C008  FF99         	movff	RtccWriteDate@tempYear+1,3993	;volatile
  7015                           
  7016                           ; BSR set to: 15
  7017  00CB36  C00A  FF98         	movff	RtccWriteDate@tempDayMonth,3992	;volatile
  7018                           
  7019                           ; BSR set to: 15
  7020  00CB3A  C00B  FF99         	movff	RtccWriteDate@tempDayMonth+1,3993	;volatile
  7021                           
  7022                           ; BSR set to: 15
  7023  00CB3E  C00C  FF98         	movff	RtccWriteDate@tempHourWDay,3992	;volatile
  7024                           
  7025                           ; BSR set to: 15
  7026  00CB42  C00D  FF99         	movff	RtccWriteDate@tempHourWDay+1,3993	;volatile
  7027                           
  7028                           ; BSR set to: 15
  7029  00CB46  5005               	movf	RtccWriteDate@wasOn,w,c
  7030  00CB48  B4D8               	btfsc	status,2,c
  7031  00CB4A  D00D               	goto	l5088
  7032                           
  7033                           ; BSR set to: 15
  7034  00CB4C  010F               	movlb	15	; () banked
  7035  00CB4E  8F3F               	bsf	63,7,b	;volatile
  7036                           
  7037                           ; BSR set to: 15
  7038  00CB50  5006               	movf	RtccWriteDate@wasAlrm,w,c
  7039  00CB52  B4D8               	btfsc	status,2,c
  7040  00CB54  D002               	goto	l5084
  7041                           
  7042                           ; BSR set to: 15
  7043  00CB56  8E91               	bsf	3985,7,c	;volatile
  7044  00CB58  D000               	goto	l5084
  7045  00CB5A                     l5084:
  7046                           
  7047                           ; BSR set to: 15
  7048  00CB5A  5009               	movf	RtccWriteDate@wasWrEn,w,c
  7049  00CB5C  B4D8               	btfsc	status,2,c
  7050  00CB5E  D009               	goto	l5092
  7051                           
  7052                           ; BSR set to: 15
  7053  00CB60  EC3A  F05A         	call	_RtccWrOn	;wreg free
  7054  00CB64  D006               	goto	l5092
  7055  00CB66                     l5088:
  7056  00CB66  5009               	movf	RtccWriteDate@wasWrEn,w,c
  7057  00CB68  A4D8               	btfss	status,2,c
  7058  00CB6A  D003               	goto	l5092
  7059  00CB6C  010F               	movlb	15	; () banked
  7060  00CB6E  9B3F               	bcf	63,5,b	;volatile
  7061                           
  7062                           ; BSR set to: 15
  7063  00CB70  D000               	goto	l5092
  7064  00CB72                     l5092:
  7065  00CB72  5003               	movf	RtccWriteDate@di,w,c
  7066  00CB74  B4D8               	btfsc	status,2,c
  7067  00CB76  0012               	return	
  7068  00CB78  9CF2               	bcf	intcon,6,c	;volatile
  7069  00CB7A  0012               	return	
  7070                           
  7071                           ;	Return value of _RtccWriteDate is never used
  7072  00CB7C  0012               	return		;funcret
  7073  00CB7E                     __end_of_RtccWriteDate:
  7074                           	opt stack 0
  7075                           tblptru	equ	0xFF8
  7076                           tblptrh	equ	0xFF7
  7077                           tblptrl	equ	0xFF6
  7078                           tablat	equ	0xFF5
  7079                           prodl	equ	0xFF3
  7080                           intcon	equ	0xFF2
  7081                           postinc0	equ	0xFEE
  7082                           wreg	equ	0xFE8
  7083                           postdec1	equ	0xFE5
  7084                           fsr1l	equ	0xFE1
  7085                           indf2	equ	0xFDF
  7086                           fsr2h	equ	0xFDA
  7087                           fsr2l	equ	0xFD9
  7088                           status	equ	0xFD8
  7089                           
  7090 ;; *************** function _RtccWrOn *****************
  7091 ;; Defined at:
  7092 ;;		line 21 in file "C:\Program Files (x86)\Microchip\xc8\v1.34\sources\pic18\plib\rtcc\RtccWrOn.c"
  7093 ;; Parameters:    Size  Location     Type
  7094 ;;		None
  7095 ;; Auto vars:     Size  Location     Type
  7096 ;;  data            2    0        unsigned int 
  7097 ;; Return value:  Size  Location     Type
  7098 ;;		None               void
  7099 ;; Registers used:
  7100 ;;		wreg, status,2
  7101 ;; Tracked objects:
  7102 ;;		On entry : 0/0
  7103 ;;		On exit  : 0/0
  7104 ;;		Unchanged: 0/0
  7105 ;; Data sizes:     COMRAM   BANK0   BANK1   BANK2   BANK3   BANK4   BANK5   BANK6   BANK7   BANK8   BANK9  BANK10  BANK1
      +1  BANK12  BANK13  BANK14
  7106 ;;      Params:         0       0       0       0       0       0       0       0       0       0       0       0       
      +0       0       0       0
  7107 ;;      Locals:         0       0       0       0       0       0       0       0       0       0       0       0       
      +0       0       0       0
  7108 ;;      Temps:          0       0       0       0       0       0       0       0       0       0       0       0       
      +0       0       0       0
  7109 ;;      Totals:         0       0       0       0       0       0       0       0       0       0       0       0       
      +0       0       0       0
  7110 ;;Total ram usage:        0 bytes
  7111 ;; Hardware stack levels used:    1
  7112 ;; This function calls:
  7113 ;;		Nothing
  7114 ;; This function is called by:
  7115 ;;		_Write_RTC
  7116 ;;		_RtccWriteDate
  7117 ;;		_RtccWriteTime
  7118 ;; This function uses a non-reentrant model
  7119 ;;
  7120                           
  7121                           	psect	text16
  7122  00B474                     __ptext16:
  7123                           	opt stack 0
  7124  00B474                     _RtccWrOn:
  7125                           	opt stack 28
  7126                           
  7127                           ;incstack = 0
  7128  00B474  9CF2               	bcf	intcon,6,c	;volatile
  7129  00B476  0E55               	movlw	85
  7130  00B478  6EA7               	movwf	4007,c	;volatile
  7131  00B47A  0EAA               	movlw	170
  7132  00B47C  6EA7               	movwf	4007,c	;volatile
  7133  00B47E  010F               	movlb	15	; () banked
  7134  00B480  8B3F               	bsf	63,5,b	;volatile
  7135                           
  7136                           ; BSR set to: 15
  7137  00B482  8CF2               	bsf	intcon,6,c	;volatile
  7138                           
  7139                           ; BSR set to: 15
  7140  00B484  0012               	return		;funcret
  7141  00B486                     __end_of_RtccWrOn:
  7142                           	opt stack 0
  7143                           tblptru	equ	0xFF8
  7144                           tblptrh	equ	0xFF7
  7145                           tblptrl	equ	0xFF6
  7146                           tablat	equ	0xFF5
  7147                           prodl	equ	0xFF3
  7148                           intcon	equ	0xFF2
  7149                           postinc0	equ	0xFEE
  7150                           wreg	equ	0xFE8
  7151                           postdec1	equ	0xFE5
  7152                           fsr1l	equ	0xFE1
  7153                           indf2	equ	0xFDF
  7154                           fsr2h	equ	0xFDA
  7155                           fsr2l	equ	0xFD9
  7156                           status	equ	0xFD8
  7157                           
  7158 ;; *************** function _V_Principal *****************
  7159 ;; Defined at:
  7160 ;;		line 222 in file "../main.c"
  7161 ;; Parameters:    Size  Location     Type
  7162 ;;		None
  7163 ;; Auto vars:     Size  Location     Type
  7164 ;;  cte             2   88[COMRAM] PTR unsigned char 
  7165 ;;		 -> Convert_diasem@buffer_dia(20), 
  7166 ;; Return value:  Size  Location     Type
  7167 ;;		None               void
  7168 ;; Registers used:
  7169 ;;		wreg, fsr0l, fsr0h, fsr2l, fsr2h, status,2, status,0, tblptrl, tblptrh, tblptru, prodl, prodh, cstack
  7170 ;; Tracked objects:
  7171 ;;		On entry : 0/0
  7172 ;;		On exit  : 0/0
  7173 ;;		Unchanged: 0/0
  7174 ;; Data sizes:     COMRAM   BANK0   BANK1   BANK2   BANK3   BANK4   BANK5   BANK6   BANK7   BANK8   BANK9  BANK10  BANK1
      +1  BANK12  BANK13  BANK14
  7175 ;;      Params:         0       0       0       0       0       0       0       0       0       0       0       0       
      +0       0       0       0
  7176 ;;      Locals:         2       0       0       0       0       0       0       0       0       0       0       0       
      +0       0       0       0
  7177 ;;      Temps:          0       0       0       0       0       0       0       0       0       0       0       0       
      +0       0       0       0
  7178 ;;      Totals:         2       0       0       0       0       0       0       0       0       0       0       0       
      +0       0       0       0
  7179 ;;Total ram usage:        2 bytes
  7180 ;; Hardware stack levels used:    1
  7181 ;; Hardware stack levels required when called:    5
  7182 ;; This function calls:
  7183 ;;		_Convert_diasem
  7184 ;;		_Lcd_Out
  7185 ;;		_Read_RTC
  7186 ;;		_sprintf
  7187 ;; This function is called by:
  7188 ;;		_main
  7189 ;; This function uses a non-reentrant model
  7190 ;;
  7191                           
  7192                           	psect	text17
  7193  00BE04                     __ptext17:
  7194                           	opt stack 0
  7195  00BE04                     _V_Principal:
  7196                           	opt stack 25
  7197                           
  7198                           ;main.c: 223: Lcd_Out(1, 0, "Ventana principal   ");
  7199                           
  7200                           ; BSR set to: 15
  7201                           ;incstack = 0
  7202  00BE04  0E00               	movlw	0
  7203  00BE06  6E54               	movwf	Lcd_Out@x,c
  7204  00BE08  0EF2               	movlw	low STR_1
  7205  00BE0A  6E55               	movwf	Lcd_Out@buffer,c
  7206  00BE0C  0EFE               	movlw	high STR_1
  7207  00BE0E  6E56               	movwf	Lcd_Out@buffer+1,c
  7208  00BE10  0E01               	movlw	1
  7209  00BE12  EC49  F05D         	call	_Lcd_Out
  7210                           
  7211                           ;main.c: 224: Read_RTC();
  7212  00BE16  EC7B  F064         	call	_Read_RTC	;wreg free
  7213                           
  7214                           ;main.c: 225: char* cte = Convert_diasem(diasem);
  7215  00BE1A  C0AE  F050         	movff	_diasem,Convert_diasem@dia
  7216  00BE1E  C0AF  F051         	movff	_diasem+1,Convert_diasem@dia+1
  7217  00BE22  EC91  F061         	call	_Convert_diasem	;wreg free
  7218  00BE26  C050  F059         	movff	?_Convert_diasem,V_Principal@cte
  7219  00BE2A  C051  F05A         	movff	?_Convert_diasem+1,V_Principal@cte+1
  7220                           
  7221                           ;main.c: 226: Lcd_Out(2, 0, cte);
  7222  00BE2E  0E00               	movlw	0
  7223  00BE30  6E54               	movwf	Lcd_Out@x,c
  7224  00BE32  C059  F055         	movff	V_Principal@cte,Lcd_Out@buffer
  7225  00BE36  C05A  F056         	movff	V_Principal@cte+1,Lcd_Out@buffer+1
  7226  00BE3A  0E02               	movlw	2
  7227  00BE3C  EC49  F05D         	call	_Lcd_Out
  7228                           
  7229                           ;main.c: 227: sprintf(buffer1, "%02u/%02u/%02u             ", dia, mes, anio);
  7230  00BE40  0EC0               	movlw	low _buffer1
  7231  00BE42  6E40               	movwf	sprintf@sp,c
  7232  00BE44  0E00               	movlw	high _buffer1
  7233  00BE46  6E41               	movwf	sprintf@sp+1,c
  7234  00BE48  0EC5               	movlw	low STR_2
  7235  00BE4A  6E42               	movwf	sprintf@f,c
  7236  00BE4C  0EFD               	movlw	high STR_2
  7237  00BE4E  6E43               	movwf	sprintf@f+1,c
  7238  00BE50  C0E4  F044         	movff	_dia,?_sprintf+4
  7239  00BE54  C0E5  F045         	movff	_dia+1,?_sprintf+5
  7240  00BE58  C0E6  F046         	movff	_mes,?_sprintf+6
  7241  00BE5C  C0E7  F047         	movff	_mes+1,?_sprintf+7
  7242  00BE60  C0E2  F048         	movff	_anio,?_sprintf+8
  7243  00BE64  C0E3  F049         	movff	_anio+1,?_sprintf+9
  7244  00BE68  EC87  F074         	call	_sprintf	;wreg free
  7245                           
  7246                           ;main.c: 228: Lcd_Out(3, 0, buffer1);
  7247  00BE6C  0E00               	movlw	0
  7248  00BE6E  6E54               	movwf	Lcd_Out@x,c
  7249  00BE70  0EC0               	movlw	low _buffer1
  7250  00BE72  6E55               	movwf	Lcd_Out@buffer,c
  7251  00BE74  0E00               	movlw	high _buffer1
  7252  00BE76  6E56               	movwf	Lcd_Out@buffer+1,c
  7253  00BE78  0E03               	movlw	3
  7254  00BE7A  EC49  F05D         	call	_Lcd_Out
  7255                           
  7256                           ;main.c: 229: sprintf(buffer1, "%02u:%02u:%02u  ", hora, minuto, segundo);
  7257  00BE7E  0EC0               	movlw	low _buffer1
  7258  00BE80  6E40               	movwf	sprintf@sp,c
  7259  00BE82  0E00               	movlw	high _buffer1
  7260  00BE84  6E41               	movwf	sprintf@sp+1,c
  7261  00BE86  0EA3               	movlw	low STR_3
  7262  00BE88  6E42               	movwf	sprintf@f,c
  7263  00BE8A  0EFF               	movlw	high STR_3
  7264  00BE8C  6E43               	movwf	sprintf@f+1,c
  7265  00BE8E  C05E  F044         	movff	_hora,?_sprintf+4
  7266  00BE92  C05F  F045         	movff	_hora+1,?_sprintf+5
  7267  00BE96  C0E8  F046         	movff	_minuto,?_sprintf+6
  7268  00BE9A  C0E9  F047         	movff	_minuto+1,?_sprintf+7
  7269  00BE9E  C0B2  F048         	movff	_segundo,?_sprintf+8
  7270  00BEA2  C0B3  F049         	movff	_segundo+1,?_sprintf+9
  7271  00BEA6  EC87  F074         	call	_sprintf	;wreg free
  7272                           
  7273                           ;main.c: 230: Lcd_Out(4, 0, buffer1);
  7274  00BEAA  0E00               	movlw	0
  7275  00BEAC  6E54               	movwf	Lcd_Out@x,c
  7276  00BEAE  0EC0               	movlw	low _buffer1
  7277  00BEB0  6E55               	movwf	Lcd_Out@buffer,c
  7278  00BEB2  0E00               	movlw	high _buffer1
  7279  00BEB4  6E56               	movwf	Lcd_Out@buffer+1,c
  7280  00BEB6  0E04               	movlw	4
  7281  00BEB8  EC49  F05D         	call	_Lcd_Out
  7282                           
  7283                           ;main.c: 231: sprintf(buffer1, "TA: %.1f%cC  ", temp_prog, 223);
  7284  00BEBC  0EC0               	movlw	low _buffer1
  7285  00BEBE  6E40               	movwf	sprintf@sp,c
  7286  00BEC0  0E00               	movlw	high _buffer1
  7287  00BEC2  6E41               	movwf	sprintf@sp+1,c
  7288  00BEC4  0EC3               	movlw	low STR_4
  7289  00BEC6  6E42               	movwf	sprintf@f,c
  7290  00BEC8  0EFF               	movlw	high STR_4
  7291  00BECA  6E43               	movwf	sprintf@f+1,c
  7292  00BECC  C0DF  F044         	movff	_temp_prog,?_sprintf+4
  7293  00BED0  C0E0  F045         	movff	_temp_prog+1,?_sprintf+5
  7294  00BED4  C0E1  F046         	movff	_temp_prog+2,?_sprintf+6
  7295  00BED8  0E00               	movlw	0
  7296  00BEDA  6E48               	movwf	?_sprintf+8,c
  7297  00BEDC  0EDF               	movlw	223
  7298  00BEDE  6E47               	movwf	?_sprintf+7,c
  7299  00BEE0  EC87  F074         	call	_sprintf	;wreg free
  7300                           
  7301                           ;main.c: 232: Lcd_Out(4, 10, buffer1);
  7302  00BEE4  0E0A               	movlw	10
  7303  00BEE6  6E54               	movwf	Lcd_Out@x,c
  7304  00BEE8  0EC0               	movlw	low _buffer1
  7305  00BEEA  6E55               	movwf	Lcd_Out@buffer,c
  7306  00BEEC  0E00               	movlw	high _buffer1
  7307  00BEEE  6E56               	movwf	Lcd_Out@buffer+1,c
  7308  00BEF0  0E04               	movlw	4
  7309  00BEF2  EC49  F05D         	call	_Lcd_Out
  7310  00BEF6  0012               	return		;funcret
  7311  00BEF8                     __end_of_V_Principal:
  7312                           	opt stack 0
  7313                           tblptru	equ	0xFF8
  7314                           tblptrh	equ	0xFF7
  7315                           tblptrl	equ	0xFF6
  7316                           tablat	equ	0xFF5
  7317                           prodl	equ	0xFF3
  7318                           intcon	equ	0xFF2
  7319                           postinc0	equ	0xFEE
  7320                           wreg	equ	0xFE8
  7321                           postdec1	equ	0xFE5
  7322                           fsr1l	equ	0xFE1
  7323                           indf2	equ	0xFDF
  7324                           fsr2h	equ	0xFDA
  7325                           fsr2l	equ	0xFD9
  7326                           status	equ	0xFD8
  7327                           
  7328 ;; *************** function _Read_RTC *****************
  7329 ;; Defined at:
  7330 ;;		line 687 in file "../main.c"
  7331 ;; Parameters:    Size  Location     Type
  7332 ;;		None
  7333 ;; Auto vars:     Size  Location     Type
  7334 ;;		None
  7335 ;; Return value:  Size  Location     Type
  7336 ;;		None               void
  7337 ;; Registers used:
  7338 ;;		wreg, fsr2l, fsr2h, status,2, status,0, prodl, prodh, cstack
  7339 ;; Tracked objects:
  7340 ;;		On entry : 0/0
  7341 ;;		On exit  : 0/0
  7342 ;;		Unchanged: 0/0
  7343 ;; Data sizes:     COMRAM   BANK0   BANK1   BANK2   BANK3   BANK4   BANK5   BANK6   BANK7   BANK8   BANK9  BANK10  BANK1
      +1  BANK12  BANK13  BANK14
  7344 ;;      Params:         0       0       0       0       0       0       0       0       0       0       0       0       
      +0       0       0       0
  7345 ;;      Locals:         0       0       0       0       0       0       0       0       0       0       0       0       
      +0       0       0       0
  7346 ;;      Temps:          0       0       0       0       0       0       0       0       0       0       0       0       
      +0       0       0       0
  7347 ;;      Totals:         0       0       0       0       0       0       0       0       0       0       0       0       
      +0       0       0       0
  7348 ;;Total ram usage:        0 bytes
  7349 ;; Hardware stack levels used:    1
  7350 ;; Hardware stack levels required when called:    1
  7351 ;; This function calls:
  7352 ;;		_RtccReadDate
  7353 ;;		_RtccReadTime
  7354 ;; This function is called by:
  7355 ;;		_V_Principal
  7356 ;; This function uses a non-reentrant model
  7357 ;;
  7358                           
  7359                           	psect	text18
  7360  00C8F6                     __ptext18:
  7361                           	opt stack 0
  7362  00C8F6                     _Read_RTC:
  7363                           	opt stack 28
  7364                           
  7365                           ;main.c: 690: RtccReadTime(&RtccTime);
  7366                           
  7367                           ;incstack = 0
  7368  00C8F6  0ED8               	movlw	low _RtccTime
  7369  00C8F8  6E01               	movwf	RtccReadTime@pTm,c
  7370  00C8FA  0E00               	movlw	high _RtccTime
  7371  00C8FC  6E02               	movwf	RtccReadTime@pTm+1,c
  7372  00C8FE  EC8F  F05B         	call	_RtccReadTime	;wreg free
  7373                           
  7374                           ;main.c: 691: segundo_u = (RtccTime.f.sec & 0x0F);
  7375  00C902  0100               	movlb	0	; () banked
  7376  00C904  51D9               	movf	(_RtccTime+1)& (0+255),w,b
  7377  00C906  0B0F               	andlw	15
  7378  00C908  0100               	movlb	0	; () banked
  7379  00C90A  6FFB               	movwf	_segundo_u& (0+255),b
  7380                           
  7381                           ; BSR set to: 0
  7382                           ;main.c: 692: segundo_d = ((RtccTime.f.sec & 0xF0) >> 4);
  7383  00C90C  0100               	movlb	0	; () banked
  7384  00C90E  39D9               	swapf	(_RtccTime+1)& (0+255),w,b
  7385  00C910  0B0F               	andlw	15
  7386  00C912  0B0F               	andlw	15
  7387  00C914  0100               	movlb	0	; () banked
  7388  00C916  6FFA               	movwf	_segundo_d& (0+255),b
  7389                           
  7390                           ; BSR set to: 0
  7391                           ;main.c: 693: minuto_u = (RtccTime.f.min & 0x0F);
  7392  00C918  0100               	movlb	0	; () banked
  7393  00C91A  51DA               	movf	(_RtccTime+2)& (0+255),w,b
  7394  00C91C  0B0F               	andlw	15
  7395  00C91E  0100               	movlb	0	; () banked
  7396  00C920  6FF9               	movwf	_minuto_u& (0+255),b
  7397                           
  7398                           ; BSR set to: 0
  7399                           ;main.c: 694: minuto_d = ((RtccTime.f.min & 0xF0) >> 4);
  7400  00C922  0100               	movlb	0	; () banked
  7401  00C924  39DA               	swapf	(_RtccTime+2)& (0+255),w,b
  7402  00C926  0B0F               	andlw	15
  7403  00C928  0B0F               	andlw	15
  7404  00C92A  0100               	movlb	0	; () banked
  7405  00C92C  6FF8               	movwf	_minuto_d& (0+255),b
  7406                           
  7407                           ; BSR set to: 0
  7408                           ;main.c: 695: hora_u = (RtccTime.f.hour & 0x0F);
  7409  00C92E  0100               	movlb	0	; () banked
  7410  00C930  51DB               	movf	(_RtccTime+3)& (0+255),w,b
  7411  00C932  0B0F               	andlw	15
  7412  00C934  0100               	movlb	0	; () banked
  7413  00C936  6FF5               	movwf	_hora_u& (0+255),b
  7414                           
  7415                           ; BSR set to: 0
  7416                           ;main.c: 696: hora_d = ((RtccTime.f.hour & 0xF0) >> 4);
  7417  00C938  0100               	movlb	0	; () banked
  7418  00C93A  39DB               	swapf	(_RtccTime+3)& (0+255),w,b
  7419  00C93C  0B0F               	andlw	15
  7420  00C93E  0B0F               	andlw	15
  7421  00C940  0100               	movlb	0	; () banked
  7422  00C942  6FF4               	movwf	_hora_d& (0+255),b
  7423                           
  7424                           ;main.c: 697: RtccReadDate(&RtccDate);
  7425  00C944  0ED4               	movlw	low _RtccDate
  7426  00C946  6E01               	movwf	RtccReadDate@pDt,c
  7427  00C948  0E00               	movlw	high _RtccDate
  7428  00C94A  6E02               	movwf	RtccReadDate@pDt+1,c
  7429  00C94C  EC02  F05D         	call	_RtccReadDate	;wreg free
  7430                           
  7431                           ;main.c: 698: fecha_u = (RtccDate.f.mday & 0x0F);
  7432  00C950  0100               	movlb	0	; () banked
  7433  00C952  51D5               	movf	(_RtccDate+1)& (0+255),w,b
  7434  00C954  0B0F               	andlw	15
  7435  00C956  0100               	movlb	0	; () banked
  7436  00C958  6FF3               	movwf	_fecha_u& (0+255),b
  7437                           
  7438                           ; BSR set to: 0
  7439                           ;main.c: 699: fecha_d = ((RtccDate.f.mday & 0xF0) >> 4);
  7440  00C95A  0100               	movlb	0	; () banked
  7441  00C95C  39D5               	swapf	(_RtccDate+1)& (0+255),w,b
  7442  00C95E  0B0F               	andlw	15
  7443  00C960  0B0F               	andlw	15
  7444  00C962  0100               	movlb	0	; () banked
  7445  00C964  6FF2               	movwf	_fecha_d& (0+255),b
  7446                           
  7447                           ; BSR set to: 0
  7448                           ;main.c: 700: mes_u = (RtccDate.f.mon & 0x0F);
  7449  00C966  0100               	movlb	0	; () banked
  7450  00C968  51D6               	movf	(_RtccDate+2)& (0+255),w,b
  7451  00C96A  0B0F               	andlw	15
  7452  00C96C  0100               	movlb	0	; () banked
  7453  00C96E  6FF7               	movwf	_mes_u& (0+255),b
  7454                           
  7455                           ; BSR set to: 0
  7456                           ;main.c: 701: mes_d = ((RtccDate.f.mon & 0xF0) >> 4);
  7457  00C970  0100               	movlb	0	; () banked
  7458  00C972  39D6               	swapf	(_RtccDate+2)& (0+255),w,b
  7459  00C974  0B0F               	andlw	15
  7460  00C976  0B0F               	andlw	15
  7461  00C978  0100               	movlb	0	; () banked
  7462  00C97A  6FF6               	movwf	_mes_d& (0+255),b
  7463                           
  7464                           ; BSR set to: 0
  7465                           ;main.c: 702: dia_semana = RtccDate.f.wday;
  7466  00C97C  C0D4  F0F1         	movff	_RtccDate,_dia_semana
  7467                           
  7468                           ; BSR set to: 0
  7469                           ;main.c: 703: anio_u = (RtccDate.f.year & 0x0F);
  7470  00C980  0100               	movlb	0	; () banked
  7471  00C982  51D7               	movf	(_RtccDate+3)& (0+255),w,b
  7472  00C984  0B0F               	andlw	15
  7473  00C986  0100               	movlb	0	; () banked
  7474  00C988  6FF0               	movwf	_anio_u& (0+255),b
  7475                           
  7476                           ; BSR set to: 0
  7477                           ;main.c: 704: anio_d = ((RtccDate.f.year & 0xF0) >> 4);
  7478  00C98A  0100               	movlb	0	; () banked
  7479  00C98C  39D7               	swapf	(_RtccDate+3)& (0+255),w,b
  7480  00C98E  0B0F               	andlw	15
  7481  00C990  0B0F               	andlw	15
  7482  00C992  0100               	movlb	0	; () banked
  7483  00C994  6FEF               	movwf	_anio_d& (0+255),b
  7484                           
  7485                           ; BSR set to: 0
  7486                           ;main.c: 705: segundo = segundo_d * 10 + segundo_u;
  7487  00C996  0100               	movlb	0	; () banked
  7488  00C998  51FA               	movf	_segundo_d& (0+255),w,b
  7489  00C99A  0D0A               	mullw	10
  7490  00C99C  0100               	movlb	0	; () banked
  7491  00C99E  51FB               	movf	_segundo_u& (0+255),w,b
  7492  00C9A0  24F3               	addwf	prodl,w,c
  7493  00C9A2  0100               	movlb	0	; () banked
  7494  00C9A4  6FB2               	movwf	_segundo& (0+255),b
  7495  00C9A6  0100               	movlb	0	; () banked
  7496  00C9A8  0E00               	movlw	0
  7497  00C9AA  20F4               	addwfc	prodh,w,c
  7498  00C9AC  0100               	movlb	0	; () banked
  7499  00C9AE  6FB3               	movwf	(_segundo+1)& (0+255),b
  7500                           
  7501                           ; BSR set to: 0
  7502                           ;main.c: 706: minuto = minuto_d * 10 + minuto_u;
  7503  00C9B0  0100               	movlb	0	; () banked
  7504  00C9B2  51F8               	movf	_minuto_d& (0+255),w,b
  7505  00C9B4  0D0A               	mullw	10
  7506  00C9B6  0100               	movlb	0	; () banked
  7507  00C9B8  51F9               	movf	_minuto_u& (0+255),w,b
  7508  00C9BA  24F3               	addwf	prodl,w,c
  7509  00C9BC  0100               	movlb	0	; () banked
  7510  00C9BE  6FE8               	movwf	_minuto& (0+255),b
  7511  00C9C0  0100               	movlb	0	; () banked
  7512  00C9C2  0E00               	movlw	0
  7513  00C9C4  20F4               	addwfc	prodh,w,c
  7514  00C9C6  0100               	movlb	0	; () banked
  7515  00C9C8  6FE9               	movwf	(_minuto+1)& (0+255),b
  7516                           
  7517                           ; BSR set to: 0
  7518                           ;main.c: 707: hora = hora_d * 10 + hora_u;
  7519  00C9CA  0100               	movlb	0	; () banked
  7520  00C9CC  51F4               	movf	_hora_d& (0+255),w,b
  7521  00C9CE  0D0A               	mullw	10
  7522  00C9D0  0100               	movlb	0	; () banked
  7523  00C9D2  51F5               	movf	_hora_u& (0+255),w,b
  7524  00C9D4  24F3               	addwf	prodl,w,c
  7525  00C9D6  6E5E               	movwf	_hora,c
  7526  00C9D8  0100               	movlb	0	; () banked
  7527  00C9DA  0E00               	movlw	0
  7528  00C9DC  20F4               	addwfc	prodh,w,c
  7529  00C9DE  6E5F               	movwf	_hora+1,c
  7530                           
  7531                           ; BSR set to: 0
  7532                           ;main.c: 708: dia = fecha_d * 10 + fecha_u;
  7533  00C9E0  0100               	movlb	0	; () banked
  7534  00C9E2  51F2               	movf	_fecha_d& (0+255),w,b
  7535  00C9E4  0D0A               	mullw	10
  7536  00C9E6  0100               	movlb	0	; () banked
  7537  00C9E8  51F3               	movf	_fecha_u& (0+255),w,b
  7538  00C9EA  24F3               	addwf	prodl,w,c
  7539  00C9EC  0100               	movlb	0	; () banked
  7540  00C9EE  6FE4               	movwf	_dia& (0+255),b
  7541  00C9F0  0100               	movlb	0	; () banked
  7542  00C9F2  0E00               	movlw	0
  7543  00C9F4  20F4               	addwfc	prodh,w,c
  7544  00C9F6  0100               	movlb	0	; () banked
  7545  00C9F8  6FE5               	movwf	(_dia+1)& (0+255),b
  7546                           
  7547                           ; BSR set to: 0
  7548                           ;main.c: 709: diasem = dia_semana;
  7549  00C9FA  C0F1  F0AE         	movff	_dia_semana,_diasem
  7550  00C9FE  0100               	movlb	0	; () banked
  7551  00CA00  6BAF               	clrf	(_diasem+1)& (0+255),b
  7552                           
  7553                           ; BSR set to: 0
  7554                           ;main.c: 710: mes = mes_d * 10 + mes_u;
  7555  00CA02  0100               	movlb	0	; () banked
  7556  00CA04  51F6               	movf	_mes_d& (0+255),w,b
  7557  00CA06  0D0A               	mullw	10
  7558  00CA08  0100               	movlb	0	; () banked
  7559  00CA0A  51F7               	movf	_mes_u& (0+255),w,b
  7560  00CA0C  24F3               	addwf	prodl,w,c
  7561  00CA0E  0100               	movlb	0	; () banked
  7562  00CA10  6FE6               	movwf	_mes& (0+255),b
  7563  00CA12  0100               	movlb	0	; () banked
  7564  00CA14  0E00               	movlw	0
  7565  00CA16  20F4               	addwfc	prodh,w,c
  7566  00CA18  0100               	movlb	0	; () banked
  7567  00CA1A  6FE7               	movwf	(_mes+1)& (0+255),b
  7568                           
  7569                           ; BSR set to: 0
  7570                           ;main.c: 711: anio = anio_d * 10 + anio_u;
  7571  00CA1C  0100               	movlb	0	; () banked
  7572  00CA1E  51EF               	movf	_anio_d& (0+255),w,b
  7573  00CA20  0D0A               	mullw	10
  7574  00CA22  0100               	movlb	0	; () banked
  7575  00CA24  51F0               	movf	_anio_u& (0+255),w,b
  7576  00CA26  24F3               	addwf	prodl,w,c
  7577  00CA28  0100               	movlb	0	; () banked
  7578  00CA2A  6FE2               	movwf	_anio& (0+255),b
  7579  00CA2C  0100               	movlb	0	; () banked
  7580  00CA2E  0E00               	movlw	0
  7581  00CA30  20F4               	addwfc	prodh,w,c
  7582  00CA32  0100               	movlb	0	; () banked
  7583  00CA34  6FE3               	movwf	(_anio+1)& (0+255),b
  7584                           
  7585                           ; BSR set to: 0
  7586  00CA36  0012               	return		;funcret
  7587  00CA38                     __end_of_Read_RTC:
  7588                           	opt stack 0
  7589                           tblptru	equ	0xFF8
  7590                           tblptrh	equ	0xFF7
  7591                           tblptrl	equ	0xFF6
  7592                           tablat	equ	0xFF5
  7593                           prodh	equ	0xFF4
  7594                           prodl	equ	0xFF3
  7595                           intcon	equ	0xFF2
  7596                           postinc0	equ	0xFEE
  7597                           wreg	equ	0xFE8
  7598                           postdec1	equ	0xFE5
  7599                           fsr1l	equ	0xFE1
  7600                           indf2	equ	0xFDF
  7601                           fsr2h	equ	0xFDA
  7602                           fsr2l	equ	0xFD9
  7603                           status	equ	0xFD8
  7604                           
  7605 ;; *************** function _RtccReadTime *****************
  7606 ;; Defined at:
  7607 ;;		line 23 in file "C:\Program Files (x86)\Microchip\xc8\v1.34\sources\pic18\plib\rtcc\RtccReadTime.c"
  7608 ;; Parameters:    Size  Location     Type
  7609 ;;  pTm             2    0[COMRAM] PTR struct .
  7610 ;;		 -> RtccTime(4), 
  7611 ;; Auto vars:     Size  Location     Type
  7612 ;;  rTD0            8   10[COMRAM] struct .
  7613 ;;  rTD1            8    2[COMRAM] struct .
  7614 ;; Return value:  Size  Location     Type
  7615 ;;		None               void
  7616 ;; Registers used:
  7617 ;;		wreg, fsr2l, fsr2h, status,2, status,0
  7618 ;; Tracked objects:
  7619 ;;		On entry : 0/0
  7620 ;;		On exit  : 0/0
  7621 ;;		Unchanged: 0/0
  7622 ;; Data sizes:     COMRAM   BANK0   BANK1   BANK2   BANK3   BANK4   BANK5   BANK6   BANK7   BANK8   BANK9  BANK10  BANK1
      +1  BANK12  BANK13  BANK14
  7623 ;;      Params:         2       0       0       0       0       0       0       0       0       0       0       0       
      +0       0       0       0
  7624 ;;      Locals:        16       0       0       0       0       0       0       0       0       0       0       0       
      +0       0       0       0
  7625 ;;      Temps:          0       0       0       0       0       0       0       0       0       0       0       0       
      +0       0       0       0
  7626 ;;      Totals:        18       0       0       0       0       0       0       0       0       0       0       0       
      +0       0       0       0
  7627 ;;Total ram usage:       18 bytes
  7628 ;; Hardware stack levels used:    1
  7629 ;; This function calls:
  7630 ;;		Nothing
  7631 ;; This function is called by:
  7632 ;;		_Read_RTC
  7633 ;; This function uses a non-reentrant model
  7634 ;;
  7635                           
  7636                           	psect	text19
  7637  00B71E                     __ptext19:
  7638                           	opt stack 0
  7639  00B71E                     _RtccReadTime:
  7640                           	opt stack 28
  7641  00B71E  0EFC               	movlw	252
  7642  00B720  010F               	movlb	15	; () banked
  7643  00B722  173F               	andwf	63,f,b	;volatile
  7644                           
  7645                           ; BSR set to: 15
  7646  00B724  010F               	movlb	15	; () banked
  7647  00B726  813F               	bsf	63,0,b	;volatile
  7648                           
  7649                           ; BSR set to: 15
  7650  00B728  CF98 F00F          	movff	3992,RtccReadTime@rTD0+4	;volatile
  7651                           
  7652                           ; BSR set to: 15
  7653  00B72C  CF99 F010          	movff	3993,RtccReadTime@rTD0+5	;volatile
  7654                           
  7655                           ; BSR set to: 15
  7656  00B730  CF98 F011          	movff	3992,RtccReadTime@rTD0+6	;volatile
  7657                           
  7658                           ; BSR set to: 15
  7659  00B734  CF99 F012          	movff	3993,RtccReadTime@rTD0+7	;volatile
  7660                           
  7661                           ; BSR set to: 15
  7662  00B738  0EFC               	movlw	252
  7663  00B73A  010F               	movlb	15	; () banked
  7664  00B73C  173F               	andwf	63,f,b	;volatile
  7665  00B73E  010F               	movlb	15	; () banked
  7666  00B740  813F               	bsf	63,0,b	;volatile
  7667                           
  7668                           ; BSR set to: 15
  7669  00B742  CF98 F007          	movff	3992,RtccReadTime@rTD1+4	;volatile
  7670                           
  7671                           ; BSR set to: 15
  7672  00B746  CF99 F008          	movff	3993,RtccReadTime@rTD1+5	;volatile
  7673                           
  7674                           ; BSR set to: 15
  7675  00B74A  CF98 F009          	movff	3992,RtccReadTime@rTD1+6	;volatile
  7676                           
  7677                           ; BSR set to: 15
  7678  00B74E  CF99 F00A          	movff	3993,RtccReadTime@rTD1+7	;volatile
  7679                           
  7680                           ; BSR set to: 15
  7681  00B752  5009               	movf	RtccReadTime@rTD1+6,w,c
  7682  00B754  1811               	xorwf	RtccReadTime@rTD0+6,w,c
  7683  00B756  A4D8               	btfss	status,2,c
  7684  00B758  D7E2               	goto	l5096
  7685                           
  7686                           ; BSR set to: 15
  7687                           
  7688                           ; BSR set to: 15
  7689  00B75A  EE20 F003          	lfsr	2,3
  7690  00B75E  5001               	movf	RtccReadTime@pTm,w,c
  7691  00B760  26D9               	addwf	fsr2l,f,c
  7692  00B762  5002               	movf	RtccReadTime@pTm+1,w,c
  7693  00B764  22DA               	addwfc	fsr2h,f,c
  7694  00B766  C00F  FFDF         	movff	RtccReadTime@rTD0+4,indf2
  7695  00B76A  EE20 F002          	lfsr	2,2
  7696  00B76E  5001               	movf	RtccReadTime@pTm,w,c
  7697  00B770  26D9               	addwf	fsr2l,f,c
  7698  00B772  5002               	movf	RtccReadTime@pTm+1,w,c
  7699  00B774  22DA               	addwfc	fsr2h,f,c
  7700  00B776  C012  FFDF         	movff	RtccReadTime@rTD0+7,indf2
  7701  00B77A  EE20 F001          	lfsr	2,1
  7702  00B77E  5001               	movf	RtccReadTime@pTm,w,c
  7703  00B780  26D9               	addwf	fsr2l,f,c
  7704  00B782  5002               	movf	RtccReadTime@pTm+1,w,c
  7705  00B784  22DA               	addwfc	fsr2h,f,c
  7706  00B786  C011  FFDF         	movff	RtccReadTime@rTD0+6,indf2
  7707                           
  7708                           ; BSR set to: 15
  7709  00B78A  0012               	return		;funcret
  7710  00B78C                     __end_of_RtccReadTime:
  7711                           	opt stack 0
  7712                           tblptru	equ	0xFF8
  7713                           tblptrh	equ	0xFF7
  7714                           tblptrl	equ	0xFF6
  7715                           tablat	equ	0xFF5
  7716                           prodh	equ	0xFF4
  7717                           prodl	equ	0xFF3
  7718                           intcon	equ	0xFF2
  7719                           postinc0	equ	0xFEE
  7720                           wreg	equ	0xFE8
  7721                           postdec1	equ	0xFE5
  7722                           fsr1l	equ	0xFE1
  7723                           indf2	equ	0xFDF
  7724                           fsr2h	equ	0xFDA
  7725                           fsr2l	equ	0xFD9
  7726                           status	equ	0xFD8
  7727                           
  7728 ;; *************** function _RtccReadDate *****************
  7729 ;; Defined at:
  7730 ;;		line 23 in file "C:\Program Files (x86)\Microchip\xc8\v1.34\sources\pic18\plib\rtcc\RtccReadDate.c"
  7731 ;; Parameters:    Size  Location     Type
  7732 ;;  pDt             2    0[COMRAM] PTR struct .
  7733 ;;		 -> RtccDate(4), 
  7734 ;; Auto vars:     Size  Location     Type
  7735 ;;  rTD0            8   10[COMRAM] struct .
  7736 ;;  rTD1            8    2[COMRAM] struct .
  7737 ;; Return value:  Size  Location     Type
  7738 ;;		None               void
  7739 ;; Registers used:
  7740 ;;		wreg, fsr2l, fsr2h, status,2, status,0
  7741 ;; Tracked objects:
  7742 ;;		On entry : 0/0
  7743 ;;		On exit  : 0/0
  7744 ;;		Unchanged: 0/0
  7745 ;; Data sizes:     COMRAM   BANK0   BANK1   BANK2   BANK3   BANK4   BANK5   BANK6   BANK7   BANK8   BANK9  BANK10  BANK1
      +1  BANK12  BANK13  BANK14
  7746 ;;      Params:         2       0       0       0       0       0       0       0       0       0       0       0       
      +0       0       0       0
  7747 ;;      Locals:        16       0       0       0       0       0       0       0       0       0       0       0       
      +0       0       0       0
  7748 ;;      Temps:          0       0       0       0       0       0       0       0       0       0       0       0       
      +0       0       0       0
  7749 ;;      Totals:        18       0       0       0       0       0       0       0       0       0       0       0       
      +0       0       0       0
  7750 ;;Total ram usage:       18 bytes
  7751 ;; Hardware stack levels used:    1
  7752 ;; This function calls:
  7753 ;;		Nothing
  7754 ;; This function is called by:
  7755 ;;		_Read_RTC
  7756 ;; This function uses a non-reentrant model
  7757 ;;
  7758                           
  7759                           	psect	text20
  7760  00BA04                     __ptext20:
  7761                           	opt stack 0
  7762  00BA04                     _RtccReadDate:
  7763                           	opt stack 28
  7764  00BA04  0EFC               	movlw	252
  7765  00BA06  010F               	movlb	15	; () banked
  7766  00BA08  173F               	andwf	63,f,b	;volatile
  7767  00BA0A  0E03               	movlw	3
  7768  00BA0C  010F               	movlb	15	; () banked
  7769  00BA0E  133F               	iorwf	63,f,b	;volatile
  7770                           
  7771                           ; BSR set to: 15
  7772  00BA10  CF98 F00B          	movff	3992,RtccReadDate@rTD0	;volatile
  7773                           
  7774                           ; BSR set to: 15
  7775  00BA14  CF99 F00C          	movff	3993,RtccReadDate@rTD0+1	;volatile
  7776                           
  7777                           ; BSR set to: 15
  7778  00BA18  CF98 F00D          	movff	3992,RtccReadDate@rTD0+2	;volatile
  7779                           
  7780                           ; BSR set to: 15
  7781  00BA1C  CF99 F00E          	movff	3993,RtccReadDate@rTD0+3	;volatile
  7782                           
  7783                           ; BSR set to: 15
  7784  00BA20  CF98 F00F          	movff	3992,RtccReadDate@rTD0+4	;volatile
  7785                           
  7786                           ; BSR set to: 15
  7787  00BA24  CF99 F010          	movff	3993,RtccReadDate@rTD0+5	;volatile
  7788  00BA28  0EFC               	movlw	252
  7789  00BA2A  010F               	movlb	15	; () banked
  7790  00BA2C  173F               	andwf	63,f,b	;volatile
  7791  00BA2E  0E03               	movlw	3
  7792  00BA30  010F               	movlb	15	; () banked
  7793  00BA32  133F               	iorwf	63,f,b	;volatile
  7794                           
  7795                           ; BSR set to: 15
  7796  00BA34  CF98 F003          	movff	3992,RtccReadDate@rTD1	;volatile
  7797                           
  7798                           ; BSR set to: 15
  7799  00BA38  CF99 F004          	movff	3993,RtccReadDate@rTD1+1	;volatile
  7800                           
  7801                           ; BSR set to: 15
  7802  00BA3C  CF98 F005          	movff	3992,RtccReadDate@rTD1+2	;volatile
  7803                           
  7804                           ; BSR set to: 15
  7805  00BA40  CF99 F006          	movff	3993,RtccReadDate@rTD1+3	;volatile
  7806                           
  7807                           ; BSR set to: 15
  7808  00BA44  CF98 F007          	movff	3992,RtccReadDate@rTD1+4	;volatile
  7809                           
  7810                           ; BSR set to: 15
  7811  00BA48  CF99 F008          	movff	3993,RtccReadDate@rTD1+5	;volatile
  7812  00BA4C  5005               	movf	RtccReadDate@rTD1+2,w,c
  7813  00BA4E  180D               	xorwf	RtccReadDate@rTD0+2,w,c
  7814  00BA50  A4D8               	btfss	status,2,c
  7815  00BA52  D7D8               	goto	l5122
  7816                           
  7817                           ; BSR set to: 15
  7818                           
  7819                           ; BSR set to: 15
  7820  00BA54  EE20 F001          	lfsr	2,1
  7821  00BA58  5001               	movf	RtccReadDate@pDt,w,c
  7822  00BA5A  26D9               	addwf	fsr2l,f,c
  7823  00BA5C  5002               	movf	RtccReadDate@pDt+1,w,c
  7824  00BA5E  22DA               	addwfc	fsr2h,f,c
  7825  00BA60  C00D  FFDF         	movff	RtccReadDate@rTD0+2,indf2
  7826  00BA64  EE20 F002          	lfsr	2,2
  7827  00BA68  5001               	movf	RtccReadDate@pDt,w,c
  7828  00BA6A  26D9               	addwf	fsr2l,f,c
  7829  00BA6C  5002               	movf	RtccReadDate@pDt+1,w,c
  7830  00BA6E  22DA               	addwfc	fsr2h,f,c
  7831  00BA70  C00E  FFDF         	movff	RtccReadDate@rTD0+3,indf2
  7832                           
  7833                           ; BSR set to: 15
  7834  00BA74  C001  FFD9         	movff	RtccReadDate@pDt,fsr2l
  7835  00BA78  C002  FFDA         	movff	RtccReadDate@pDt+1,fsr2h
  7836  00BA7C  C010  FFDF         	movff	RtccReadDate@rTD0+5,indf2
  7837                           
  7838                           ; BSR set to: 15
  7839  00BA80  EE20 F003          	lfsr	2,3
  7840  00BA84  5001               	movf	RtccReadDate@pDt,w,c
  7841  00BA86  26D9               	addwf	fsr2l,f,c
  7842  00BA88  5002               	movf	RtccReadDate@pDt+1,w,c
  7843  00BA8A  22DA               	addwfc	fsr2h,f,c
  7844  00BA8C  C00B  FFDF         	movff	RtccReadDate@rTD0,indf2
  7845                           
  7846                           ; BSR set to: 15
  7847  00BA90  0012               	return		;funcret
  7848  00BA92                     __end_of_RtccReadDate:
  7849                           	opt stack 0
  7850                           tblptru	equ	0xFF8
  7851                           tblptrh	equ	0xFF7
  7852                           tblptrl	equ	0xFF6
  7853                           tablat	equ	0xFF5
  7854                           prodh	equ	0xFF4
  7855                           prodl	equ	0xFF3
  7856                           intcon	equ	0xFF2
  7857                           postinc0	equ	0xFEE
  7858                           wreg	equ	0xFE8
  7859                           postdec1	equ	0xFE5
  7860                           fsr1l	equ	0xFE1
  7861                           indf2	equ	0xFDF
  7862                           fsr2h	equ	0xFDA
  7863                           fsr2l	equ	0xFD9
  7864                           status	equ	0xFD8
  7865                           
  7866 ;; *************** function _Lcd_Out *****************
  7867 ;; Defined at:
  7868 ;;		line 84 in file "../lcd.h"
  7869 ;; Parameters:    Size  Location     Type
  7870 ;;  y               1    wreg     unsigned char 
  7871 ;;  x               1   83[COMRAM] unsigned char 
  7872 ;;  buffer          2   84[COMRAM] PTR const unsigned char 
  7873 ;;		 -> STR_79(1), Convert_diasem@buffer_dia(20), STR_64(1), STR_63(1), 
  7874 ;;		 -> STR_62(1), STR_61(21), STR_60(21), STR_59(21), 
  7875 ;;		 -> STR_58(21), STR_57(1), STR_55(1), STR_53(1), 
  7876 ;;		 -> STR_51(21), STR_50(21), STR_49(21), STR_40(1), 
  7877 ;;		 -> STR_39(1), STR_30(1), STR_27(21), STR_24(21), 
  7878 ;;		 -> STR_18(1), STR_17(1), STR_16(1), STR_10(1), 
  7879 ;;		 -> STR_8(1), STR_5(21), buffer1(20), STR_1(21), 
  7880 ;; Auto vars:     Size  Location     Type
  7881 ;;  y               1   86[COMRAM] unsigned char 
  7882 ;;  data            1   87[COMRAM] unsigned char 
  7883 ;; Return value:  Size  Location     Type
  7884 ;;		None               void
  7885 ;; Registers used:
  7886 ;;		wreg, fsr0l, fsr0h, status,2, status,0, tblptrl, tblptrh, tblptru, cstack
  7887 ;; Tracked objects:
  7888 ;;		On entry : 0/0
  7889 ;;		On exit  : 0/0
  7890 ;;		Unchanged: 0/0
  7891 ;; Data sizes:     COMRAM   BANK0   BANK1   BANK2   BANK3   BANK4   BANK5   BANK6   BANK7   BANK8   BANK9  BANK10  BANK1
      +1  BANK12  BANK13  BANK14
  7892 ;;      Params:         3       0       0       0       0       0       0       0       0       0       0       0       
      +0       0       0       0
  7893 ;;      Locals:         2       0       0       0       0       0       0       0       0       0       0       0       
      +0       0       0       0
  7894 ;;      Temps:          0       0       0       0       0       0       0       0       0       0       0       0       
      +0       0       0       0
  7895 ;;      Totals:         5       0       0       0       0       0       0       0       0       0       0       0       
      +0       0       0       0
  7896 ;;Total ram usage:        5 bytes
  7897 ;; Hardware stack levels used:    1
  7898 ;; Hardware stack levels required when called:    1
  7899 ;; This function calls:
  7900 ;;		_Lcd_Chr_CP
  7901 ;;		_Lcd_Cmd
  7902 ;; This function is called by:
  7903 ;;		_V_Principal
  7904 ;;		_V_ProgReloj
  7905 ;;		_V_ProgRiegoIlum
  7906 ;;		_V_ProgTempAgua
  7907 ;;		_V_Reiniciar
  7908 ;;		_escribir
  7909 ;; This function uses a non-reentrant model
  7910 ;;
  7911                           
  7912                           	psect	text21
  7913  00BA92                     __ptext21:
  7914                           	opt stack 0
  7915  00BA92                     _Lcd_Out:
  7916                           	opt stack 28
  7917                           
  7918                           ; BSR set to: 15
  7919                           ;incstack = 0
  7920                           ;Lcd_Out@y stored from wreg
  7921  00BA92  6E57               	movwf	Lcd_Out@y,c
  7922                           
  7923                           ;lcd.h: 86: unsigned char data;
  7924                           ;lcd.h: 87: switch (y)
  7925  00BA94  D00D               	goto	l4366
  7926  00BA96                     l4356:
  7927  00BA96  5054               	movf	Lcd_Out@x,w,c
  7928  00BA98  0F80               	addlw	128
  7929  00BA9A  D008               	goto	L7
  7930  00BA9C                     l4358:
  7931  00BA9C  5054               	movf	Lcd_Out@x,w,c
  7932  00BA9E  0FC0               	addlw	192
  7933  00BAA0  D005               	goto	L7
  7934  00BAA2                     l4360:
  7935  00BAA2  5054               	movf	Lcd_Out@x,w,c
  7936  00BAA4  0F94               	addlw	148
  7937  00BAA6  D002               	goto	L7
  7938  00BAA8                     l4362:
  7939  00BAA8  5054               	movf	Lcd_Out@x,w,c
  7940  00BAAA  0FD4               	addlw	212
  7941  00BAAC                     L7:
  7942  00BAAC  6E58               	movwf	Lcd_Out@data,c
  7943                           
  7944                           ;lcd.h: 94: }
  7945                           
  7946                           ;lcd.h: 93: default: break;
  7947  00BAAE  D00E               	goto	l4368
  7948  00BAB0                     l4366:
  7949  00BAB0  5057               	movf	Lcd_Out@y,w,c
  7950                           
  7951                           ; Switch size 1, requested type "space"
  7952                           ; Number of cases is 4, Range of values is 1 to 4
  7953                           ; switch strategies available:
  7954                           ; Name         Instructions Cycles
  7955                           ; simple_byte           13     7 (average)
  7956                           ;	Chosen strategy is simple_byte
  7957  00BAB2  0A01               	xorlw	1	; case 1
  7958  00BAB4  B4D8               	btfsc	status,2,c
  7959  00BAB6  D7EF               	goto	l4356
  7960  00BAB8  0A03               	xorlw	3	; case 2
  7961  00BABA  B4D8               	btfsc	status,2,c
  7962  00BABC  D7EF               	goto	l4358
  7963  00BABE  0A01               	xorlw	1	; case 3
  7964  00BAC0  B4D8               	btfsc	status,2,c
  7965  00BAC2  D7EF               	goto	l4360
  7966  00BAC4  0A07               	xorlw	7	; case 4
  7967  00BAC6  B4D8               	btfsc	status,2,c
  7968  00BAC8  D7EF               	goto	l4362
  7969  00BACA  D000               	goto	l4368
  7970  00BACC                     l4368:
  7971                           
  7972                           ;lcd.h: 95: Lcd_Cmd(data);
  7973  00BACC  5058               	movf	Lcd_Out@data,w,c
  7974  00BACE  EC20  F062         	call	_Lcd_Cmd
  7975                           
  7976                           ;lcd.h: 96: while(*buffer)
  7977  00BAD2  D015               	goto	l4374
  7978  00BAD4                     l4370:
  7979                           
  7980                           ;lcd.h: 97: {
  7981                           ;lcd.h: 98: Lcd_Chr_CP(*buffer);
  7982  00BAD4  C055  FFF6         	movff	Lcd_Out@buffer,tblptrl
  7983  00BAD8  C056  FFF7         	movff	Lcd_Out@buffer+1,tblptrh
  7984  00BADC  6AF8               	clrf	tblptru,c
  7985  00BADE  0E0E               	movlw	(high __ramtop+-1)
  7986  00BAE0  64F7               	cpfsgt	tblptrh,c
  7987  00BAE2  D003               	bra	u4867
  7988  00BAE4  0008               	tblrd		*
  7989  00BAE6  50F5               	movf	tablat,w,c
  7990  00BAE8  D005               	bra	u4860
  7991  00BAEA                     u4867:
  7992  00BAEA  CFF6 FFE9          	movff	tblptrl,fsr0l
  7993  00BAEE  CFF7 FFEA          	movff	tblptrh,fsr0h
  7994  00BAF2  50EF               	movf	indf0,w,c
  7995  00BAF4                     u4860:
  7996  00BAF4  ECB0  F062         	call	_Lcd_Chr_CP
  7997                           
  7998                           ;lcd.h: 99: buffer++;
  7999  00BAF8  4A55               	infsnz	Lcd_Out@buffer,f,c
  8000  00BAFA  2A56               	incf	Lcd_Out@buffer+1,f,c
  8001  00BAFC  D000               	goto	l4374
  8002  00BAFE                     l4374:
  8003  00BAFE  C055  FFF6         	movff	Lcd_Out@buffer,tblptrl
  8004  00BB02  C056  FFF7         	movff	Lcd_Out@buffer+1,tblptrh
  8005  00BB06  6AF8               	clrf	tblptru,c
  8006  00BB08  0E0E               	movlw	(high __ramtop+-1)
  8007  00BB0A  64F7               	cpfsgt	tblptrh,c
  8008  00BB0C  D003               	bra	u4877
  8009  00BB0E  0008               	tblrd		*
  8010  00BB10  50F5               	movf	tablat,w,c
  8011  00BB12  D005               	bra	u4870
  8012  00BB14                     u4877:
  8013  00BB14  CFF6 FFE9          	movff	tblptrl,fsr0l
  8014  00BB18  CFF7 FFEA          	movff	tblptrh,fsr0h
  8015  00BB1C  50EF               	movf	indf0,w,c
  8016  00BB1E                     u4870:
  8017  00BB1E  0900               	iorlw	0
  8018  00BB20  A4D8               	btfss	status,2,c
  8019  00BB22  D7D8               	goto	l4370
  8020                           
  8021                           ;lcd.h: 100: }
  8022                           ;lcd.h: 101: return;
  8023  00BB24  0012               	return		;funcret
  8024  00BB26                     __end_of_Lcd_Out:
  8025                           	opt stack 0
  8026                           tblptru	equ	0xFF8
  8027                           tblptrh	equ	0xFF7
  8028                           tblptrl	equ	0xFF6
  8029                           tablat	equ	0xFF5
  8030                           prodh	equ	0xFF4
  8031                           prodl	equ	0xFF3
  8032                           intcon	equ	0xFF2
  8033                           indf0	equ	0xFEF
  8034                           postinc0	equ	0xFEE
  8035                           fsr0h	equ	0xFEA
  8036                           fsr0l	equ	0xFE9
  8037                           wreg	equ	0xFE8
  8038                           postdec1	equ	0xFE5
  8039                           fsr1l	equ	0xFE1
  8040                           indf2	equ	0xFDF
  8041                           fsr2h	equ	0xFDA
  8042                           fsr2l	equ	0xFD9
  8043                           status	equ	0xFD8
  8044                           
  8045 ;; *************** function _Lcd_Chr_CP *****************
  8046 ;; Defined at:
  8047 ;;		line 126 in file "../lcd.h"
  8048 ;; Parameters:    Size  Location     Type
  8049 ;;  data            1    wreg     unsigned char 
  8050 ;; Auto vars:     Size  Location     Type
  8051 ;;  data            1    2[COMRAM] unsigned char 
  8052 ;; Return value:  Size  Location     Type
  8053 ;;		None               void
  8054 ;; Registers used:
  8055 ;;		wreg, status,2, status,0
  8056 ;; Tracked objects:
  8057 ;;		On entry : 0/0
  8058 ;;		On exit  : 0/0
  8059 ;;		Unchanged: 0/0
  8060 ;; Data sizes:     COMRAM   BANK0   BANK1   BANK2   BANK3   BANK4   BANK5   BANK6   BANK7   BANK8   BANK9  BANK10  BANK1
      +1  BANK12  BANK13  BANK14
  8061 ;;      Params:         0       0       0       0       0       0       0       0       0       0       0       0       
      +0       0       0       0
  8062 ;;      Locals:         1       0       0       0       0       0       0       0       0       0       0       0       
      +0       0       0       0
  8063 ;;      Temps:          2       0       0       0       0       0       0       0       0       0       0       0       
      +0       0       0       0
  8064 ;;      Totals:         3       0       0       0       0       0       0       0       0       0       0       0       
      +0       0       0       0
  8065 ;;Total ram usage:        3 bytes
  8066 ;; Hardware stack levels used:    1
  8067 ;; This function calls:
  8068 ;;		Nothing
  8069 ;; This function is called by:
  8070 ;;		_Lcd_Out
  8071 ;;		_Lcd_Out2
  8072 ;; This function uses a non-reentrant model
  8073 ;;
  8074                           
  8075                           	psect	text22
  8076  00C560                     __ptext22:
  8077                           	opt stack 0
  8078  00C560                     _Lcd_Chr_CP:
  8079                           	opt stack 28
  8080                           
  8081                           ;incstack = 0
  8082                           ;Lcd_Chr_CP@data stored from wreg
  8083  00C560  6E03               	movwf	Lcd_Chr_CP@data,c
  8084                           
  8085                           ;lcd.h: 127: LATBbits.LATB4 = 0; LATBbits.LATB5 = 1;
  8086  00C562  988A               	bcf	3978,4,c	;volatile
  8087  00C564  8A8A               	bsf	3978,5,c	;volatile
  8088                           
  8089                           ;lcd.h: 128: LATBbits.LATB0 = (data & 0b10000000)>>7; LATBbits.LATB1 = (data & 0b0100000
      +                          0)>>6;
  8090  00C566  6A01               	clrf	??_Lcd_Chr_CP& (0+255),c
  8091  00C568  AE03               	btfss	Lcd_Chr_CP@data,7,c
  8092  00C56A  D001               	bra	u4385
  8093  00C56C  2A01               	incf	??_Lcd_Chr_CP& (0+255),f,c
  8094  00C56E                     u4385:
  8095  00C56E  0E01               	movlw	1
  8096  00C570  1601               	andwf	??_Lcd_Chr_CP,f,c
  8097  00C572  508A               	movf	3978,w,c	;volatile
  8098  00C574  1801               	xorwf	??_Lcd_Chr_CP,w,c
  8099  00C576  0BFE               	andlw	-2
  8100  00C578  1801               	xorwf	??_Lcd_Chr_CP,w,c
  8101  00C57A  6E8A               	movwf	3978,c	;volatile
  8102  00C57C  C003  F001         	movff	Lcd_Chr_CP@data,??_Lcd_Chr_CP
  8103  00C580  0E06               	movlw	6
  8104  00C582  6E02               	movwf	(??_Lcd_Chr_CP+1)& (0+255),c
  8105  00C584                     u4395:
  8106  00C584  90D8               	bcf	status,0,c
  8107  00C586  3201               	rrcf	??_Lcd_Chr_CP,f,c
  8108  00C588  2E02               	decfsz	(??_Lcd_Chr_CP+1)& (0+255),f,c
  8109  00C58A  D7FC               	goto	u4395
  8110  00C58C  0E01               	movlw	1
  8111  00C58E  1601               	andwf	??_Lcd_Chr_CP,f,c
  8112  00C590  4601               	rlncf	??_Lcd_Chr_CP,f,c
  8113  00C592  508A               	movf	3978,w,c	;volatile
  8114  00C594  1801               	xorwf	??_Lcd_Chr_CP,w,c
  8115  00C596  0BFD               	andlw	-3
  8116  00C598  1801               	xorwf	??_Lcd_Chr_CP,w,c
  8117  00C59A  6E8A               	movwf	3978,c	;volatile
  8118                           
  8119                           ;lcd.h: 129: LATBbits.LATB2 = (data & 0b00100000)>>5; LATBbits.LATB3 = (data & 0b0001000
      +                          0)>>4;
  8120  00C59C  C003  F001         	movff	Lcd_Chr_CP@data,??_Lcd_Chr_CP
  8121  00C5A0  0E05               	movlw	5
  8122  00C5A2  6E02               	movwf	(??_Lcd_Chr_CP+1)& (0+255),c
  8123  00C5A4                     u4405:
  8124  00C5A4  90D8               	bcf	status,0,c
  8125  00C5A6  3201               	rrcf	??_Lcd_Chr_CP,f,c
  8126  00C5A8  2E02               	decfsz	(??_Lcd_Chr_CP+1)& (0+255),f,c
  8127  00C5AA  D7FC               	goto	u4405
  8128  00C5AC  0E01               	movlw	1
  8129  00C5AE  1601               	andwf	??_Lcd_Chr_CP,f,c
  8130  00C5B0  4601               	rlncf	??_Lcd_Chr_CP,f,c
  8131  00C5B2  4601               	rlncf	??_Lcd_Chr_CP,f,c
  8132  00C5B4  508A               	movf	3978,w,c	;volatile
  8133  00C5B6  1801               	xorwf	??_Lcd_Chr_CP,w,c
  8134  00C5B8  0BFB               	andlw	-5
  8135  00C5BA  1801               	xorwf	??_Lcd_Chr_CP,w,c
  8136  00C5BC  6E8A               	movwf	3978,c	;volatile
  8137  00C5BE  C003  F001         	movff	Lcd_Chr_CP@data,??_Lcd_Chr_CP
  8138  00C5C2  3A01               	swapf	??_Lcd_Chr_CP,f,c
  8139  00C5C4  0E0F               	movlw	15
  8140  00C5C6  1601               	andwf	??_Lcd_Chr_CP,f,c
  8141  00C5C8  0E01               	movlw	1
  8142  00C5CA  1601               	andwf	??_Lcd_Chr_CP,f,c
  8143  00C5CC  4601               	rlncf	??_Lcd_Chr_CP,f,c
  8144  00C5CE  4601               	rlncf	??_Lcd_Chr_CP,f,c
  8145  00C5D0  4601               	rlncf	??_Lcd_Chr_CP,f,c
  8146  00C5D2  508A               	movf	3978,w,c	;volatile
  8147  00C5D4  1801               	xorwf	??_Lcd_Chr_CP,w,c
  8148  00C5D6  0BF7               	andlw	-9
  8149  00C5D8  1801               	xorwf	??_Lcd_Chr_CP,w,c
  8150  00C5DA  6E8A               	movwf	3978,c	;volatile
  8151                           
  8152                           ;lcd.h: 130: _delay(10);
  8153  00C5DC  0E03               	movlw	3
  8154  00C5DE                     u7887:
  8155  00C5DE  2EE8               	decfsz	wreg,f,c
  8156  00C5E0  D7FE               	goto	u7887
  8157  00C5E2  F000               	nop	
  8158                           
  8159                           ;lcd.h: 131: LATBbits.LATB4 = 1; _delay((unsigned long)((5)*(8000000/4000000.0))); LATBb
      +                          its.LATB4 = 0;
  8160  00C5E4  888A               	bsf	3978,4,c	;volatile
  8161  00C5E6  0E03               	movlw	3
  8162  00C5E8                     u7897:
  8163  00C5E8  2EE8               	decfsz	wreg,f,c
  8164  00C5EA  D7FE               	goto	u7897
  8165  00C5EC  F000               	nop	
  8166  00C5EE  988A               	bcf	3978,4,c	;volatile
  8167                           
  8168                           ;lcd.h: 132: LATBbits.LATB0 = (data & 0b00001000)>>3; LATBbits.LATB1 = (data & 0b0000010
      +                          0)>>2;
  8169  00C5F0  C003  F001         	movff	Lcd_Chr_CP@data,??_Lcd_Chr_CP
  8170  00C5F4  90D8               	bcf	status,0,c
  8171  00C5F6  3201               	rrcf	??_Lcd_Chr_CP,f,c
  8172  00C5F8  90D8               	bcf	status,0,c
  8173  00C5FA  3201               	rrcf	??_Lcd_Chr_CP,f,c
  8174  00C5FC  90D8               	bcf	status,0,c
  8175  00C5FE  3201               	rrcf	??_Lcd_Chr_CP,f,c
  8176  00C600  0E01               	movlw	1
  8177  00C602  1601               	andwf	??_Lcd_Chr_CP,f,c
  8178  00C604  508A               	movf	3978,w,c	;volatile
  8179  00C606  1801               	xorwf	??_Lcd_Chr_CP,w,c
  8180  00C608  0BFE               	andlw	-2
  8181  00C60A  1801               	xorwf	??_Lcd_Chr_CP,w,c
  8182  00C60C  6E8A               	movwf	3978,c	;volatile
  8183  00C60E  C003  F001         	movff	Lcd_Chr_CP@data,??_Lcd_Chr_CP
  8184  00C612  90D8               	bcf	status,0,c
  8185  00C614  3201               	rrcf	??_Lcd_Chr_CP,f,c
  8186  00C616  90D8               	bcf	status,0,c
  8187  00C618  3201               	rrcf	??_Lcd_Chr_CP,f,c
  8188  00C61A  0E01               	movlw	1
  8189  00C61C  1601               	andwf	??_Lcd_Chr_CP,f,c
  8190  00C61E  4601               	rlncf	??_Lcd_Chr_CP,f,c
  8191  00C620  508A               	movf	3978,w,c	;volatile
  8192  00C622  1801               	xorwf	??_Lcd_Chr_CP,w,c
  8193  00C624  0BFD               	andlw	-3
  8194  00C626  1801               	xorwf	??_Lcd_Chr_CP,w,c
  8195  00C628  6E8A               	movwf	3978,c	;volatile
  8196                           
  8197                           ;lcd.h: 133: LATBbits.LATB2 = (data & 0b00000010)>>1; LATBbits.LATB3 = (data & 0b0000000
      +                          1);
  8198  00C62A  C003  F001         	movff	Lcd_Chr_CP@data,??_Lcd_Chr_CP
  8199  00C62E  90D8               	bcf	status,0,c
  8200  00C630  3201               	rrcf	??_Lcd_Chr_CP,f,c
  8201  00C632  0E01               	movlw	1
  8202  00C634  1601               	andwf	??_Lcd_Chr_CP,f,c
  8203  00C636  4601               	rlncf	??_Lcd_Chr_CP,f,c
  8204  00C638  4601               	rlncf	??_Lcd_Chr_CP,f,c
  8205  00C63A  508A               	movf	3978,w,c	;volatile
  8206  00C63C  1801               	xorwf	??_Lcd_Chr_CP,w,c
  8207  00C63E  0BFB               	andlw	-5
  8208  00C640  1801               	xorwf	??_Lcd_Chr_CP,w,c
  8209  00C642  6E8A               	movwf	3978,c	;volatile
  8210  00C644  C003  F001         	movff	Lcd_Chr_CP@data,??_Lcd_Chr_CP
  8211  00C648  0E01               	movlw	1
  8212  00C64A  1601               	andwf	??_Lcd_Chr_CP,f,c
  8213  00C64C  4601               	rlncf	??_Lcd_Chr_CP,f,c
  8214  00C64E  4601               	rlncf	??_Lcd_Chr_CP,f,c
  8215  00C650  4601               	rlncf	??_Lcd_Chr_CP,f,c
  8216  00C652  508A               	movf	3978,w,c	;volatile
  8217  00C654  1801               	xorwf	??_Lcd_Chr_CP,w,c
  8218  00C656  0BF7               	andlw	-9
  8219  00C658  1801               	xorwf	??_Lcd_Chr_CP,w,c
  8220  00C65A  6E8A               	movwf	3978,c	;volatile
  8221                           
  8222                           ;lcd.h: 134: _delay(10);
  8223  00C65C  0E03               	movlw	3
  8224  00C65E                     u7907:
  8225  00C65E  2EE8               	decfsz	wreg,f,c
  8226  00C660  D7FE               	goto	u7907
  8227  00C662  F000               	nop	
  8228                           
  8229                           ;lcd.h: 135: LATBbits.LATB4 = 1; _delay((unsigned long)((5)*(8000000/4000000.0))); LATBb
      +                          its.LATB4 = 0;
  8230  00C664  888A               	bsf	3978,4,c	;volatile
  8231  00C666  0E03               	movlw	3
  8232  00C668                     u7917:
  8233  00C668  2EE8               	decfsz	wreg,f,c
  8234  00C66A  D7FE               	goto	u7917
  8235  00C66C  F000               	nop	
  8236  00C66E  988A               	bcf	3978,4,c	;volatile
  8237                           
  8238                           ;lcd.h: 136: _delay((unsigned long)((5)*(8000000/4000000.0))); _delay((unsigned long)((5
      +                          500)*(8000000/4000000.0)));
  8239  00C670  0E03               	movlw	3
  8240  00C672                     u7927:
  8241  00C672  2EE8               	decfsz	wreg,f,c
  8242  00C674  D7FE               	goto	u7927
  8243  00C676  F000               	nop	
  8244  00C678  0E0F               	movlw	15
  8245  00C67A  6E01               	movwf	??_Lcd_Chr_CP& (0+255),c
  8246  00C67C  0E48               	movlw	72
  8247  00C67E                     u7937:
  8248  00C67E  2EE8               	decfsz	wreg,f,c
  8249  00C680  D7FE               	goto	u7937
  8250  00C682  2E01               	decfsz	??_Lcd_Chr_CP& (0+255),f,c
  8251  00C684  D7FC               	goto	u7937
  8252  00C686  0012               	return		;funcret
  8253  00C688                     __end_of_Lcd_Chr_CP:
  8254                           	opt stack 0
  8255                           tblptru	equ	0xFF8
  8256                           tblptrh	equ	0xFF7
  8257                           tblptrl	equ	0xFF6
  8258                           tablat	equ	0xFF5
  8259                           prodh	equ	0xFF4
  8260                           prodl	equ	0xFF3
  8261                           intcon	equ	0xFF2
  8262                           indf0	equ	0xFEF
  8263                           postinc0	equ	0xFEE
  8264                           fsr0h	equ	0xFEA
  8265                           fsr0l	equ	0xFE9
  8266                           wreg	equ	0xFE8
  8267                           postdec1	equ	0xFE5
  8268                           fsr1l	equ	0xFE1
  8269                           indf2	equ	0xFDF
  8270                           fsr2h	equ	0xFDA
  8271                           fsr2l	equ	0xFD9
  8272                           status	equ	0xFD8
  8273                           
  8274 ;; *************** function _Convert_diasem *****************
  8275 ;; Defined at:
  8276 ;;		line 730 in file "../main.c"
  8277 ;; Parameters:    Size  Location     Type
  8278 ;;  dia             2   79[COMRAM] int 
  8279 ;; Auto vars:     Size  Location     Type
  8280 ;;  buffer_dia     20   40[BANK0 ] unsigned char [20]
  8281 ;; Return value:  Size  Location     Type
  8282 ;;                  2   79[COMRAM] PTR unsigned char 
  8283 ;; Registers used:
  8284 ;;		wreg, fsr0l, fsr0h, fsr2l, fsr2h, status,2, status,0, tblptrl, tblptrh, tblptru, prodl, prodh, cstack
  8285 ;; Tracked objects:
  8286 ;;		On entry : 0/0
  8287 ;;		On exit  : 0/0
  8288 ;;		Unchanged: 0/0
  8289 ;; Data sizes:     COMRAM   BANK0   BANK1   BANK2   BANK3   BANK4   BANK5   BANK6   BANK7   BANK8   BANK9  BANK10  BANK1
      +1  BANK12  BANK13  BANK14
  8290 ;;      Params:         2       0       0       0       0       0       0       0       0       0       0       0       
      +0       0       0       0
  8291 ;;      Locals:         0      20       0       0       0       0       0       0       0       0       0       0       
      +0       0       0       0
  8292 ;;      Temps:          2       0       0       0       0       0       0       0       0       0       0       0       
      +0       0       0       0
  8293 ;;      Totals:         4      20       0       0       0       0       0       0       0       0       0       0       
      +0       0       0       0
  8294 ;;Total ram usage:       24 bytes
  8295 ;; Hardware stack levels used:    1
  8296 ;; Hardware stack levels required when called:    4
  8297 ;; This function calls:
  8298 ;;		_sprintf
  8299 ;; This function is called by:
  8300 ;;		_V_Principal
  8301 ;;		_V_ProgReloj
  8302 ;; This function uses a non-reentrant model
  8303 ;;
  8304                           
  8305                           	psect	text23
  8306  00C322                     __ptext23:
  8307                           	opt stack 0
  8308  00C322                     _Convert_diasem:
  8309                           	opt stack 25
  8310                           
  8311                           ;main.c: 732: unsigned char buffer_dia[20];
  8312                           ;main.c: 734: switch (dia) {
  8313                           
  8314                           ;incstack = 0
  8315  00C322  D069               	goto	l5264
  8316  00C324                     l5248:
  8317                           
  8318                           ;main.c: 736: {
  8319                           ;main.c: 737: sprintf(buffer_dia, "%s", "Domingo             ");
  8320  00C324  0E88               	movlw	low Convert_diasem@buffer_dia
  8321  00C326  6E40               	movwf	sprintf@sp,c
  8322  00C328  0E00               	movlw	high Convert_diasem@buffer_dia
  8323  00C32A  6E41               	movwf	sprintf@sp+1,c
  8324  00C32C  0EF4               	movlw	low STR_65
  8325  00C32E  6E42               	movwf	sprintf@f,c
  8326  00C330  0EFF               	movlw	high STR_65
  8327  00C332  6E43               	movwf	sprintf@f+1,c
  8328  00C334  0E5F               	movlw	low STR_66
  8329  00C336  6E44               	movwf	?_sprintf+4,c
  8330  00C338  0EFE               	movlw	high STR_66
  8331  00C33A  6E45               	movwf	?_sprintf+5,c
  8332  00C33C  EC87  F074         	call	_sprintf	;wreg free
  8333                           
  8334                           ;main.c: 738: break;
  8335  00C340  D079               	goto	l5266
  8336  00C342                     l5250:
  8337                           
  8338                           ;main.c: 741: {
  8339                           ;main.c: 742: sprintf(buffer_dia, "%s", "Lunes               ");
  8340  00C342  0E88               	movlw	low Convert_diasem@buffer_dia
  8341  00C344  6E40               	movwf	sprintf@sp,c
  8342  00C346  0E00               	movlw	high Convert_diasem@buffer_dia
  8343  00C348  6E41               	movwf	sprintf@sp+1,c
  8344  00C34A  0EF4               	movlw	low STR_65
  8345  00C34C  6E42               	movwf	sprintf@f,c
  8346  00C34E  0EFF               	movlw	high STR_65
  8347  00C350  6E43               	movwf	sprintf@f+1,c
  8348  00C352  0E0B               	movlw	low STR_68
  8349  00C354  6E44               	movwf	?_sprintf+4,c
  8350  00C356  0EFE               	movlw	high STR_68
  8351  00C358  6E45               	movwf	?_sprintf+5,c
  8352  00C35A  EC87  F074         	call	_sprintf	;wreg free
  8353                           
  8354                           ;main.c: 743: break;
  8355  00C35E  D06A               	goto	l5266
  8356  00C360                     l5252:
  8357                           
  8358                           ;main.c: 746: {
  8359                           ;main.c: 747: sprintf(buffer_dia, "%s", "Martes              ");
  8360  00C360  0E88               	movlw	low Convert_diasem@buffer_dia
  8361  00C362  6E40               	movwf	sprintf@sp,c
  8362  00C364  0E00               	movlw	high Convert_diasem@buffer_dia
  8363  00C366  6E41               	movwf	sprintf@sp+1,c
  8364  00C368  0EF4               	movlw	low STR_65
  8365  00C36A  6E42               	movwf	sprintf@f,c
  8366  00C36C  0EFF               	movlw	high STR_65
  8367  00C36E  6E43               	movwf	sprintf@f+1,c
  8368  00C370  0E35               	movlw	low STR_70
  8369  00C372  6E44               	movwf	?_sprintf+4,c
  8370  00C374  0EFE               	movlw	high STR_70
  8371  00C376  6E45               	movwf	?_sprintf+5,c
  8372  00C378  EC87  F074         	call	_sprintf	;wreg free
  8373                           
  8374                           ;main.c: 748: break;
  8375  00C37C  D05B               	goto	l5266
  8376  00C37E                     l5254:
  8377                           
  8378                           ;main.c: 751: {
  8379                           ;main.c: 752: sprintf(buffer_dia, "%s", "Miercoles           ");
  8380  00C37E  0E88               	movlw	low Convert_diasem@buffer_dia
  8381  00C380  6E40               	movwf	sprintf@sp,c
  8382  00C382  0E00               	movlw	high Convert_diasem@buffer_dia
  8383  00C384  6E41               	movwf	sprintf@sp+1,c
  8384  00C386  0EF4               	movlw	low STR_65
  8385  00C388  6E42               	movwf	sprintf@f,c
  8386  00C38A  0EFF               	movlw	high STR_65
  8387  00C38C  6E43               	movwf	sprintf@f+1,c
  8388  00C38E  0E89               	movlw	low STR_72
  8389  00C390  6E44               	movwf	?_sprintf+4,c
  8390  00C392  0EFE               	movlw	high STR_72
  8391  00C394  6E45               	movwf	?_sprintf+5,c
  8392  00C396  EC87  F074         	call	_sprintf	;wreg free
  8393                           
  8394                           ;main.c: 753: break;
  8395  00C39A  D04C               	goto	l5266
  8396  00C39C                     l5256:
  8397                           
  8398                           ;main.c: 756: {
  8399                           ;main.c: 757: sprintf(buffer_dia, "%s", "Jueves              ");
  8400  00C39C  0E88               	movlw	low Convert_diasem@buffer_dia
  8401  00C39E  6E40               	movwf	sprintf@sp,c
  8402  00C3A0  0E00               	movlw	high Convert_diasem@buffer_dia
  8403  00C3A2  6E41               	movwf	sprintf@sp+1,c
  8404  00C3A4  0EF4               	movlw	low STR_65
  8405  00C3A6  6E42               	movwf	sprintf@f,c
  8406  00C3A8  0EFF               	movlw	high STR_65
  8407  00C3AA  6E43               	movwf	sprintf@f+1,c
  8408  00C3AC  0E4A               	movlw	low STR_74
  8409  00C3AE  6E44               	movwf	?_sprintf+4,c
  8410  00C3B0  0EFE               	movlw	high STR_74
  8411  00C3B2  6E45               	movwf	?_sprintf+5,c
  8412  00C3B4  EC87  F074         	call	_sprintf	;wreg free
  8413                           
  8414                           ;main.c: 758: break;
  8415  00C3B8  D03D               	goto	l5266
  8416  00C3BA                     l5258:
  8417                           
  8418                           ;main.c: 761: {
  8419                           ;main.c: 762: sprintf(buffer_dia, "%s", "Viernes             ");
  8420  00C3BA  0E88               	movlw	low Convert_diasem@buffer_dia
  8421  00C3BC  6E40               	movwf	sprintf@sp,c
  8422  00C3BE  0E00               	movlw	high Convert_diasem@buffer_dia
  8423  00C3C0  6E41               	movwf	sprintf@sp+1,c
  8424  00C3C2  0EF4               	movlw	low STR_65
  8425  00C3C4  6E42               	movwf	sprintf@f,c
  8426  00C3C6  0EFF               	movlw	high STR_65
  8427  00C3C8  6E43               	movwf	sprintf@f+1,c
  8428  00C3CA  0E74               	movlw	low STR_76
  8429  00C3CC  6E44               	movwf	?_sprintf+4,c
  8430  00C3CE  0EFE               	movlw	high STR_76
  8431  00C3D0  6E45               	movwf	?_sprintf+5,c
  8432  00C3D2  EC87  F074         	call	_sprintf	;wreg free
  8433                           
  8434                           ;main.c: 763: break;
  8435  00C3D6  D02E               	goto	l5266
  8436  00C3D8                     l5260:
  8437                           
  8438                           ;main.c: 766: {
  8439                           ;main.c: 767: sprintf(buffer_dia, "%s", "Sabado              ");
  8440  00C3D8  0E88               	movlw	low Convert_diasem@buffer_dia
  8441  00C3DA  6E40               	movwf	sprintf@sp,c
  8442  00C3DC  0E00               	movlw	high Convert_diasem@buffer_dia
  8443  00C3DE  6E41               	movwf	sprintf@sp+1,c
  8444  00C3E0  0EF4               	movlw	low STR_65
  8445  00C3E2  6E42               	movwf	sprintf@f,c
  8446  00C3E4  0EFF               	movlw	high STR_65
  8447  00C3E6  6E43               	movwf	sprintf@f+1,c
  8448  00C3E8  0E20               	movlw	low STR_78
  8449  00C3EA  6E44               	movwf	?_sprintf+4,c
  8450  00C3EC  0EFE               	movlw	high STR_78
  8451  00C3EE  6E45               	movwf	?_sprintf+5,c
  8452  00C3F0  EC87  F074         	call	_sprintf	;wreg free
  8453                           
  8454                           ;main.c: 769: }
  8455                           ;main.c: 770: }
  8456                           
  8457                           ;main.c: 768: break;
  8458  00C3F4  D01F               	goto	l5266
  8459  00C3F6                     l5264:
  8460  00C3F6  C050  F052         	movff	Convert_diasem@dia,??_Convert_diasem
  8461  00C3FA  C051  F053         	movff	Convert_diasem@dia+1,??_Convert_diasem+1
  8462                           
  8463                           ; Switch on 2 bytes has been partitioned into a top level switch of size 1, and 1 sub-sw
      +                          itches
  8464                           ; Switch size 1, requested type "space"
  8465                           ; Number of cases is 1, Range of values is 0 to 0
  8466                           ; switch strategies available:
  8467                           ; Name         Instructions Cycles
  8468                           ; simple_byte            4     3 (average)
  8469                           ;	Chosen strategy is simple_byte
  8470  00C3FE  5053               	movf	??_Convert_diasem+1,w,c
  8471  00C400  0A00               	xorlw	0	; case 0
  8472  00C402  A4D8               	btfss	status,2,c
  8473  00C404  D017               	goto	l5266
  8474                           
  8475                           ; Switch size 1, requested type "space"
  8476                           ; Number of cases is 7, Range of values is 0 to 6
  8477                           ; switch strategies available:
  8478                           ; Name         Instructions Cycles
  8479                           ; simple_byte           22    12 (average)
  8480                           ;	Chosen strategy is simple_byte
  8481  00C406  5052               	movf	??_Convert_diasem,w,c
  8482  00C408  0A00               	xorlw	0	; case 0
  8483  00C40A  B4D8               	btfsc	status,2,c
  8484  00C40C  D78B               	goto	l5248
  8485  00C40E  0A01               	xorlw	1	; case 1
  8486  00C410  B4D8               	btfsc	status,2,c
  8487  00C412  D797               	goto	l5250
  8488  00C414  0A03               	xorlw	3	; case 2
  8489  00C416  B4D8               	btfsc	status,2,c
  8490  00C418  D7A3               	goto	l5252
  8491  00C41A  0A01               	xorlw	1	; case 3
  8492  00C41C  B4D8               	btfsc	status,2,c
  8493  00C41E  D7AF               	goto	l5254
  8494  00C420  0A07               	xorlw	7	; case 4
  8495  00C422  B4D8               	btfsc	status,2,c
  8496  00C424  D7BB               	goto	l5256
  8497  00C426  0A01               	xorlw	1	; case 5
  8498  00C428  B4D8               	btfsc	status,2,c
  8499  00C42A  D7C7               	goto	l5258
  8500  00C42C  0A03               	xorlw	3	; case 6
  8501  00C42E  B4D8               	btfsc	status,2,c
  8502  00C430  D7D3               	goto	l5260
  8503  00C432  D000               	goto	l5266
  8504  00C434                     l5266:
  8505                           
  8506                           ;main.c: 771: return buffer_dia;
  8507  00C434  0E88               	movlw	low Convert_diasem@buffer_dia
  8508  00C436  6E50               	movwf	?_Convert_diasem,c
  8509  00C438  0E00               	movlw	high Convert_diasem@buffer_dia
  8510  00C43A  6E51               	movwf	?_Convert_diasem+1,c
  8511  00C43C  0012               	return	
  8512  00C43E  0012               	return		;funcret
  8513  00C440                     __end_of_Convert_diasem:
  8514                           	opt stack 0
  8515                           tblptru	equ	0xFF8
  8516                           tblptrh	equ	0xFF7
  8517                           tblptrl	equ	0xFF6
  8518                           tablat	equ	0xFF5
  8519                           prodh	equ	0xFF4
  8520                           prodl	equ	0xFF3
  8521                           intcon	equ	0xFF2
  8522                           indf0	equ	0xFEF
  8523                           postinc0	equ	0xFEE
  8524                           fsr0h	equ	0xFEA
  8525                           fsr0l	equ	0xFE9
  8526                           wreg	equ	0xFE8
  8527                           postdec1	equ	0xFE5
  8528                           fsr1l	equ	0xFE1
  8529                           indf2	equ	0xFDF
  8530                           fsr2h	equ	0xFDA
  8531                           fsr2l	equ	0xFD9
  8532                           status	equ	0xFD8
  8533                           
  8534 ;; *************** function _sprintf *****************
  8535 ;; Defined at:
  8536 ;;		line 492 in file "C:\Program Files (x86)\Microchip\xc8\v1.34\sources\common\doprnt.c"
  8537 ;; Parameters:    Size  Location     Type
  8538 ;;  sp              2   63[COMRAM] PTR unsigned char 
  8539 ;;		 -> Convert_diasem@buffer_dia(20), buffer1(20), 
  8540 ;;  f               2   65[COMRAM] PTR const unsigned char 
  8541 ;;		 -> STR_77(3), STR_75(3), STR_73(3), STR_71(3), 
  8542 ;;		 -> STR_69(3), STR_67(3), STR_65(3), STR_56(5), 
  8543 ;;		 -> STR_54(6), STR_52(21), STR_48(5), STR_47(5), 
  8544 ;;		 -> STR_46(5), STR_45(5), STR_44(5), STR_43(5), 
  8545 ;;		 -> STR_42(5), STR_41(5), STR_38(5), STR_37(5), 
  8546 ;;		 -> STR_36(5), STR_35(5), STR_34(5), STR_33(5), 
  8547 ;;		 -> STR_32(5), STR_31(5), STR_29(14), STR_28(15), 
  8548 ;;		 -> STR_26(14), STR_25(15), STR_23(5), STR_22(5), 
  8549 ;;		 -> STR_21(5), STR_20(5), STR_19(5), STR_15(5), 
  8550 ;;		 -> STR_14(5), STR_13(5), STR_12(5), STR_11(5), 
  8551 ;;		 -> STR_9(3), STR_7(17), STR_6(28), STR_4(14), 
  8552 ;;		 -> STR_3(17), STR_2(28), 
  8553 ;; Auto vars:     Size  Location     Type
  8554 ;;  idx             1   13[BANK0 ] unsigned char 
  8555 ;;  val             4   29[BANK0 ] unsigned long 
  8556 ;;  tmpval          4   20[BANK0 ] struct .
  8557 ;;  fval            3   26[BANK0 ] struct .
  8558 ;;  flag            2   38[BANK0 ] unsigned short 
  8559 ;;  width           2   35[BANK0 ] int 
  8560 ;;  prec            2   33[BANK0 ] int 
  8561 ;;  exp             2   24[BANK0 ] int 
  8562 ;;  ap              2   18[BANK0 ] PTR void [1]
  8563 ;;		 -> ?_sprintf(2), 
  8564 ;;  len             2   16[BANK0 ] unsigned int 
  8565 ;;  cp              2   14[BANK0 ] PTR const unsigned char 
  8566 ;;		 -> STR_80(7), sprintf@c(1), STR_78(21), STR_76(21), 
  8567 ;;		 -> STR_74(21), STR_72(21), STR_70(21), STR_68(21), 
  8568 ;;		 -> STR_66(21), 
  8569 ;;  c               1   37[BANK0 ] char 
  8570 ;;  d               1    0        unsigned char 
  8571 ;; Return value:  Size  Location     Type
  8572 ;;                  2   63[COMRAM] int 
  8573 ;; Registers used:
  8574 ;;		wreg, fsr0l, fsr0h, fsr2l, fsr2h, status,2, status,0, tblptrl, tblptrh, tblptru, prodl, prodh, cstack
  8575 ;; Tracked objects:
  8576 ;;		On entry : 0/0
  8577 ;;		On exit  : 0/0
  8578 ;;		Unchanged: 0/0
  8579 ;; Data sizes:     COMRAM   BANK0   BANK1   BANK2   BANK3   BANK4   BANK5   BANK6   BANK7   BANK8   BANK9  BANK10  BANK1
      +1  BANK12  BANK13  BANK14
  8580 ;;      Params:        10       0       0       0       0       0       0       0       0       0       0       0       
      +0       0       0       0
  8581 ;;      Locals:         0      40       0       0       0       0       0       0       0       0       0       0       
      +0       0       0       0
  8582 ;;      Temps:          6       0       0       0       0       0       0       0       0       0       0       0       
      +0       0       0       0
  8583 ;;      Totals:        16      40       0       0       0       0       0       0       0       0       0       0       
      +0       0       0       0
  8584 ;;Total ram usage:       56 bytes
  8585 ;; Hardware stack levels used:    1
  8586 ;; Hardware stack levels required when called:    3
  8587 ;; This function calls:
  8588 ;;		___awdiv
  8589 ;;		___ftadd
  8590 ;;		___ftge
  8591 ;;		___ftmul
  8592 ;;		___ftneg
  8593 ;;		___ftsub
  8594 ;;		___fttol
  8595 ;;		___lldiv
  8596 ;;		___llmod
  8597 ;;		___lltoft
  8598 ;;		___wmul
  8599 ;;		__div_to_l_
  8600 ;;		__tdiv_to_l_
  8601 ;;		_fround
  8602 ;;		_isdigit
  8603 ;;		_scale
  8604 ;; This function is called by:
  8605 ;;		_V_Principal
  8606 ;;		_V_ProgReloj
  8607 ;;		_V_ProgRiegoIlum
  8608 ;;		_V_ProgTempAgua
  8609 ;;		_Convert_diasem
  8610 ;;		_escribir
  8611 ;; This function uses a non-reentrant model
  8612 ;;
  8613                           
  8614                           	psect	text24
  8615  00E90E                     __ptext24:
  8616                           	opt stack 0
  8617  00E90E                     _sprintf:
  8618                           	opt stack 26
  8619                           
  8620                           ;doprnt.c: 494: va_list ap;
  8621                           ;doprnt.c: 499: signed char c;
  8622                           ;doprnt.c: 501: int width;
  8623                           ;doprnt.c: 504: int prec;
  8624                           ;doprnt.c: 508: unsigned short flag;
  8625                           ;doprnt.c: 515: char d;
  8626                           ;doprnt.c: 516: double fval;
  8627                           ;doprnt.c: 517: int exp;
  8628                           ;doprnt.c: 523: union {
  8629                           ;doprnt.c: 524: unsigned long vd;
  8630                           ;doprnt.c: 525: double integ;
  8631                           ;doprnt.c: 526: } tmpval;
  8632                           ;doprnt.c: 528: unsigned long val;
  8633                           ;doprnt.c: 529: unsigned len;
  8634                           ;doprnt.c: 530: const char * cp;
  8635                           ;doprnt.c: 533: *ap = __va_start();
  8636                           
  8637                           ;incstack = 0
  8638  00E90E  0E44               	movlw	low (?_sprintf+4)
  8639  00E910  0100               	movlb	0	; () banked
  8640  00E912  6F72               	movwf	sprintf@ap& (0+255),b
  8641  00E914  0E00               	movlw	high (?_sprintf+4)
  8642  00E916  0100               	movlb	0	; () banked
  8643  00E918  6F73               	movwf	(sprintf@ap+1)& (0+255),b
  8644                           
  8645                           ;doprnt.c: 536: while(c = *f++) {
  8646  00E91A  EF67  F07E         	goto	l4954
  8647  00E91E                     l4378:
  8648                           
  8649                           ; BSR set to: 0
  8650                           ;doprnt.c: 538: if(c != '%')
  8651  00E91E  0E25               	movlw	37
  8652  00E920  0100               	movlb	0	; () banked
  8653  00E922  1985               	xorwf	sprintf@c& (0+255),w,b
  8654  00E924  B4D8               	btfsc	status,2,c
  8655  00E926  D00A               	goto	l4384
  8656                           
  8657                           ; BSR set to: 0
  8658                           ;doprnt.c: 540: {
  8659                           ;doprnt.c: 541: ((*sp++ = (c)));
  8660  00E928  C040  FFD9         	movff	sprintf@sp,fsr2l
  8661  00E92C  C041  FFDA         	movff	sprintf@sp+1,fsr2h
  8662  00E930  C085  FFDF         	movff	sprintf@c,indf2
  8663                           
  8664                           ; BSR set to: 0
  8665  00E934  4A40               	infsnz	sprintf@sp,f,c
  8666  00E936  2A41               	incf	sprintf@sp+1,f,c
  8667                           
  8668                           ;doprnt.c: 542: continue;
  8669  00E938  EF67  F07E         	goto	l4954
  8670  00E93C                     l4384:
  8671                           
  8672                           ; BSR set to: 0
  8673                           ;doprnt.c: 543: }
  8674                           ;doprnt.c: 546: width = 0;
  8675  00E93C  0E00               	movlw	0
  8676  00E93E  0100               	movlb	0	; () banked
  8677  00E940  6F84               	movwf	(sprintf@width+1)& (0+255),b
  8678  00E942  0E00               	movlw	0
  8679  00E944  6F83               	movwf	sprintf@width& (0+255),b
  8680                           
  8681                           ;doprnt.c: 548: flag = 0;
  8682  00E946  0E00               	movlw	0
  8683  00E948  0100               	movlb	0	; () banked
  8684  00E94A  6F87               	movwf	(sprintf@flag+1)& (0+255),b
  8685  00E94C  0E00               	movlw	0
  8686  00E94E  6F86               	movwf	sprintf@flag& (0+255),b
  8687                           
  8688                           ; BSR set to: 0
  8689                           ;doprnt.c: 551: switch(*f) {
  8690                           
  8691                           ;doprnt.c: 550: for(;;) {
  8692  00E950  D00F               	goto	l4396
  8693  00E952                     l4386:
  8694                           
  8695                           ;doprnt.c: 554: flag |= 0x08;
  8696  00E952  0100               	movlb	0	; () banked
  8697  00E954  8786               	bsf	sprintf@flag& (0+255),3,b
  8698  00E956  D008               	goto	L10
  8699  00E958                     l4388:
  8700                           
  8701                           ;doprnt.c: 561: flag |= 0x01;
  8702  00E958  0100               	movlb	0	; () banked
  8703  00E95A  8186               	bsf	sprintf@flag& (0+255),0,b
  8704  00E95C  D005               	goto	L10
  8705  00E95E                     l4390:
  8706                           
  8707                           ;doprnt.c: 574: flag |= 0x800;
  8708  00E95E  0100               	movlb	0	; () banked
  8709  00E960  8787               	bsf	(sprintf@flag+1)& (0+255),3,b
  8710  00E962  D002               	goto	L10
  8711  00E964                     l4392:
  8712                           
  8713                           ;doprnt.c: 580: flag |= 0x04;
  8714  00E964  0100               	movlb	0	; () banked
  8715  00E966  8586               	bsf	sprintf@flag& (0+255),2,b
  8716  00E968                     L10:
  8717                           
  8718                           ;doprnt.c: 581: f++;
  8719  00E968  4A42               	infsnz	sprintf@f,f,c
  8720  00E96A  2A43               	incf	sprintf@f+1,f,c
  8721                           
  8722                           ;doprnt.c: 582: continue;
  8723  00E96C  D001               	goto	l4396
  8724                           
  8725                           ; BSR set to: 0
  8726                           ;doprnt.c: 584: }
  8727  00E96E  D014               	goto	l449
  8728  00E970                     l4396:
  8729  00E970  C042  FFF6         	movff	sprintf@f,tblptrl
  8730  00E974  C043  FFF7         	movff	sprintf@f+1,tblptrh
  8731  00E978                     	if	0	;tblptru may be non-zero
  8732  00E978                     	endif
  8733  00E978                     	if	0	;tblptru may be non-zero
  8734  00E978                     	endif
  8735  00E978  0008               	tblrd		*
  8736  00E97A  50F5               	movf	tablat,w,c
  8737                           
  8738                           ; Switch size 1, requested type "space"
  8739                           ; Number of cases is 4, Range of values is 32 to 48
  8740                           ; switch strategies available:
  8741                           ; Name         Instructions Cycles
  8742                           ; simple_byte           13     7 (average)
  8743                           ;	Chosen strategy is simple_byte
  8744  00E97C  0A20               	xorlw	32	; case 32
  8745  00E97E  B4D8               	btfsc	status,2,c
  8746  00E980  D7EB               	goto	l4388
  8747  00E982  0A03               	xorlw	3	; case 35
  8748  00E984  B4D8               	btfsc	status,2,c
  8749  00E986  D7EB               	goto	l4390
  8750  00E988  0A0E               	xorlw	14	; case 45
  8751  00E98A  B4D8               	btfsc	status,2,c
  8752  00E98C  D7E2               	goto	l4386
  8753  00E98E  0A1D               	xorlw	29	; case 48
  8754  00E990  B4D8               	btfsc	status,2,c
  8755  00E992  D7E8               	goto	l4392
  8756                           
  8757                           ;doprnt.c: 585: break;
  8758  00E994  D001               	goto	l449
  8759                           
  8760                           ;doprnt.c: 586: }
  8761  00E996  D7EC               	goto	l4396
  8762  00E998                     l449:
  8763                           
  8764                           ;doprnt.c: 593: if(flag & 0x08)
  8765  00E998  0100               	movlb	0	; () banked
  8766  00E99A  A786               	btfss	sprintf@flag& (0+255),3,b
  8767  00E99C  D003               	goto	l4400
  8768                           
  8769                           ; BSR set to: 0
  8770                           ;doprnt.c: 594: flag &= ~0x04;
  8771  00E99E  0100               	movlb	0	; () banked
  8772  00E9A0  9586               	bcf	sprintf@flag& (0+255),2,b
  8773  00E9A2  D000               	goto	l4400
  8774  00E9A4                     l4400:
  8775                           
  8776                           ; BSR set to: 0
  8777                           ;doprnt.c: 597: if(isdigit((unsigned)*f)) {
  8778  00E9A4  C042  FFF6         	movff	sprintf@f,tblptrl
  8779  00E9A8  C043  FFF7         	movff	sprintf@f+1,tblptrh
  8780  00E9AC                     	if	0	;tblptru may be non-zero
  8781  00E9AC                     	endif
  8782  00E9AC                     	if	0	;tblptru may be non-zero
  8783  00E9AC                     	endif
  8784  00E9AC  0008               	tblrd		*
  8785  00E9AE  50F5               	movf	tablat,w,c
  8786  00E9B0  EC5D  F05A         	call	_isdigit
  8787  00E9B4  A0D8               	btfss	status,0,c
  8788  00E9B6  D038               	goto	l4412
  8789                           
  8790                           ;doprnt.c: 598: width = 0;
  8791  00E9B8  0E00               	movlw	0
  8792  00E9BA  0100               	movlb	0	; () banked
  8793  00E9BC  6F84               	movwf	(sprintf@width+1)& (0+255),b
  8794  00E9BE  0E00               	movlw	0
  8795  00E9C0  6F83               	movwf	sprintf@width& (0+255),b
  8796  00E9C2  D000               	goto	l4404
  8797  00E9C4                     l4404:
  8798                           
  8799                           ;doprnt.c: 600: width *= 10;
  8800  00E9C4  C083  F00F         	movff	sprintf@width,___wmul@multiplier
  8801  00E9C8  C084  F010         	movff	sprintf@width+1,___wmul@multiplier+1
  8802  00E9CC  0E00               	movlw	0
  8803  00E9CE  6E12               	movwf	___wmul@multiplicand+1,c
  8804  00E9D0  0E0A               	movlw	10
  8805  00E9D2  6E11               	movwf	___wmul@multiplicand,c
  8806  00E9D4  EC93  F05A         	call	___wmul	;wreg free
  8807  00E9D8  C00F  F083         	movff	?___wmul,sprintf@width
  8808  00E9DC  C010  F084         	movff	?___wmul+1,sprintf@width+1
  8809                           
  8810                           ;doprnt.c: 601: width += *f++ - '0';
  8811  00E9E0  0ED0               	movlw	208
  8812  00E9E2  6E4A               	movwf	??_sprintf& (0+255),c
  8813  00E9E4  0EFF               	movlw	255
  8814  00E9E6  6E4B               	movwf	(??_sprintf+1)& (0+255),c
  8815  00E9E8  C042  FFF6         	movff	sprintf@f,tblptrl
  8816  00E9EC  C043  FFF7         	movff	sprintf@f+1,tblptrh
  8817  00E9F0                     	if	0	;tblptru may be non-zero
  8818  00E9F0                     	endif
  8819  00E9F0                     	if	0	;tblptru may be non-zero
  8820  00E9F0                     	endif
  8821  00E9F0  0008               	tblrd		*
  8822  00E9F2  50F5               	movf	tablat,w,c
  8823  00E9F4  6E4C               	movwf	(??_sprintf+2)& (0+255),c
  8824  00E9F6  6A4D               	clrf	(??_sprintf+3)& (0+255),c
  8825  00E9F8  504A               	movf	??_sprintf,w,c
  8826  00E9FA  264C               	addwf	??_sprintf+2,f,c
  8827  00E9FC  504B               	movf	??_sprintf+1,w,c
  8828  00E9FE  224D               	addwfc	??_sprintf+3,f,c
  8829  00EA00  504C               	movf	??_sprintf+2,w,c
  8830  00EA02  0100               	movlb	0	; () banked
  8831  00EA04  2783               	addwf	sprintf@width& (0+255),f,b
  8832  00EA06  504D               	movf	??_sprintf+3,w,c
  8833  00EA08  0100               	movlb	0	; () banked
  8834  00EA0A  2384               	addwfc	(sprintf@width+1)& (0+255),f,b
  8835                           
  8836                           ; BSR set to: 0
  8837  00EA0C  4A42               	infsnz	sprintf@f,f,c
  8838  00EA0E  2A43               	incf	sprintf@f+1,f,c
  8839                           
  8840                           ; BSR set to: 0
  8841                           ;doprnt.c: 602: } while(isdigit((unsigned)*f));
  8842  00EA10  C042  FFF6         	movff	sprintf@f,tblptrl
  8843  00EA14  C043  FFF7         	movff	sprintf@f+1,tblptrh
  8844  00EA18                     	if	0	;tblptru may be non-zero
  8845  00EA18                     	endif
  8846  00EA18                     	if	0	;tblptru may be non-zero
  8847  00EA18                     	endif
  8848  00EA18  0008               	tblrd		*
  8849  00EA1A  50F5               	movf	tablat,w,c
  8850  00EA1C  EC5D  F05A         	call	_isdigit
  8851  00EA20  A0D8               	btfss	status,0,c
  8852  00EA22  D01B               	goto	l4420
  8853  00EA24  D7CF               	goto	l4404
  8854                           
  8855                           ;doprnt.c: 604: } else if(*f == '*') {
  8856  00EA26  D019               	goto	l4420
  8857  00EA28                     l4412:
  8858  00EA28  C042  FFF6         	movff	sprintf@f,tblptrl
  8859  00EA2C  C043  FFF7         	movff	sprintf@f+1,tblptrh
  8860  00EA30                     	if	0	;tblptru may be non-zero
  8861  00EA30                     	endif
  8862  00EA30                     	if	0	;tblptru may be non-zero
  8863  00EA30                     	endif
  8864  00EA30  0008               	tblrd		*
  8865  00EA32  50F5               	movf	tablat,w,c
  8866  00EA34  0A2A               	xorlw	42
  8867  00EA36  A4D8               	btfss	status,2,c
  8868  00EA38  D010               	goto	l4420
  8869                           
  8870                           ;doprnt.c: 605: width = (*(int *)__va_arg((*(int **)ap), (int)0));
  8871  00EA3A  C072  FFD9         	movff	sprintf@ap,fsr2l
  8872  00EA3E  C073  FFDA         	movff	sprintf@ap+1,fsr2h
  8873  00EA42  CFDE F083          	movff	postinc2,sprintf@width
  8874  00EA46  CFDD F084          	movff	postdec2,sprintf@width+1
  8875  00EA4A  0E02               	movlw	2
  8876  00EA4C  0100               	movlb	0	; () banked
  8877  00EA4E  2772               	addwf	sprintf@ap& (0+255),f,b
  8878  00EA50  0E00               	movlw	0
  8879  00EA52  2373               	addwfc	(sprintf@ap+1)& (0+255),f,b
  8880                           
  8881                           ; BSR set to: 0
  8882                           ;doprnt.c: 606: f++;
  8883  00EA54  4A42               	infsnz	sprintf@f,f,c
  8884  00EA56  2A43               	incf	sprintf@f+1,f,c
  8885                           
  8886                           ; BSR set to: 0
  8887  00EA58  D000               	goto	l4420
  8888  00EA5A                     l4420:
  8889                           
  8890                           ;doprnt.c: 608: }
  8891                           ;doprnt.c: 611: if(*f == '.') {
  8892  00EA5A  C042  FFF6         	movff	sprintf@f,tblptrl
  8893  00EA5E  C043  FFF7         	movff	sprintf@f+1,tblptrh
  8894  00EA62                     	if	0	;tblptru may be non-zero
  8895  00EA62                     	endif
  8896  00EA62                     	if	0	;tblptru may be non-zero
  8897  00EA62                     	endif
  8898  00EA62  0008               	tblrd		*
  8899  00EA64  50F5               	movf	tablat,w,c
  8900  00EA66  0A2E               	xorlw	46
  8901  00EA68  A4D8               	btfss	status,2,c
  8902  00EA6A  D04D               	goto	l4440
  8903                           
  8904                           ;doprnt.c: 612: flag |= 0x4000;
  8905  00EA6C  0100               	movlb	0	; () banked
  8906  00EA6E  8D87               	bsf	(sprintf@flag+1)& (0+255),6,b
  8907                           
  8908                           ;doprnt.c: 613: f++;
  8909  00EA70  4A42               	infsnz	sprintf@f,f,c
  8910  00EA72  2A43               	incf	sprintf@f+1,f,c
  8911                           
  8912                           ; BSR set to: 0
  8913                           ;doprnt.c: 615: if(*f == '*') {
  8914  00EA74  C042  FFF6         	movff	sprintf@f,tblptrl
  8915  00EA78  C043  FFF7         	movff	sprintf@f+1,tblptrh
  8916  00EA7C                     	if	0	;tblptru may be non-zero
  8917  00EA7C                     	endif
  8918  00EA7C                     	if	0	;tblptru may be non-zero
  8919  00EA7C                     	endif
  8920  00EA7C  0008               	tblrd		*
  8921  00EA7E  50F5               	movf	tablat,w,c
  8922  00EA80  0A2A               	xorlw	42
  8923  00EA82  A4D8               	btfss	status,2,c
  8924  00EA84  D010               	goto	l4432
  8925                           
  8926                           ; BSR set to: 0
  8927                           ;doprnt.c: 616: prec = (*(int *)__va_arg((*(int **)ap), (int)0));
  8928  00EA86  C072  FFD9         	movff	sprintf@ap,fsr2l
  8929  00EA8A  C073  FFDA         	movff	sprintf@ap+1,fsr2h
  8930  00EA8E  CFDE F081          	movff	postinc2,sprintf@prec
  8931  00EA92  CFDD F082          	movff	postdec2,sprintf@prec+1
  8932                           
  8933                           ; BSR set to: 0
  8934  00EA96  0E02               	movlw	2
  8935  00EA98  0100               	movlb	0	; () banked
  8936  00EA9A  2772               	addwf	sprintf@ap& (0+255),f,b
  8937  00EA9C  0E00               	movlw	0
  8938  00EA9E  2373               	addwfc	(sprintf@ap+1)& (0+255),f,b
  8939                           
  8940                           ; BSR set to: 0
  8941                           ;doprnt.c: 617: f++;
  8942  00EAA0  4A42               	infsnz	sprintf@f,f,c
  8943  00EAA2  2A43               	incf	sprintf@f+1,f,c
  8944                           
  8945                           ;doprnt.c: 618: } else
  8946  00EAA4  D132               	goto	l4514
  8947  00EAA6                     l4432:
  8948                           
  8949                           ; BSR set to: 0
  8950                           ;doprnt.c: 620: {
  8951                           ;doprnt.c: 621: prec = 0;
  8952  00EAA6  0E00               	movlw	0
  8953  00EAA8  0100               	movlb	0	; () banked
  8954  00EAAA  6F82               	movwf	(sprintf@prec+1)& (0+255),b
  8955  00EAAC  0E00               	movlw	0
  8956  00EAAE  6F81               	movwf	sprintf@prec& (0+255),b
  8957                           
  8958                           ;doprnt.c: 622: while(isdigit((unsigned)*f))
  8959  00EAB0  D01E               	goto	l4438
  8960  00EAB2                     l4434:
  8961                           
  8962                           ;doprnt.c: 623: prec = prec*10 + *f++ - '0';
  8963  00EAB2  C081  F00F         	movff	sprintf@prec,___wmul@multiplier
  8964  00EAB6  C082  F010         	movff	sprintf@prec+1,___wmul@multiplier+1
  8965  00EABA  0E00               	movlw	0
  8966  00EABC  6E12               	movwf	___wmul@multiplicand+1,c
  8967  00EABE  0E0A               	movlw	10
  8968  00EAC0  6E11               	movwf	___wmul@multiplicand,c
  8969  00EAC2  EC93  F05A         	call	___wmul	;wreg free
  8970  00EAC6  C042  FFF6         	movff	sprintf@f,tblptrl
  8971  00EACA  C043  FFF7         	movff	sprintf@f+1,tblptrh
  8972  00EACE                     	if	0	;tblptru may be non-zero
  8973  00EACE                     	endif
  8974  00EACE                     	if	0	;tblptru may be non-zero
  8975  00EACE                     	endif
  8976  00EACE  0008               	tblrd		*
  8977  00EAD0  50F5               	movf	tablat,w,c
  8978  00EAD2  260F               	addwf	?___wmul,f,c
  8979  00EAD4  0E00               	movlw	0
  8980  00EAD6  2210               	addwfc	?___wmul+1,f,c
  8981  00EAD8  0ED0               	movlw	208
  8982  00EADA  240F               	addwf	?___wmul,w,c
  8983  00EADC  0100               	movlb	0	; () banked
  8984  00EADE  6F81               	movwf	sprintf@prec& (0+255),b
  8985  00EAE0  0EFF               	movlw	255
  8986  00EAE2  2010               	addwfc	?___wmul+1,w,c
  8987  00EAE4  0100               	movlb	0	; () banked
  8988  00EAE6  6F82               	movwf	(sprintf@prec+1)& (0+255),b
  8989                           
  8990                           ; BSR set to: 0
  8991  00EAE8  4A42               	infsnz	sprintf@f,f,c
  8992  00EAEA  2A43               	incf	sprintf@f+1,f,c
  8993  00EAEC  D000               	goto	l4438
  8994  00EAEE                     l4438:
  8995                           
  8996                           ; BSR set to: 0
  8997  00EAEE  C042  FFF6         	movff	sprintf@f,tblptrl
  8998  00EAF2  C043  FFF7         	movff	sprintf@f+1,tblptrh
  8999  00EAF6                     	if	0	;tblptru may be non-zero
  9000  00EAF6                     	endif
  9001  00EAF6                     	if	0	;tblptru may be non-zero
  9002  00EAF6                     	endif
  9003  00EAF6  0008               	tblrd		*
  9004  00EAF8  50F5               	movf	tablat,w,c
  9005  00EAFA  EC5D  F05A         	call	_isdigit
  9006  00EAFE  A0D8               	btfss	status,0,c
  9007  00EB00  D104               	goto	l4514
  9008  00EB02  D7D7               	goto	l4434
  9009                           
  9010                           ;doprnt.c: 624: }
  9011                           ;doprnt.c: 625: } else {
  9012  00EB04  D102               	goto	l4514
  9013  00EB06                     l4440:
  9014                           
  9015                           ;doprnt.c: 626: prec = 0;
  9016  00EB06  0E00               	movlw	0
  9017  00EB08  0100               	movlb	0	; () banked
  9018  00EB0A  6F82               	movwf	(sprintf@prec+1)& (0+255),b
  9019  00EB0C  0E00               	movlw	0
  9020  00EB0E  6F81               	movwf	sprintf@prec& (0+255),b
  9021                           
  9022                           ; BSR set to: 0
  9023                           ;doprnt.c: 628: flag |= 0x1000;
  9024  00EB10  0100               	movlb	0	; () banked
  9025  00EB12  8987               	bsf	(sprintf@flag+1)& (0+255),4,b
  9026                           
  9027                           ; BSR set to: 0
  9028                           ;doprnt.c: 630: }
  9029                           ;doprnt.c: 635: switch(c = *f++) {
  9030  00EB14  D0FA               	goto	l4514
  9031                           
  9032                           ; BSR set to: 0
  9033                           ;doprnt.c: 638: goto alldone;
  9034                           
  9035                           ;doprnt.c: 637: case 0:
  9036  00EB16  EF77  F07E         	goto	l4956
  9037  00EB1A                     l4444:
  9038                           
  9039                           ; BSR set to: 0
  9040                           ;doprnt.c: 663: flag |= 0x400;
  9041  00EB1A  0100               	movlb	0	; () banked
  9042  00EB1C  8587               	bsf	(sprintf@flag+1)& (0+255),2,b
  9043                           
  9044                           ;doprnt.c: 664: break;
  9045  00EB1E  D120               	goto	l4516
  9046  00EB20                     l4446:
  9047                           
  9048                           ; BSR set to: 0
  9049                           ;doprnt.c: 691: flag |= 0x40;
  9050  00EB20  0100               	movlb	0	; () banked
  9051  00EB22  8D86               	bsf	sprintf@flag& (0+255),6,b
  9052                           
  9053                           ; BSR set to: 0
  9054                           ;doprnt.c: 698: case 'i':
  9055                           ;doprnt.c: 699: break;
  9056                           
  9057                           ; BSR set to: 0
  9058                           
  9059                           ;doprnt.c: 697: case 'd':
  9060                           
  9061                           ;doprnt.c: 693: break;
  9062  00EB24  D11D               	goto	l4516
  9063  00EB26                     l4448:
  9064                           
  9065                           ; BSR set to: 0
  9066                           ;doprnt.c: 714: flag |= 0x20;
  9067  00EB26  0100               	movlb	0	; () banked
  9068  00EB28  8B86               	bsf	sprintf@flag& (0+255),5,b
  9069  00EB2A                     l472:
  9070                           
  9071                           ; BSR set to: 0
  9072                           ;doprnt.c: 721: flag |= 0x80;
  9073  00EB2A  0100               	movlb	0	; () banked
  9074  00EB2C  8F86               	bsf	sprintf@flag& (0+255),7,b
  9075                           
  9076                           ;doprnt.c: 723: break;
  9077  00EB2E  D118               	goto	l4516
  9078  00EB30                     l4450:
  9079                           
  9080                           ; BSR set to: 0
  9081                           ;doprnt.c: 734: cp = (*(const char * *)__va_arg((*(const char * **)ap), (const char *)0)
      +                          );
  9082  00EB30  C072  FFD9         	movff	sprintf@ap,fsr2l
  9083  00EB34  C073  FFDA         	movff	sprintf@ap+1,fsr2h
  9084  00EB38  CFDE F06E          	movff	postinc2,sprintf@cp
  9085  00EB3C  CFDD F06F          	movff	postdec2,sprintf@cp+1
  9086                           
  9087                           ; BSR set to: 0
  9088  00EB40  0E02               	movlw	2
  9089  00EB42  0100               	movlb	0	; () banked
  9090  00EB44  2772               	addwf	sprintf@ap& (0+255),f,b
  9091  00EB46  0E00               	movlw	0
  9092  00EB48  2373               	addwfc	(sprintf@ap+1)& (0+255),f,b
  9093                           
  9094                           ; BSR set to: 0
  9095                           ;doprnt.c: 740: if(!cp)
  9096  00EB4A  0100               	movlb	0	; () banked
  9097  00EB4C  516E               	movf	sprintf@cp& (0+255),w,b
  9098  00EB4E  0100               	movlb	0	; () banked
  9099  00EB50  116F               	iorwf	(sprintf@cp+1)& (0+255),w,b
  9100  00EB52  A4D8               	btfss	status,2,c
  9101  00EB54  D007               	goto	l4458
  9102                           
  9103                           ; BSR set to: 0
  9104                           ;doprnt.c: 741: cp = "(null)";
  9105  00EB56  0EDF               	movlw	low STR_80
  9106  00EB58  0100               	movlb	0	; () banked
  9107  00EB5A  6F6E               	movwf	sprintf@cp& (0+255),b
  9108  00EB5C  0EFF               	movlw	high STR_80
  9109  00EB5E  0100               	movlb	0	; () banked
  9110  00EB60  6F6F               	movwf	(sprintf@cp+1)& (0+255),b
  9111  00EB62  D000               	goto	l4458
  9112  00EB64                     l4458:
  9113                           
  9114                           ; BSR set to: 0
  9115                           ;doprnt.c: 745: len = 0;
  9116  00EB64  0E00               	movlw	0
  9117  00EB66  0100               	movlb	0	; () banked
  9118  00EB68  6F71               	movwf	(sprintf@len+1)& (0+255),b
  9119  00EB6A  0E00               	movlw	0
  9120  00EB6C  6F70               	movwf	sprintf@len& (0+255),b
  9121                           
  9122                           ;doprnt.c: 746: while(cp[len])
  9123  00EB6E  D004               	goto	l4462
  9124  00EB70                     l4460:
  9125                           
  9126                           ;doprnt.c: 747: len++;
  9127  00EB70  0100               	movlb	0	; () banked
  9128  00EB72  4B70               	infsnz	sprintf@len& (0+255),f,b
  9129  00EB74  2B71               	incf	(sprintf@len+1)& (0+255),f,b
  9130  00EB76  D000               	goto	l4462
  9131  00EB78                     l4462:
  9132                           
  9133                           ; BSR set to: 0
  9134  00EB78  0100               	movlb	0	; () banked
  9135  00EB7A  5170               	movf	sprintf@len& (0+255),w,b
  9136  00EB7C  0100               	movlb	0	; () banked
  9137  00EB7E  256E               	addwf	sprintf@cp& (0+255),w,b
  9138  00EB80  6E4A               	movwf	??_sprintf& (0+255),c
  9139  00EB82  0100               	movlb	0	; () banked
  9140  00EB84  5171               	movf	(sprintf@len+1)& (0+255),w,b
  9141  00EB86  0100               	movlb	0	; () banked
  9142  00EB88  216F               	addwfc	(sprintf@cp+1)& (0+255),w,b
  9143  00EB8A  6E4B               	movwf	(??_sprintf+1)& (0+255),c
  9144  00EB8C  C04A  FFF6         	movff	??_sprintf,tblptrl
  9145  00EB90  C04B  FFF7         	movff	??_sprintf+1,tblptrh
  9146  00EB94  6AF8               	clrf	tblptru,c
  9147  00EB96  0E0E               	movlw	(high __ramtop+-1)
  9148  00EB98  64F7               	cpfsgt	tblptrh,c
  9149  00EB9A  D003               	bra	u4987
  9150  00EB9C  0008               	tblrd		*
  9151  00EB9E  50F5               	movf	tablat,w,c
  9152  00EBA0  D005               	bra	u4980
  9153  00EBA2                     u4987:
  9154  00EBA2  CFF6 FFE9          	movff	tblptrl,fsr0l
  9155  00EBA6  CFF7 FFEA          	movff	tblptrh,fsr0h
  9156  00EBAA  50EF               	movf	indf0,w,c
  9157  00EBAC                     u4980:
  9158  00EBAC  0900               	iorlw	0
  9159  00EBAE  B4D8               	btfsc	status,2,c
  9160  00EBB0  D002               	goto	l4464
  9161  00EBB2  D7DE               	goto	l4460
  9162  00EBB4  D000               	goto	l4464
  9163  00EBB6                     l4464:
  9164                           
  9165                           ;doprnt.c: 753: if(prec && prec < len)
  9166  00EBB6  0100               	movlb	0	; () banked
  9167  00EBB8  5181               	movf	sprintf@prec& (0+255),w,b
  9168  00EBBA  0100               	movlb	0	; () banked
  9169  00EBBC  1182               	iorwf	(sprintf@prec+1)& (0+255),w,b
  9170  00EBBE  B4D8               	btfsc	status,2,c
  9171  00EBC0  D00F               	goto	l4470
  9172                           
  9173                           ; BSR set to: 0
  9174  00EBC2  0100               	movlb	0	; () banked
  9175  00EBC4  5170               	movf	sprintf@len& (0+255),w,b
  9176  00EBC6  0100               	movlb	0	; () banked
  9177  00EBC8  5D81               	subwf	sprintf@prec& (0+255),w,b
  9178  00EBCA  0100               	movlb	0	; () banked
  9179  00EBCC  5171               	movf	(sprintf@len+1)& (0+255),w,b
  9180  00EBCE  0100               	movlb	0	; () banked
  9181  00EBD0  5982               	subwfb	(sprintf@prec+1)& (0+255),w,b
  9182  00EBD2  B0D8               	btfsc	status,0,c
  9183  00EBD4  D005               	goto	l4470
  9184                           
  9185                           ; BSR set to: 0
  9186                           ;doprnt.c: 754: len = prec;
  9187  00EBD6  C081  F070         	movff	sprintf@prec,sprintf@len
  9188  00EBDA  C082  F071         	movff	sprintf@prec+1,sprintf@len+1
  9189  00EBDE  D000               	goto	l4470
  9190  00EBE0                     l4470:
  9191                           
  9192                           ; BSR set to: 0
  9193                           ;doprnt.c: 757: if(width > len)
  9194  00EBE0  0100               	movlb	0	; () banked
  9195  00EBE2  5183               	movf	sprintf@width& (0+255),w,b
  9196  00EBE4  0100               	movlb	0	; () banked
  9197  00EBE6  5D70               	subwf	sprintf@len& (0+255),w,b
  9198  00EBE8  0100               	movlb	0	; () banked
  9199  00EBEA  5184               	movf	(sprintf@width+1)& (0+255),w,b
  9200  00EBEC  0100               	movlb	0	; () banked
  9201  00EBEE  5971               	subwfb	(sprintf@len+1)& (0+255),w,b
  9202  00EBF0  B0D8               	btfsc	status,0,c
  9203  00EBF2  D009               	goto	l4474
  9204                           
  9205                           ; BSR set to: 0
  9206                           ;doprnt.c: 758: width -= len;
  9207  00EBF4  0100               	movlb	0	; () banked
  9208  00EBF6  5170               	movf	sprintf@len& (0+255),w,b
  9209  00EBF8  0100               	movlb	0	; () banked
  9210  00EBFA  5F83               	subwf	sprintf@width& (0+255),f,b
  9211  00EBFC  0100               	movlb	0	; () banked
  9212  00EBFE  5171               	movf	(sprintf@len+1)& (0+255),w,b
  9213  00EC00  0100               	movlb	0	; () banked
  9214  00EC02  5B84               	subwfb	(sprintf@width+1)& (0+255),f,b
  9215  00EC04  D006               	goto	l4476
  9216  00EC06                     l4474:
  9217                           
  9218                           ; BSR set to: 0
  9219                           ;doprnt.c: 759: else
  9220                           ;doprnt.c: 760: width = 0;
  9221  00EC06  0E00               	movlw	0
  9222  00EC08  0100               	movlb	0	; () banked
  9223  00EC0A  6F84               	movwf	(sprintf@width+1)& (0+255),b
  9224  00EC0C  0E00               	movlw	0
  9225  00EC0E  6F83               	movwf	sprintf@width& (0+255),b
  9226  00EC10  D000               	goto	l4476
  9227  00EC12                     l4476:
  9228                           
  9229                           ; BSR set to: 0
  9230                           ;doprnt.c: 762: if(!(flag & 0x08))
  9231  00EC12  0100               	movlb	0	; () banked
  9232  00EC14  A786               	btfss	sprintf@flag& (0+255),3,b
  9233  00EC16  D00B               	goto	l4484
  9234  00EC18  D032               	goto	l4492
  9235                           
  9236                           ; BSR set to: 0
  9237                           ;doprnt.c: 764: while(width--)
  9238  00EC1A  D009               	goto	l4484
  9239  00EC1C                     l4480:
  9240                           
  9241                           ; BSR set to: 0
  9242                           ;doprnt.c: 765: ((*sp++ = (' ')));
  9243  00EC1C  C040  FFD9         	movff	sprintf@sp,fsr2l
  9244  00EC20  C041  FFDA         	movff	sprintf@sp+1,fsr2h
  9245  00EC24  0E20               	movlw	32
  9246  00EC26  6EDF               	movwf	indf2,c
  9247                           
  9248                           ; BSR set to: 0
  9249  00EC28  4A40               	infsnz	sprintf@sp,f,c
  9250  00EC2A  2A41               	incf	sprintf@sp+1,f,c
  9251  00EC2C  D000               	goto	l4484
  9252  00EC2E                     l4484:
  9253                           
  9254                           ; BSR set to: 0
  9255  00EC2E  0100               	movlb	0	; () banked
  9256  00EC30  0783               	decf	sprintf@width& (0+255),f,b
  9257  00EC32  A0D8               	btfss	status,0,c
  9258  00EC34  0784               	decf	(sprintf@width+1)& (0+255),f,b
  9259  00EC36  0100               	movlb	0	; () banked
  9260  00EC38  2983               	incf	sprintf@width& (0+255),w,b
  9261  00EC3A  E1F0               	bnz	l4480
  9262  00EC3C  0100               	movlb	0	; () banked
  9263  00EC3E  2984               	incf	(sprintf@width+1)& (0+255),w,b
  9264  00EC40  B4D8               	btfsc	status,2,c
  9265  00EC42  D01D               	goto	l4492
  9266  00EC44  D7EB               	goto	l4480
  9267                           
  9268                           ; BSR set to: 0
  9269                           ;doprnt.c: 767: while(len--)
  9270                           
  9271                           ; BSR set to: 0
  9272  00EC46  D01B               	goto	l4492
  9273  00EC48                     l4486:
  9274                           
  9275                           ; BSR set to: 0
  9276                           ;doprnt.c: 768: ((*sp++ = (*cp++)));
  9277  00EC48  C06E  FFF6         	movff	sprintf@cp,tblptrl
  9278  00EC4C  C06F  FFF7         	movff	sprintf@cp+1,tblptrh
  9279  00EC50  6AF8               	clrf	tblptru,c
  9280  00EC52  C040  FFD9         	movff	sprintf@sp,fsr2l
  9281  00EC56  C041  FFDA         	movff	sprintf@sp+1,fsr2h
  9282  00EC5A  0E0E               	movlw	(high __ramtop+-1)
  9283  00EC5C  64F7               	cpfsgt	tblptrh,c
  9284  00EC5E  D003               	bra	u5057
  9285  00EC60  0008               	tblrd		*
  9286  00EC62  50F5               	movf	tablat,w,c
  9287  00EC64  D005               	bra	u5050
  9288  00EC66                     u5057:
  9289  00EC66  CFF6 FFE9          	movff	tblptrl,fsr0l
  9290  00EC6A  CFF7 FFEA          	movff	tblptrh,fsr0h
  9291  00EC6E  50EF               	movf	indf0,w,c
  9292  00EC70                     u5050:
  9293  00EC70  6EDF               	movwf	indf2,c
  9294  00EC72  0100               	movlb	0	; () banked
  9295  00EC74  4B6E               	infsnz	sprintf@cp& (0+255),f,b
  9296  00EC76  2B6F               	incf	(sprintf@cp+1)& (0+255),f,b
  9297                           
  9298                           ; BSR set to: 0
  9299  00EC78  4A40               	infsnz	sprintf@sp,f,c
  9300  00EC7A  2A41               	incf	sprintf@sp+1,f,c
  9301  00EC7C  D000               	goto	l4492
  9302  00EC7E                     l4492:
  9303                           
  9304                           ; BSR set to: 0
  9305  00EC7E  0100               	movlb	0	; () banked
  9306  00EC80  0770               	decf	sprintf@len& (0+255),f,b
  9307  00EC82  A0D8               	btfss	status,0,c
  9308  00EC84  0771               	decf	(sprintf@len+1)& (0+255),f,b
  9309  00EC86  0100               	movlb	0	; () banked
  9310  00EC88  2970               	incf	sprintf@len& (0+255),w,b
  9311  00EC8A  E1DE               	bnz	l4486
  9312  00EC8C  0100               	movlb	0	; () banked
  9313  00EC8E  2971               	incf	(sprintf@len+1)& (0+255),w,b
  9314  00EC90  A4D8               	btfss	status,2,c
  9315  00EC92  D7DA               	goto	l4486
  9316                           
  9317                           ; BSR set to: 0
  9318                           ;doprnt.c: 770: if(flag & 0x08)
  9319  00EC94  0100               	movlb	0	; () banked
  9320  00EC96  B786               	btfsc	sprintf@flag& (0+255),3,b
  9321  00EC98  D00C               	goto	l4500
  9322  00EC9A  EF67  F07E         	goto	l4954
  9323                           
  9324                           ; BSR set to: 0
  9325                           ;doprnt.c: 771: while(width--)
  9326  00EC9E  D009               	goto	l4500
  9327  00ECA0                     l4496:
  9328                           
  9329                           ; BSR set to: 0
  9330                           ;doprnt.c: 772: ((*sp++ = (' ')));
  9331  00ECA0  C040  FFD9         	movff	sprintf@sp,fsr2l
  9332  00ECA4  C041  FFDA         	movff	sprintf@sp+1,fsr2h
  9333  00ECA8  0E20               	movlw	32
  9334  00ECAA  6EDF               	movwf	indf2,c
  9335                           
  9336                           ; BSR set to: 0
  9337  00ECAC  4A40               	infsnz	sprintf@sp,f,c
  9338  00ECAE  2A41               	incf	sprintf@sp+1,f,c
  9339  00ECB0  D000               	goto	l4500
  9340  00ECB2                     l4500:
  9341                           
  9342                           ; BSR set to: 0
  9343  00ECB2  0100               	movlb	0	; () banked
  9344  00ECB4  0783               	decf	sprintf@width& (0+255),f,b
  9345  00ECB6  A0D8               	btfss	status,0,c
  9346  00ECB8  0784               	decf	(sprintf@width+1)& (0+255),f,b
  9347  00ECBA  0100               	movlb	0	; () banked
  9348  00ECBC  2983               	incf	sprintf@width& (0+255),w,b
  9349  00ECBE  E1F0               	bnz	l4496
  9350  00ECC0  0100               	movlb	0	; () banked
  9351  00ECC2  2984               	incf	(sprintf@width+1)& (0+255),w,b
  9352  00ECC4  B4D8               	btfsc	status,2,c
  9353  00ECC6  EF67  F07E         	goto	l4954
  9354  00ECCA  D7EA               	goto	l4496
  9355                           
  9356                           ; BSR set to: 0
  9357                           ;doprnt.c: 774: continue;
  9358                           
  9359                           ; BSR set to: 0
  9360  00ECCC  EF67  F07E         	goto	l4954
  9361  00ECD0                     l4502:
  9362                           
  9363                           ; BSR set to: 0
  9364                           ;doprnt.c: 799: c = (*(int *)__va_arg((*(int **)ap), (int)0));
  9365  00ECD0  C072  FFD9         	movff	sprintf@ap,fsr2l
  9366  00ECD4  C073  FFDA         	movff	sprintf@ap+1,fsr2h
  9367  00ECD8  50DF               	movf	indf2,w,c
  9368  00ECDA  0100               	movlb	0	; () banked
  9369  00ECDC  6F85               	movwf	sprintf@c& (0+255),b
  9370                           
  9371                           ; BSR set to: 0
  9372  00ECDE  0E02               	movlw	2
  9373  00ECE0  0100               	movlb	0	; () banked
  9374  00ECE2  2772               	addwf	sprintf@ap& (0+255),f,b
  9375  00ECE4  0E00               	movlw	0
  9376  00ECE6  2373               	addwfc	(sprintf@ap+1)& (0+255),f,b
  9377  00ECE8  D000               	goto	l4506
  9378  00ECEA                     l4506:
  9379                           
  9380                           ; BSR set to: 0
  9381                           ;doprnt.c: 805: cp = (char *)&c;
  9382  00ECEA  0E85               	movlw	low sprintf@c
  9383  00ECEC  0100               	movlb	0	; () banked
  9384  00ECEE  6F6E               	movwf	sprintf@cp& (0+255),b
  9385  00ECF0  0E00               	movlw	high sprintf@c
  9386  00ECF2  0100               	movlb	0	; () banked
  9387  00ECF4  6F6F               	movwf	(sprintf@cp+1)& (0+255),b
  9388                           
  9389                           ; BSR set to: 0
  9390                           ;doprnt.c: 806: len = 1;
  9391  00ECF6  0E00               	movlw	0
  9392  00ECF8  0100               	movlb	0	; () banked
  9393  00ECFA  6F71               	movwf	(sprintf@len+1)& (0+255),b
  9394  00ECFC  0E01               	movlw	1
  9395  00ECFE  6F70               	movwf	sprintf@len& (0+255),b
  9396                           
  9397                           ;doprnt.c: 807: goto dostring;
  9398  00ED00  D75A               	goto	l4464
  9399  00ED02                     l4510:
  9400                           
  9401                           ; BSR set to: 0
  9402                           ;doprnt.c: 818: flag |= 0xC0;
  9403  00ED02  0EC0               	movlw	192
  9404  00ED04  0100               	movlb	0	; () banked
  9405  00ED06  1386               	iorwf	sprintf@flag& (0+255),f,b
  9406                           
  9407                           ; BSR set to: 0
  9408                           ;doprnt.c: 822: }
  9409                           
  9410                           ;doprnt.c: 819: break;
  9411  00ED08  D02B               	goto	l4516
  9412  00ED0A                     l4514:
  9413  00ED0A  C042  FFF6         	movff	sprintf@f,tblptrl
  9414  00ED0E  C043  FFF7         	movff	sprintf@f+1,tblptrh
  9415  00ED12  4A42               	infsnz	sprintf@f,f,c
  9416  00ED14  2A43               	incf	sprintf@f+1,f,c
  9417  00ED16                     	if	0	;tblptru may be non-zero
  9418  00ED16                     	endif
  9419  00ED16                     	if	0	;tblptru may be non-zero
  9420  00ED16                     	endif
  9421  00ED16  0008               	tblrd		*
  9422  00ED18  CFF5 F085          	movff	tablat,sprintf@c
  9423  00ED1C  0100               	movlb	0	; () banked
  9424  00ED1E  5185               	movf	sprintf@c& (0+255),w,b
  9425                           
  9426                           ; Switch size 1, requested type "space"
  9427                           ; Number of cases is 10, Range of values is 0 to 120
  9428                           ; switch strategies available:
  9429                           ; Name         Instructions Cycles
  9430                           ; simple_byte           31    16 (average)
  9431                           ;	Chosen strategy is simple_byte
  9432  00ED20  0A00               	xorlw	0	; case 0
  9433  00ED22  B4D8               	btfsc	status,2,c
  9434  00ED24  EF77  F07E         	goto	l4956
  9435  00ED28  0A58               	xorlw	88	; case 88
  9436  00ED2A  B4D8               	btfsc	status,2,c
  9437  00ED2C  D6FC               	goto	l4448
  9438  00ED2E  0A3B               	xorlw	59	; case 99
  9439  00ED30  B4D8               	btfsc	status,2,c
  9440  00ED32  D7CE               	goto	l4502
  9441  00ED34  0A07               	xorlw	7	; case 100
  9442  00ED36  B4D8               	btfsc	status,2,c
  9443  00ED38  D013               	goto	l4516
  9444  00ED3A  0A02               	xorlw	2	; case 102
  9445  00ED3C  B4D8               	btfsc	status,2,c
  9446  00ED3E  D6ED               	goto	l4444
  9447  00ED40  0A0F               	xorlw	15	; case 105
  9448  00ED42  B4D8               	btfsc	status,2,c
  9449  00ED44  D00D               	goto	l4516
  9450  00ED46  0A06               	xorlw	6	; case 111
  9451  00ED48  B4D8               	btfsc	status,2,c
  9452  00ED4A  D6EA               	goto	l4446
  9453  00ED4C  0A1C               	xorlw	28	; case 115
  9454  00ED4E  B4D8               	btfsc	status,2,c
  9455  00ED50  D6EF               	goto	l4450
  9456  00ED52  0A06               	xorlw	6	; case 117
  9457  00ED54  B4D8               	btfsc	status,2,c
  9458  00ED56  D7D5               	goto	l4510
  9459  00ED58  0A0D               	xorlw	13	; case 120
  9460  00ED5A  B4D8               	btfsc	status,2,c
  9461  00ED5C  D6E6               	goto	l472
  9462  00ED5E  D7C5               	goto	l4506
  9463  00ED60                     l4516:
  9464                           
  9465                           ; BSR set to: 0
  9466                           ;doprnt.c: 825: if(flag & (0x700)) {
  9467  00ED60  0E07               	movlw	7
  9468  00ED62  0100               	movlb	0	; () banked
  9469  00ED64  1587               	andwf	(sprintf@flag+1)& (0+255),w,b
  9470  00ED66  B4D8               	btfsc	status,2,c
  9471  00ED68  EFC5  F07A         	goto	l4734
  9472                           
  9473                           ; BSR set to: 0
  9474                           ;doprnt.c: 827: if(flag & 0x1000)
  9475  00ED6C  0100               	movlb	0	; () banked
  9476  00ED6E  A987               	btfss	(sprintf@flag+1)& (0+255),4,b
  9477  00ED70  D006               	goto	l4522
  9478                           
  9479                           ; BSR set to: 0
  9480                           ;doprnt.c: 829: prec = 6;
  9481  00ED72  0E00               	movlw	0
  9482  00ED74  0100               	movlb	0	; () banked
  9483  00ED76  6F82               	movwf	(sprintf@prec+1)& (0+255),b
  9484  00ED78  0E06               	movlw	6
  9485  00ED7A  6F81               	movwf	sprintf@prec& (0+255),b
  9486  00ED7C  D000               	goto	l4522
  9487  00ED7E                     l4522:
  9488                           
  9489                           ; BSR set to: 0
  9490                           ;doprnt.c: 830: fval = (*(double *)__va_arg((*(double **)ap), (double)0));
  9491  00ED7E  C072  FFD9         	movff	sprintf@ap,fsr2l
  9492  00ED82  C073  FFDA         	movff	sprintf@ap+1,fsr2h
  9493  00ED86  CFDE F07A          	movff	postinc2,sprintf@fval
  9494  00ED8A  CFDE F07B          	movff	postinc2,sprintf@fval+1
  9495  00ED8E  CFDD F07C          	movff	postdec2,sprintf@fval+2
  9496                           
  9497                           ; BSR set to: 0
  9498  00ED92  0E03               	movlw	3
  9499  00ED94  0100               	movlb	0	; () banked
  9500  00ED96  2772               	addwf	sprintf@ap& (0+255),f,b
  9501  00ED98  0E00               	movlw	0
  9502  00ED9A  2373               	addwfc	(sprintf@ap+1)& (0+255),f,b
  9503                           
  9504                           ; BSR set to: 0
  9505                           ;doprnt.c: 831: if(fval < 0.0) {
  9506  00ED9C  0100               	movlb	0	; () banked
  9507  00ED9E  AF7C               	btfss	(sprintf@fval+2)& (0+255),7,b
  9508  00EDA0  D012               	goto	l4532
  9509                           
  9510                           ; BSR set to: 0
  9511                           ;doprnt.c: 832: fval = -fval;
  9512  00EDA2  C07A  F001         	movff	sprintf@fval,___ftneg@f1
  9513  00EDA6  C07B  F002         	movff	sprintf@fval+1,___ftneg@f1+1
  9514  00EDAA  C07C  F003         	movff	sprintf@fval+2,___ftneg@f1+2
  9515  00EDAE  EC6E  F05A         	call	___ftneg	;wreg free
  9516  00EDB2  C001  F07A         	movff	?___ftneg,sprintf@fval
  9517  00EDB6  C002  F07B         	movff	?___ftneg+1,sprintf@fval+1
  9518  00EDBA  C003  F07C         	movff	?___ftneg+2,sprintf@fval+2
  9519                           
  9520                           ;doprnt.c: 833: flag |= 0x03;
  9521  00EDBE  0E03               	movlw	3
  9522  00EDC0  0100               	movlb	0	; () banked
  9523  00EDC2  1386               	iorwf	sprintf@flag& (0+255),f,b
  9524  00EDC4  D000               	goto	l4532
  9525  00EDC6                     l4532:
  9526                           
  9527                           ; BSR set to: 0
  9528                           ;doprnt.c: 834: }
  9529                           ;doprnt.c: 835: exp = 0;
  9530  00EDC6  0E00               	movlw	0
  9531  00EDC8  0100               	movlb	0	; () banked
  9532  00EDCA  6F79               	movwf	(sprintf@exp+1)& (0+255),b
  9533  00EDCC  0E00               	movlw	0
  9534  00EDCE  6F78               	movwf	sprintf@exp& (0+255),b
  9535                           
  9536                           ; BSR set to: 0
  9537                           ;doprnt.c: 836: if( fval!=0) {
  9538  00EDD0  0100               	movlb	0	; () banked
  9539  00EDD2  517A               	movf	sprintf@fval& (0+255),w,b
  9540  00EDD4  0100               	movlb	0	; () banked
  9541  00EDD6  117B               	iorwf	(sprintf@fval+1)& (0+255),w,b
  9542  00EDD8  0100               	movlb	0	; () banked
  9543  00EDDA  117C               	iorwf	(sprintf@fval+2)& (0+255),w,b
  9544  00EDDC  B4D8               	btfsc	status,2,c
  9545  00EDDE  D08D               	goto	l4560
  9546                           
  9547                           ; BSR set to: 0
  9548                           ;doprnt.c: 837: (void)(*(&exp) = ((*(unsigned long *)&fval >> 15) & 255) - 126);
  9549  00EDE0  0E82               	movlw	130
  9550  00EDE2  6E4A               	movwf	??_sprintf& (0+255),c
  9551  00EDE4  0EFF               	movlw	255
  9552  00EDE6  6E4B               	movwf	(??_sprintf+1)& (0+255),c
  9553  00EDE8  C07A  F04C         	movff	sprintf@fval,??_sprintf+2
  9554  00EDEC  C07B  F04D         	movff	sprintf@fval+1,??_sprintf+3
  9555  00EDF0  C07C  F04E         	movff	sprintf@fval+2,??_sprintf+4
  9556  00EDF4  C07D  F04F         	movff	sprintf@fval+3,??_sprintf+5
  9557  00EDF8  0E10               	movlw	16
  9558  00EDFA  D005               	goto	u5130
  9559  00EDFC                     u5135:
  9560  00EDFC  90D8               	bcf	status,0,c
  9561  00EDFE  324F               	rrcf	??_sprintf+5,f,c
  9562  00EE00  324E               	rrcf	??_sprintf+4,f,c
  9563  00EE02  324D               	rrcf	??_sprintf+3,f,c
  9564  00EE04  324C               	rrcf	??_sprintf+2,f,c
  9565  00EE06                     u5130:
  9566  00EE06  2EE8               	decfsz	wreg,f,c
  9567  00EE08  D7F9               	goto	u5135
  9568  00EE0A  504C               	movf	??_sprintf+2,w,c
  9569  00EE0C  244A               	addwf	??_sprintf,w,c
  9570  00EE0E  0100               	movlb	0	; () banked
  9571  00EE10  6F78               	movwf	sprintf@exp& (0+255),b
  9572  00EE12  0E00               	movlw	0
  9573  00EE14  204B               	addwfc	??_sprintf+1,w,c
  9574  00EE16  0100               	movlb	0	; () banked
  9575  00EE18  6F79               	movwf	(sprintf@exp+1)& (0+255),b
  9576                           
  9577                           ; BSR set to: 0
  9578                           ;doprnt.c: 838: exp--;
  9579  00EE1A  0100               	movlb	0	; () banked
  9580  00EE1C  0778               	decf	sprintf@exp& (0+255),f,b
  9581  00EE1E  A0D8               	btfss	status,0,c
  9582  00EE20  0779               	decf	(sprintf@exp+1)& (0+255),f,b
  9583                           
  9584                           ; BSR set to: 0
  9585                           ;doprnt.c: 839: exp *= 3;
  9586  00EE22  C078  F00F         	movff	sprintf@exp,___wmul@multiplier
  9587  00EE26  C079  F010         	movff	sprintf@exp+1,___wmul@multiplier+1
  9588  00EE2A  0E00               	movlw	0
  9589  00EE2C  6E12               	movwf	___wmul@multiplicand+1,c
  9590  00EE2E  0E03               	movlw	3
  9591  00EE30  6E11               	movwf	___wmul@multiplicand,c
  9592  00EE32  EC93  F05A         	call	___wmul	;wreg free
  9593  00EE36  C00F  F078         	movff	?___wmul,sprintf@exp
  9594  00EE3A  C010  F079         	movff	?___wmul+1,sprintf@exp+1
  9595                           
  9596                           ;doprnt.c: 840: exp /= 10;
  9597  00EE3E  C078  F007         	movff	sprintf@exp,___awdiv@dividend
  9598  00EE42  C079  F008         	movff	sprintf@exp+1,___awdiv@dividend+1
  9599  00EE46  0E00               	movlw	0
  9600  00EE48  6E0A               	movwf	___awdiv@divisor+1,c
  9601  00EE4A  0E0A               	movlw	10
  9602  00EE4C  6E09               	movwf	___awdiv@divisor,c
  9603  00EE4E  ECDE  F05D         	call	___awdiv	;wreg free
  9604  00EE52  C007  F078         	movff	?___awdiv,sprintf@exp
  9605  00EE56  C008  F079         	movff	?___awdiv+1,sprintf@exp+1
  9606                           
  9607                           ;doprnt.c: 841: if(exp < 0)
  9608  00EE5A  0100               	movlb	0	; () banked
  9609  00EE5C  AF79               	btfss	(sprintf@exp+1)& (0+255),7,b
  9610  00EE5E  D005               	goto	l4548
  9611                           
  9612                           ; BSR set to: 0
  9613                           ;doprnt.c: 842: exp--;
  9614  00EE60  0100               	movlb	0	; () banked
  9615  00EE62  0778               	decf	sprintf@exp& (0+255),f,b
  9616  00EE64  A0D8               	btfss	status,0,c
  9617  00EE66  0779               	decf	(sprintf@exp+1)& (0+255),f,b
  9618  00EE68  D000               	goto	l4548
  9619  00EE6A                     l4548:
  9620                           
  9621                           ; BSR set to: 0
  9622                           ;doprnt.c: 846: tmpval.integ = scale(-exp);
  9623  00EE6A  0100               	movlb	0	; () banked
  9624  00EE6C  5178               	movf	sprintf@exp& (0+255),w,b
  9625  00EE6E  0800               	sublw	0
  9626  00EE70  EC2B  F06C         	call	_scale
  9627  00EE74  C024  F074         	movff	?_scale,sprintf@tmpval
  9628  00EE78  C025  F075         	movff	?_scale+1,sprintf@tmpval+1
  9629  00EE7C  C026  F076         	movff	?_scale+2,sprintf@tmpval+2
  9630                           
  9631                           ;doprnt.c: 847: tmpval.integ *= fval;
  9632  00EE80  C074  F015         	movff	sprintf@tmpval,___ftmul@f1
  9633  00EE84  C075  F016         	movff	sprintf@tmpval+1,___ftmul@f1+1
  9634  00EE88  C076  F017         	movff	sprintf@tmpval+2,___ftmul@f1+2
  9635  00EE8C  C07A  F018         	movff	sprintf@fval,___ftmul@f2
  9636  00EE90  C07B  F019         	movff	sprintf@fval+1,___ftmul@f2+1
  9637  00EE94  C07C  F01A         	movff	sprintf@fval+2,___ftmul@f2+2
  9638  00EE98  ECFD  F05F         	call	___ftmul	;wreg free
  9639  00EE9C  C015  F074         	movff	?___ftmul,sprintf@tmpval
  9640  00EEA0  C016  F075         	movff	?___ftmul+1,sprintf@tmpval+1
  9641  00EEA4  C017  F076         	movff	?___ftmul+2,sprintf@tmpval+2
  9642                           
  9643                           ;doprnt.c: 848: if(tmpval.integ < 1.0)
  9644  00EEA8  C074  F001         	movff	sprintf@tmpval,___ftge@ff1
  9645  00EEAC  C075  F002         	movff	sprintf@tmpval+1,___ftge@ff1+1
  9646  00EEB0  C076  F003         	movff	sprintf@tmpval+2,___ftge@ff1+2
  9647  00EEB4  0E00               	movlw	0
  9648  00EEB6  6E04               	movwf	___ftge@ff2,c
  9649  00EEB8  0E80               	movlw	128
  9650  00EEBA  6E05               	movwf	___ftge@ff2+1,c
  9651  00EEBC  0E3F               	movlw	63
  9652  00EEBE  6E06               	movwf	___ftge@ff2+2,c
  9653  00EEC0  EC93  F05D         	call	___ftge	;wreg free
  9654  00EEC4  B0D8               	btfsc	status,0,c
  9655  00EEC6  D005               	goto	l4556
  9656                           
  9657                           ;doprnt.c: 849: exp--;
  9658  00EEC8  0100               	movlb	0	; () banked
  9659  00EECA  0778               	decf	sprintf@exp& (0+255),f,b
  9660  00EECC  A0D8               	btfss	status,0,c
  9661  00EECE  0779               	decf	(sprintf@exp+1)& (0+255),f,b
  9662  00EED0  D014               	goto	l4560
  9663  00EED2                     l4556:
  9664                           
  9665                           ;doprnt.c: 850: else if(tmpval.integ >= 10.0)
  9666  00EED2  C074  F001         	movff	sprintf@tmpval,___ftge@ff1
  9667  00EED6  C075  F002         	movff	sprintf@tmpval+1,___ftge@ff1+1
  9668  00EEDA  C076  F003         	movff	sprintf@tmpval+2,___ftge@ff1+2
  9669  00EEDE  0E00               	movlw	0
  9670  00EEE0  6E04               	movwf	___ftge@ff2,c
  9671  00EEE2  0E20               	movlw	32
  9672  00EEE4  6E05               	movwf	___ftge@ff2+1,c
  9673  00EEE6  0E41               	movlw	65
  9674  00EEE8  6E06               	movwf	___ftge@ff2+2,c
  9675  00EEEA  EC93  F05D         	call	___ftge	;wreg free
  9676  00EEEE  A0D8               	btfss	status,0,c
  9677  00EEF0  D004               	goto	l4560
  9678                           
  9679                           ;doprnt.c: 851: exp++;
  9680  00EEF2  0100               	movlb	0	; () banked
  9681  00EEF4  4B78               	infsnz	sprintf@exp& (0+255),f,b
  9682  00EEF6  2B79               	incf	(sprintf@exp+1)& (0+255),f,b
  9683                           
  9684                           ; BSR set to: 0
  9685                           
  9686                           ; BSR set to: 0
  9687  00EEF8  D000               	goto	l4560
  9688  00EEFA                     l4560:
  9689                           
  9690                           ;doprnt.c: 852: }
  9691                           ;doprnt.c: 1112: if(prec <= 12)
  9692  00EEFA  0100               	movlb	0	; () banked
  9693  00EEFC  BF82               	btfsc	(sprintf@prec+1)& (0+255),7,b
  9694  00EEFE  D008               	goto	l4562
  9695  00EF00  0100               	movlb	0	; () banked
  9696  00EF02  5182               	movf	(sprintf@prec+1)& (0+255),w,b
  9697  00EF04  E11E               	bnz	l4564
  9698  00EF06  0E0D               	movlw	13
  9699  00EF08  0100               	movlb	0	; () banked
  9700  00EF0A  5D81               	subwf	sprintf@prec& (0+255),w,b
  9701  00EF0C  B0D8               	btfsc	status,0,c
  9702  00EF0E  D019               	goto	l4564
  9703  00EF10                     l4562:
  9704                           
  9705                           ; BSR set to: 0
  9706                           ;doprnt.c: 1113: fval += fround(prec);
  9707  00EF10  C07A  F02E         	movff	sprintf@fval,___ftadd@f1
  9708  00EF14  C07B  F02F         	movff	sprintf@fval+1,___ftadd@f1+1
  9709  00EF18  C07C  F030         	movff	sprintf@fval+2,___ftadd@f1+2
  9710  00EF1C  0100               	movlb	0	; () banked
  9711  00EF1E  5181               	movf	sprintf@prec& (0+255),w,b
  9712  00EF20  ECC2  F069         	call	_fround
  9713  00EF24  C024  F031         	movff	?_fround,___ftadd@f2
  9714  00EF28  C025  F032         	movff	?_fround+1,___ftadd@f2+1
  9715  00EF2C  C026  F033         	movff	?_fround+2,___ftadd@f2+2
  9716  00EF30  ECE7  F067         	call	___ftadd	;wreg free
  9717  00EF34  C02E  F07A         	movff	?___ftadd,sprintf@fval
  9718  00EF38  C02F  F07B         	movff	?___ftadd+1,sprintf@fval+1
  9719  00EF3C  C030  F07C         	movff	?___ftadd+2,sprintf@fval+2
  9720  00EF40  D000               	goto	l4564
  9721  00EF42                     l4564:
  9722                           
  9723                           ;doprnt.c: 1116: if((exp > 9)||(fval != 0 && (unsigned long)fval == 0 && exp > 1)) {
  9724  00EF42  0100               	movlb	0	; () banked
  9725  00EF44  BF79               	btfsc	(sprintf@exp+1)& (0+255),7,b
  9726  00EF46  D008               	goto	l4566
  9727  00EF48  0100               	movlb	0	; () banked
  9728  00EF4A  5179               	movf	(sprintf@exp+1)& (0+255),w,b
  9729  00EF4C  E128               	bnz	l4572
  9730  00EF4E  0E0A               	movlw	10
  9731  00EF50  0100               	movlb	0	; () banked
  9732  00EF52  5D78               	subwf	sprintf@exp& (0+255),w,b
  9733  00EF54  B0D8               	btfsc	status,0,c
  9734  00EF56  D023               	goto	l4572
  9735  00EF58                     l4566:
  9736                           
  9737                           ; BSR set to: 0
  9738  00EF58  0100               	movlb	0	; () banked
  9739  00EF5A  517A               	movf	sprintf@fval& (0+255),w,b
  9740  00EF5C  0100               	movlb	0	; () banked
  9741  00EF5E  117B               	iorwf	(sprintf@fval+1)& (0+255),w,b
  9742  00EF60  0100               	movlb	0	; () banked
  9743  00EF62  117C               	iorwf	(sprintf@fval+2)& (0+255),w,b
  9744  00EF64  B4D8               	btfsc	status,2,c
  9745  00EF66  D077               	goto	l4586
  9746                           
  9747                           ; BSR set to: 0
  9748  00EF68  C07A  F02B         	movff	sprintf@fval,___fttol@f1
  9749  00EF6C  C07B  F02C         	movff	sprintf@fval+1,___fttol@f1+1
  9750  00EF70  C07C  F02D         	movff	sprintf@fval+2,___fttol@f1+2
  9751  00EF74  EC7C  F05F         	call	___fttol	;wreg free
  9752  00EF78  502B               	movf	?___fttol,w,c
  9753  00EF7A  102C               	iorwf	?___fttol+1,w,c
  9754  00EF7C  102D               	iorwf	?___fttol+2,w,c
  9755  00EF7E  102E               	iorwf	?___fttol+3,w,c
  9756  00EF80  A4D8               	btfss	status,2,c
  9757  00EF82  D069               	goto	l4586
  9758  00EF84  0100               	movlb	0	; () banked
  9759  00EF86  BF79               	btfsc	(sprintf@exp+1)& (0+255),7,b
  9760  00EF88  D066               	goto	l4586
  9761  00EF8A  0100               	movlb	0	; () banked
  9762  00EF8C  5179               	movf	(sprintf@exp+1)& (0+255),w,b
  9763  00EF8E  E107               	bnz	l4572
  9764  00EF90  0E02               	movlw	2
  9765  00EF92  0100               	movlb	0	; () banked
  9766  00EF94  5D78               	subwf	sprintf@exp& (0+255),w,b
  9767  00EF96  B0D8               	btfsc	status,0,c
  9768  00EF98  D002               	goto	l4572
  9769  00EF9A  D05D               	goto	l4586
  9770  00EF9C  D000               	goto	l4572
  9771  00EF9E                     l4572:
  9772                           
  9773                           ; BSR set to: 0
  9774                           ;doprnt.c: 1120: if(tmpval.integ < 4.294967296){
  9775  00EF9E  C074  F001         	movff	sprintf@tmpval,___ftge@ff1
  9776  00EFA2  C075  F002         	movff	sprintf@tmpval+1,___ftge@ff1+1
  9777  00EFA6  C076  F003         	movff	sprintf@tmpval+2,___ftge@ff1+2
  9778  00EFAA  0E70               	movlw	112
  9779  00EFAC  6E04               	movwf	___ftge@ff2,c
  9780  00EFAE  0E89               	movlw	137
  9781  00EFB0  6E05               	movwf	___ftge@ff2+1,c
  9782  00EFB2  0E40               	movlw	64
  9783  00EFB4  6E06               	movwf	___ftge@ff2+2,c
  9784  00EFB6  EC93  F05D         	call	___ftge	;wreg free
  9785  00EFBA  B0D8               	btfsc	status,0,c
  9786  00EFBC  D003               	goto	l4576
  9787                           
  9788                           ;doprnt.c: 1121: exp -= (sizeof dpowers/sizeof dpowers[0])-1;
  9789  00EFBE  0100               	movlb	0	; () banked
  9790  00EFC0  0EF7               	movlw	247
  9791  00EFC2  D002               	goto	L11
  9792  00EFC4                     l4576:
  9793                           
  9794                           ;doprnt.c: 1123: exp -= (sizeof dpowers/sizeof dpowers[0])-2;
  9795  00EFC4  0100               	movlb	0	; () banked
  9796  00EFC6  0EF8               	movlw	248
  9797  00EFC8                     L11:
  9798  00EFC8  2778               	addwf	sprintf@exp& (0+255),f,b
  9799  00EFCA  0EFF               	movlw	255
  9800  00EFCC  2379               	addwfc	(sprintf@exp+1)& (0+255),f,b
  9801  00EFCE  D000               	goto	l4578
  9802  00EFD0                     l4578:
  9803                           
  9804                           ; BSR set to: 0
  9805                           ;doprnt.c: 1124: }
  9806                           ;doprnt.c: 1125: tmpval.integ = scale(exp);
  9807  00EFD0  0100               	movlb	0	; () banked
  9808  00EFD2  5178               	movf	sprintf@exp& (0+255),w,b
  9809  00EFD4  EC2B  F06C         	call	_scale
  9810  00EFD8  C024  F074         	movff	?_scale,sprintf@tmpval
  9811  00EFDC  C025  F075         	movff	?_scale+1,sprintf@tmpval+1
  9812  00EFE0  C026  F076         	movff	?_scale+2,sprintf@tmpval+2
  9813                           
  9814                           ;doprnt.c: 1126: val = ((sizeof(double)== 3) ? _tdiv_to_l_(fval,tmpval.integ) : _div_to_
      +                          l_(fval,tmpval.integ));
  9815  00EFE4  D017               	goto	l4582
  9816  00EFE6  C07A  F001         	movff	sprintf@fval,__div_to_l_@f1
  9817  00EFEA  C07B  F002         	movff	sprintf@fval+1,__div_to_l_@f1+1
  9818  00EFEE  C07C  F003         	movff	sprintf@fval+2,__div_to_l_@f1+2
  9819  00EFF2  C074  F004         	movff	sprintf@tmpval,__div_to_l_@f2
  9820  00EFF6  C075  F005         	movff	sprintf@tmpval+1,__div_to_l_@f2+1
  9821  00EFFA  C076  F006         	movff	sprintf@tmpval+2,__div_to_l_@f2+2
  9822  00EFFE  EC44  F063         	call	__div_to_l_	;wreg free
  9823  00F002  C001  F07D         	movff	?__div_to_l_,sprintf@val
  9824  00F006  C002  F07E         	movff	?__div_to_l_+1,sprintf@val+1
  9825  00F00A  C003  F07F         	movff	?__div_to_l_+2,sprintf@val+2
  9826  00F00E  C004  F080         	movff	?__div_to_l_+3,sprintf@val+3
  9827  00F012  D017               	goto	l4584
  9828  00F014                     l4582:
  9829  00F014  C07A  F001         	movff	sprintf@fval,__tdiv_to_l_@f1
  9830  00F018  C07B  F002         	movff	sprintf@fval+1,__tdiv_to_l_@f1+1
  9831  00F01C  C07C  F003         	movff	sprintf@fval+2,__tdiv_to_l_@f1+2
  9832  00F020  C074  F004         	movff	sprintf@tmpval,__tdiv_to_l_@f2
  9833  00F024  C075  F005         	movff	sprintf@tmpval+1,__tdiv_to_l_@f2+1
  9834  00F028  C076  F006         	movff	sprintf@tmpval+2,__tdiv_to_l_@f2+2
  9835  00F02C  ECDE  F063         	call	__tdiv_to_l_	;wreg free
  9836  00F030  C001  F07D         	movff	?__tdiv_to_l_,sprintf@val
  9837  00F034  C002  F07E         	movff	?__tdiv_to_l_+1,sprintf@val+1
  9838  00F038  C003  F07F         	movff	?__tdiv_to_l_+2,sprintf@val+2
  9839  00F03C  C004  F080         	movff	?__tdiv_to_l_+3,sprintf@val+3
  9840  00F040  D000               	goto	l4584
  9841  00F042                     l4584:
  9842                           
  9843                           ;doprnt.c: 1129: fval = 0.0;
  9844  00F042  0E00               	movlw	0
  9845  00F044  0100               	movlb	0	; () banked
  9846  00F046  6F7A               	movwf	sprintf@fval& (0+255),b
  9847  00F048  0E00               	movlw	0
  9848  00F04A  0100               	movlb	0	; () banked
  9849  00F04C  6F7B               	movwf	(sprintf@fval+1)& (0+255),b
  9850  00F04E  0E00               	movlw	0
  9851  00F050  0100               	movlb	0	; () banked
  9852  00F052  6F7C               	movwf	(sprintf@fval+2)& (0+255),b
  9853                           
  9854                           ;doprnt.c: 1130: } else {
  9855  00F054  D034               	goto	l4590
  9856  00F056                     l4586:
  9857                           
  9858                           ;doprnt.c: 1131: val = (unsigned long)fval;
  9859  00F056  C07A  F02B         	movff	sprintf@fval,___fttol@f1
  9860  00F05A  C07B  F02C         	movff	sprintf@fval+1,___fttol@f1+1
  9861  00F05E  C07C  F02D         	movff	sprintf@fval+2,___fttol@f1+2
  9862  00F062  EC7C  F05F         	call	___fttol	;wreg free
  9863  00F066  C02B  F07D         	movff	?___fttol,sprintf@val
  9864  00F06A  C02C  F07E         	movff	?___fttol+1,sprintf@val+1
  9865  00F06E  C02D  F07F         	movff	?___fttol+2,sprintf@val+2
  9866  00F072  C02E  F080         	movff	?___fttol+3,sprintf@val+3
  9867                           
  9868                           ;doprnt.c: 1132: fval -= (double)val;
  9869  00F076  C07A  F03A         	movff	sprintf@fval,___ftsub@f1
  9870  00F07A  C07B  F03B         	movff	sprintf@fval+1,___ftsub@f1+1
  9871  00F07E  C07C  F03C         	movff	sprintf@fval+2,___ftsub@f1+2
  9872  00F082  C07D  F009         	movff	sprintf@val,___lltoft@c
  9873  00F086  C07E  F00A         	movff	sprintf@val+1,___lltoft@c+1
  9874  00F08A  C07F  F00B         	movff	sprintf@val+2,___lltoft@c+2
  9875  00F08E  C080  F00C         	movff	sprintf@val+3,___lltoft@c+3
  9876  00F092  EC2A  F05B         	call	___lltoft	;wreg free
  9877  00F096  C009  F03D         	movff	?___lltoft,___ftsub@f2
  9878  00F09A  C00A  F03E         	movff	?___lltoft+1,___ftsub@f2+1
  9879  00F09E  C00B  F03F         	movff	?___lltoft+2,___ftsub@f2+2
  9880  00F0A2  ECE1  F05A         	call	___ftsub	;wreg free
  9881  00F0A6  C03A  F07A         	movff	?___ftsub,sprintf@fval
  9882  00F0AA  C03B  F07B         	movff	?___ftsub+1,sprintf@fval+1
  9883  00F0AE  C03C  F07C         	movff	?___ftsub+2,sprintf@fval+2
  9884                           
  9885                           ;doprnt.c: 1133: exp = 0;
  9886  00F0B2  0E00               	movlw	0
  9887  00F0B4  0100               	movlb	0	; () banked
  9888  00F0B6  6F79               	movwf	(sprintf@exp+1)& (0+255),b
  9889  00F0B8  0E00               	movlw	0
  9890  00F0BA  6F78               	movwf	sprintf@exp& (0+255),b
  9891  00F0BC  D000               	goto	l4590
  9892  00F0BE                     l4590:
  9893                           
  9894                           ; BSR set to: 0
  9895                           ;doprnt.c: 1134: }
  9896                           ;doprnt.c: 1136: for(c = 1 ; c != (sizeof dpowers/sizeof dpowers[0]) ; c++)
  9897  00F0BE  0E01               	movlw	1
  9898  00F0C0  0100               	movlb	0	; () banked
  9899  00F0C2  6F85               	movwf	sprintf@c& (0+255),b
  9900  00F0C4                     l4592:
  9901                           
  9902                           ; BSR set to: 0
  9903  00F0C4  0E0A               	movlw	10
  9904  00F0C6  0100               	movlb	0	; () banked
  9905  00F0C8  1985               	xorwf	sprintf@c& (0+255),w,b
  9906  00F0CA  B4D8               	btfsc	status,2,c
  9907  00F0CC  D022               	goto	l4604
  9908  00F0CE  D001               	goto	l4596
  9909                           
  9910                           ; BSR set to: 0
  9911  00F0D0  D020               	goto	l4604
  9912  00F0D2                     l4596:
  9913                           
  9914                           ; BSR set to: 0
  9915                           ;doprnt.c: 1137: if(val < dpowers[c])
  9916  00F0D2  0100               	movlb	0	; () banked
  9917  00F0D4  5185               	movf	sprintf@c& (0+255),w,b
  9918  00F0D6  0D04               	mullw	4
  9919  00F0D8  0E2F               	movlw	low _dpowers
  9920  00F0DA  24F3               	addwf	prodl,w,c
  9921  00F0DC  6EF6               	movwf	tblptrl,c
  9922  00F0DE  0EFD               	movlw	high _dpowers
  9923  00F0E0  20F4               	addwfc	prodh,w,c
  9924  00F0E2  6EF7               	movwf	tblptrh,c
  9925  00F0E4                     	if	0	;There are less than 3 active tblptr bytes
  9926  00F0E4                     	endif
  9927  00F0E4  0009               	tblrd		*+
  9928  00F0E6  50F5               	movf	tablat,w,c
  9929  00F0E8  0100               	movlb	0	; () banked
  9930  00F0EA  5D7D               	subwf	sprintf@val& (0+255),w,b
  9931  00F0EC  0009               	tblrd		*+
  9932  00F0EE  50F5               	movf	tablat,w,c
  9933  00F0F0  0100               	movlb	0	; () banked
  9934  00F0F2  597E               	subwfb	(sprintf@val+1)& (0+255),w,b
  9935  00F0F4  0009               	tblrd		*+
  9936  00F0F6  50F5               	movf	tablat,w,c
  9937  00F0F8  0100               	movlb	0	; () banked
  9938  00F0FA  597F               	subwfb	(sprintf@val+2)& (0+255),w,b
  9939  00F0FC  0009               	tblrd		*+
  9940  00F0FE  50F5               	movf	tablat,w,c
  9941  00F100  0100               	movlb	0	; () banked
  9942  00F102  5980               	subwfb	(sprintf@val+3)& (0+255),w,b
  9943  00F104  A0D8               	btfss	status,0,c
  9944  00F106  D005               	goto	l4604
  9945  00F108  D001               	goto	l4600
  9946                           
  9947                           ; BSR set to: 0
  9948                           ;doprnt.c: 1138: break;
  9949  00F10A  D003               	goto	l4604
  9950  00F10C                     l4600:
  9951                           
  9952                           ; BSR set to: 0
  9953  00F10C  0100               	movlb	0	; () banked
  9954  00F10E  2B85               	incf	sprintf@c& (0+255),f,b
  9955  00F110  D7D9               	goto	l4592
  9956  00F112                     l4604:
  9957                           
  9958                           ; BSR set to: 0
  9959                           ;doprnt.c: 1142: width -= prec + c + exp;
  9960  00F112  C085  F04A         	movff	sprintf@c,??_sprintf
  9961  00F116  6A4B               	clrf	(??_sprintf+1)& (0+255),c
  9962  00F118  BE4A               	btfsc	??_sprintf& (0+255),7,c
  9963  00F11A  064B               	decf	(??_sprintf+1)& (0+255),f,c
  9964  00F11C  0100               	movlb	0	; () banked
  9965  00F11E  5181               	movf	sprintf@prec& (0+255),w,b
  9966  00F120  264A               	addwf	??_sprintf,f,c
  9967  00F122  0100               	movlb	0	; () banked
  9968  00F124  5182               	movf	(sprintf@prec+1)& (0+255),w,b
  9969  00F126  224B               	addwfc	??_sprintf+1,f,c
  9970  00F128  0100               	movlb	0	; () banked
  9971  00F12A  5178               	movf	sprintf@exp& (0+255),w,b
  9972  00F12C  264A               	addwf	??_sprintf,f,c
  9973  00F12E  0100               	movlb	0	; () banked
  9974  00F130  5179               	movf	(sprintf@exp+1)& (0+255),w,b
  9975  00F132  224B               	addwfc	??_sprintf+1,f,c
  9976  00F134  504A               	movf	??_sprintf,w,c
  9977  00F136  0100               	movlb	0	; () banked
  9978  00F138  5F83               	subwf	sprintf@width& (0+255),f,b
  9979  00F13A  504B               	movf	??_sprintf+1,w,c
  9980  00F13C  0100               	movlb	0	; () banked
  9981  00F13E  5B84               	subwfb	(sprintf@width+1)& (0+255),f,b
  9982                           
  9983                           ; BSR set to: 0
  9984                           ;doprnt.c: 1143: if(
  9985                           ;doprnt.c: 1145: flag & 0x800 ||
  9986                           ;doprnt.c: 1147: prec)
  9987  00F140  0100               	movlb	0	; () banked
  9988  00F142  B787               	btfsc	(sprintf@flag+1)& (0+255),3,b
  9989  00F144  D006               	goto	l4610
  9990                           
  9991                           ; BSR set to: 0
  9992  00F146  0100               	movlb	0	; () banked
  9993  00F148  5181               	movf	sprintf@prec& (0+255),w,b
  9994  00F14A  0100               	movlb	0	; () banked
  9995  00F14C  1182               	iorwf	(sprintf@prec+1)& (0+255),w,b
  9996  00F14E  B4D8               	btfsc	status,2,c
  9997  00F150  D005               	goto	l4612
  9998  00F152                     l4610:
  9999                           
 10000                           ; BSR set to: 0
 10001                           ;doprnt.c: 1148: width--;
 10002  00F152  0100               	movlb	0	; () banked
 10003  00F154  0783               	decf	sprintf@width& (0+255),f,b
 10004  00F156  A0D8               	btfss	status,0,c
 10005  00F158  0784               	decf	(sprintf@width+1)& (0+255),f,b
 10006  00F15A  D000               	goto	l4612
 10007  00F15C                     l4612:
 10008                           
 10009                           ; BSR set to: 0
 10010                           ;doprnt.c: 1149: if(flag & 0x03)
 10011  00F15C  0E03               	movlw	3
 10012  00F15E  0100               	movlb	0	; () banked
 10013  00F160  1586               	andwf	sprintf@flag& (0+255),w,b
 10014  00F162  6E4A               	movwf	??_sprintf& (0+255),c
 10015  00F164  0E00               	movlw	0
 10016  00F166  0100               	movlb	0	; () banked
 10017  00F168  1587               	andwf	(sprintf@flag+1)& (0+255),w,b
 10018  00F16A  6E4B               	movwf	(??_sprintf+1)& (0+255),c
 10019  00F16C  504A               	movf	??_sprintf,w,c
 10020  00F16E  104B               	iorwf	??_sprintf+1,w,c
 10021  00F170  B4D8               	btfsc	status,2,c
 10022  00F172  D005               	goto	l4616
 10023                           
 10024                           ; BSR set to: 0
 10025                           ;doprnt.c: 1150: width--;
 10026  00F174  0100               	movlb	0	; () banked
 10027  00F176  0783               	decf	sprintf@width& (0+255),f,b
 10028  00F178  A0D8               	btfss	status,0,c
 10029  00F17A  0784               	decf	(sprintf@width+1)& (0+255),f,b
 10030  00F17C  D000               	goto	l4616
 10031  00F17E                     l4616:
 10032                           
 10033                           ; BSR set to: 0
 10034                           ;doprnt.c: 1153: if(flag & 0x04) {
 10035  00F17E  0100               	movlb	0	; () banked
 10036  00F180  A586               	btfss	sprintf@flag& (0+255),2,b
 10037  00F182  D048               	goto	l522
 10038                           
 10039                           ; BSR set to: 0
 10040                           ;doprnt.c: 1157: if(flag & 0x03)
 10041  00F184  0E03               	movlw	3
 10042  00F186  0100               	movlb	0	; () banked
 10043  00F188  1586               	andwf	sprintf@flag& (0+255),w,b
 10044  00F18A  6E4A               	movwf	??_sprintf& (0+255),c
 10045  00F18C  0E00               	movlw	0
 10046  00F18E  0100               	movlb	0	; () banked
 10047  00F190  1587               	andwf	(sprintf@flag+1)& (0+255),w,b
 10048  00F192  6E4B               	movwf	(??_sprintf+1)& (0+255),c
 10049  00F194  504A               	movf	??_sprintf,w,c
 10050  00F196  104B               	iorwf	??_sprintf+1,w,c
 10051  00F198  B4D8               	btfsc	status,2,c
 10052  00F19A  D017               	goto	l4630
 10053                           
 10054                           ; BSR set to: 0
 10055                           ;doprnt.c: 1159: ((*sp++ = (flag & 0x01 ? '-' : '+')));
 10056  00F19C  0100               	movlb	0	; () banked
 10057  00F19E  B186               	btfsc	sprintf@flag& (0+255),0,b
 10058  00F1A0  D005               	goto	l4624
 10059                           
 10060                           ; BSR set to: 0
 10061  00F1A2  0E00               	movlw	0
 10062  00F1A4  0100               	movlb	0	; () banked
 10063  00F1A6  6F64               	movwf	(_sprintf$1263+1)& (0+255),b
 10064  00F1A8  0E2B               	movlw	43
 10065  00F1AA  D004               	goto	L12
 10066  00F1AC                     l4624:
 10067                           
 10068                           ; BSR set to: 0
 10069  00F1AC  0E00               	movlw	0
 10070  00F1AE  0100               	movlb	0	; () banked
 10071  00F1B0  6F64               	movwf	(_sprintf$1263+1)& (0+255),b
 10072  00F1B2  0E2D               	movlw	45
 10073  00F1B4                     L12:
 10074  00F1B4  6F63               	movwf	_sprintf$1263& (0+255),b
 10075  00F1B6  D000               	goto	l4626
 10076  00F1B8                     l4626:
 10077                           
 10078                           ; BSR set to: 0
 10079  00F1B8  C040  FFD9         	movff	sprintf@sp,fsr2l
 10080  00F1BC  C041  FFDA         	movff	sprintf@sp+1,fsr2h
 10081  00F1C0  C063  FFDF         	movff	_sprintf$1263,indf2
 10082                           
 10083                           ; BSR set to: 0
 10084  00F1C4  4A40               	infsnz	sprintf@sp,f,c
 10085  00F1C6  2A41               	incf	sprintf@sp+1,f,c
 10086  00F1C8  D000               	goto	l4630
 10087  00F1CA                     l4630:
 10088                           
 10089                           ; BSR set to: 0
 10090                           ;doprnt.c: 1164: if(flag & 0x01)
 10091  00F1CA  0100               	movlb	0	; () banked
 10092  00F1CC  A186               	btfss	sprintf@flag& (0+255),0,b
 10093  00F1CE  D016               	goto	l4642
 10094                           
 10095                           ; BSR set to: 0
 10096                           ;doprnt.c: 1165: ((*sp++ = (' ')));
 10097  00F1D0  C040  FFD9         	movff	sprintf@sp,fsr2l
 10098  00F1D4  C041  FFDA         	movff	sprintf@sp+1,fsr2h
 10099  00F1D8  0E20               	movlw	32
 10100  00F1DA  6EDF               	movwf	indf2,c
 10101                           
 10102                           ; BSR set to: 0
 10103  00F1DC  4A40               	infsnz	sprintf@sp,f,c
 10104  00F1DE  2A41               	incf	sprintf@sp+1,f,c
 10105                           
 10106                           ; BSR set to: 0
 10107                           ;doprnt.c: 1168: while(width > 0) {
 10108  00F1E0  D00D               	goto	l4642
 10109  00F1E2                     l4636:
 10110                           
 10111                           ; BSR set to: 0
 10112                           ;doprnt.c: 1169: ((*sp++ = ('0')));
 10113  00F1E2  C040  FFD9         	movff	sprintf@sp,fsr2l
 10114  00F1E6  C041  FFDA         	movff	sprintf@sp+1,fsr2h
 10115  00F1EA  0E30               	movlw	48
 10116  00F1EC  6EDF               	movwf	indf2,c
 10117                           
 10118                           ; BSR set to: 0
 10119  00F1EE  4A40               	infsnz	sprintf@sp,f,c
 10120  00F1F0  2A41               	incf	sprintf@sp+1,f,c
 10121                           
 10122                           ; BSR set to: 0
 10123                           ;doprnt.c: 1170: width--;
 10124  00F1F2  0100               	movlb	0	; () banked
 10125  00F1F4  0783               	decf	sprintf@width& (0+255),f,b
 10126  00F1F6  A0D8               	btfss	status,0,c
 10127  00F1F8  0784               	decf	(sprintf@width+1)& (0+255),f,b
 10128  00F1FA  D000               	goto	l4642
 10129  00F1FC                     l4642:
 10130                           
 10131                           ; BSR set to: 0
 10132  00F1FC  0100               	movlb	0	; () banked
 10133  00F1FE  BF84               	btfsc	(sprintf@width+1)& (0+255),7,b
 10134  00F200  D09E               	goto	l4678
 10135  00F202  0100               	movlb	0	; () banked
 10136  00F204  5184               	movf	(sprintf@width+1)& (0+255),w,b
 10137  00F206  E1ED               	bnz	l4636
 10138  00F208  0100               	movlb	0	; () banked
 10139  00F20A  0583               	decf	sprintf@width& (0+255),w,b
 10140  00F20C  A0D8               	btfss	status,0,c
 10141  00F20E  D097               	goto	l4678
 10142  00F210  D7E8               	goto	l4636
 10143                           
 10144                           ; BSR set to: 0
 10145                           ;doprnt.c: 1171: }
 10146                           ;doprnt.c: 1173: } else
 10147  00F212  D095               	goto	l4678
 10148  00F214                     l522:
 10149                           
 10150                           ; BSR set to: 0
 10151                           ;doprnt.c: 1175: {
 10152                           ;doprnt.c: 1177: if(!(flag & 0x08))
 10153  00F214  0100               	movlb	0	; () banked
 10154  00F216  A786               	btfss	sprintf@flag& (0+255),3,b
 10155  00F218  D00F               	goto	l4652
 10156  00F21A  D01A               	goto	l4654
 10157                           
 10158                           ; BSR set to: 0
 10159                           ;doprnt.c: 1180: while(width > 0) {
 10160  00F21C  D00D               	goto	l4652
 10161  00F21E                     l4646:
 10162                           
 10163                           ; BSR set to: 0
 10164                           ;doprnt.c: 1181: ((*sp++ = (' ')));
 10165  00F21E  C040  FFD9         	movff	sprintf@sp,fsr2l
 10166  00F222  C041  FFDA         	movff	sprintf@sp+1,fsr2h
 10167  00F226  0E20               	movlw	32
 10168  00F228  6EDF               	movwf	indf2,c
 10169                           
 10170                           ; BSR set to: 0
 10171  00F22A  4A40               	infsnz	sprintf@sp,f,c
 10172  00F22C  2A41               	incf	sprintf@sp+1,f,c
 10173                           
 10174                           ; BSR set to: 0
 10175                           ;doprnt.c: 1182: width--;
 10176  00F22E  0100               	movlb	0	; () banked
 10177  00F230  0783               	decf	sprintf@width& (0+255),f,b
 10178  00F232  A0D8               	btfss	status,0,c
 10179  00F234  0784               	decf	(sprintf@width+1)& (0+255),f,b
 10180  00F236  D000               	goto	l4652
 10181  00F238                     l4652:
 10182                           
 10183                           ; BSR set to: 0
 10184  00F238  0100               	movlb	0	; () banked
 10185  00F23A  BF84               	btfsc	(sprintf@width+1)& (0+255),7,b
 10186  00F23C  D009               	goto	l4654
 10187  00F23E  0100               	movlb	0	; () banked
 10188  00F240  5184               	movf	(sprintf@width+1)& (0+255),w,b
 10189  00F242  E1ED               	bnz	l4646
 10190  00F244  0100               	movlb	0	; () banked
 10191  00F246  0583               	decf	sprintf@width& (0+255),w,b
 10192  00F248  A0D8               	btfss	status,0,c
 10193  00F24A  D002               	goto	l4654
 10194  00F24C  D7E8               	goto	l4646
 10195                           
 10196                           ; BSR set to: 0
 10197  00F24E  D000               	goto	l4654
 10198  00F250                     l4654:
 10199                           
 10200                           ; BSR set to: 0
 10201                           ;doprnt.c: 1183: }
 10202                           ;doprnt.c: 1188: if(flag & 0x03)
 10203  00F250  0E03               	movlw	3
 10204  00F252  0100               	movlb	0	; () banked
 10205  00F254  1586               	andwf	sprintf@flag& (0+255),w,b
 10206  00F256  6E4A               	movwf	??_sprintf& (0+255),c
 10207  00F258  0E00               	movlw	0
 10208  00F25A  0100               	movlb	0	; () banked
 10209  00F25C  1587               	andwf	(sprintf@flag+1)& (0+255),w,b
 10210  00F25E  6E4B               	movwf	(??_sprintf+1)& (0+255),c
 10211  00F260  504A               	movf	??_sprintf,w,c
 10212  00F262  104B               	iorwf	??_sprintf+1,w,c
 10213  00F264  B4D8               	btfsc	status,2,c
 10214  00F266  D015               	goto	l537
 10215                           
 10216                           ; BSR set to: 0
 10217                           ;doprnt.c: 1190: ((*sp++ = (flag & 0x01 ? '-' : '+')));
 10218  00F268  0100               	movlb	0	; () banked
 10219  00F26A  B186               	btfsc	sprintf@flag& (0+255),0,b
 10220  00F26C  D005               	goto	l4660
 10221                           
 10222                           ; BSR set to: 0
 10223  00F26E  0E00               	movlw	0
 10224  00F270  0100               	movlb	0	; () banked
 10225  00F272  6F66               	movwf	(_sprintf$1264+1)& (0+255),b
 10226  00F274  0E2B               	movlw	43
 10227  00F276  D004               	goto	L13
 10228  00F278                     l4660:
 10229                           
 10230                           ; BSR set to: 0
 10231  00F278  0E00               	movlw	0
 10232  00F27A  0100               	movlb	0	; () banked
 10233  00F27C  6F66               	movwf	(_sprintf$1264+1)& (0+255),b
 10234  00F27E  0E2D               	movlw	45
 10235  00F280                     L13:
 10236  00F280  6F65               	movwf	_sprintf$1264& (0+255),b
 10237  00F282  D000               	goto	l4662
 10238  00F284                     l4662:
 10239                           
 10240                           ; BSR set to: 0
 10241  00F284  C040  FFD9         	movff	sprintf@sp,fsr2l
 10242  00F288  C041  FFDA         	movff	sprintf@sp+1,fsr2h
 10243  00F28C  C065  FFDF         	movff	_sprintf$1264,indf2
 10244  00F290  D009               	goto	l4668
 10245  00F292                     l537:
 10246                           
 10247                           ; BSR set to: 0
 10248                           ;doprnt.c: 1192: else if(flag & 0x01)
 10249  00F292  0100               	movlb	0	; () banked
 10250  00F294  A186               	btfss	sprintf@flag& (0+255),0,b
 10251  00F296  D053               	goto	l4678
 10252                           
 10253                           ; BSR set to: 0
 10254                           ;doprnt.c: 1193: ((*sp++ = (' ')));
 10255  00F298  C040  FFD9         	movff	sprintf@sp,fsr2l
 10256  00F29C  C041  FFDA         	movff	sprintf@sp+1,fsr2h
 10257  00F2A0  0E20               	movlw	32
 10258  00F2A2  D04B               	goto	L14
 10259  00F2A4                     l4668:
 10260                           
 10261                           ; BSR set to: 0
 10262  00F2A4  4A40               	infsnz	sprintf@sp,f,c
 10263  00F2A6  2A41               	incf	sprintf@sp+1,f,c
 10264                           
 10265                           ; BSR set to: 0
 10266                           ;doprnt.c: 1195: }
 10267                           ;doprnt.c: 1196: while(c--) {
 10268                           
 10269                           ; BSR set to: 0
 10270                           
 10271                           ; BSR set to: 0
 10272  00F2A8  D04A               	goto	l4678
 10273  00F2AA                     l4670:
 10274                           
 10275                           ; BSR set to: 0
 10276                           ;doprnt.c: 1200: {
 10277                           ;doprnt.c: 1201: tmpval.vd = val/dpowers[c];
 10278  00F2AA  C07D  F001         	movff	sprintf@val,___lldiv@dividend
 10279  00F2AE  C07E  F002         	movff	sprintf@val+1,___lldiv@dividend+1
 10280  00F2B2  C07F  F003         	movff	sprintf@val+2,___lldiv@dividend+2
 10281  00F2B6  C080  F004         	movff	sprintf@val+3,___lldiv@dividend+3
 10282  00F2BA  0100               	movlb	0	; () banked
 10283  00F2BC  5185               	movf	sprintf@c& (0+255),w,b
 10284  00F2BE  0D04               	mullw	4
 10285  00F2C0  0E2F               	movlw	low _dpowers
 10286  00F2C2  24F3               	addwf	prodl,w,c
 10287  00F2C4  6EF6               	movwf	tblptrl,c
 10288  00F2C6  0EFD               	movlw	high _dpowers
 10289  00F2C8  20F4               	addwfc	prodh,w,c
 10290  00F2CA  6EF7               	movwf	tblptrh,c
 10291  00F2CC                     	if	0	;There are less than 3 active tblptr bytes
 10292  00F2CC                     	endif
 10293  00F2CC  0009               	tblrd		*+
 10294  00F2CE  CFF5 F005          	movff	tablat,___lldiv@divisor
 10295  00F2D2  0009               	tblrd		*+
 10296  00F2D4  CFF5 F006          	movff	tablat,___lldiv@divisor+1
 10297  00F2D8  0009               	tblrd		*+
 10298  00F2DA  CFF5 F007          	movff	tablat,___lldiv@divisor+2
 10299  00F2DE  000A               	tblrd		*-
 10300  00F2E0  CFF5 F008          	movff	tablat,___lldiv@divisor+3
 10301  00F2E4  ECBC  F05C         	call	___lldiv	;wreg free
 10302  00F2E8  C001  F074         	movff	?___lldiv,sprintf@tmpval
 10303  00F2EC  C002  F075         	movff	?___lldiv+1,sprintf@tmpval+1
 10304  00F2F0  C003  F076         	movff	?___lldiv+2,sprintf@tmpval+2
 10305  00F2F4  C004  F077         	movff	?___lldiv+3,sprintf@tmpval+3
 10306                           
 10307                           ;doprnt.c: 1202: tmpval.vd %= 10;
 10308  00F2F8  C074  F00E         	movff	sprintf@tmpval,___llmod@dividend
 10309  00F2FC  C075  F00F         	movff	sprintf@tmpval+1,___llmod@dividend+1
 10310  00F300  C076  F010         	movff	sprintf@tmpval+2,___llmod@dividend+2
 10311  00F304  C077  F011         	movff	sprintf@tmpval+3,___llmod@dividend+3
 10312  00F308  0E0A               	movlw	10
 10313  00F30A  6E12               	movwf	___llmod@divisor,c
 10314  00F30C  0E00               	movlw	0
 10315  00F30E  6E13               	movwf	___llmod@divisor+1,c
 10316  00F310  0E00               	movlw	0
 10317  00F312  6E14               	movwf	___llmod@divisor+2,c
 10318  00F314  0E00               	movlw	0
 10319  00F316  6E15               	movwf	___llmod@divisor+3,c
 10320  00F318  ECC6  F05B         	call	___llmod	;wreg free
 10321  00F31C  C00E  F074         	movff	?___llmod,sprintf@tmpval
 10322  00F320  C00F  F075         	movff	?___llmod+1,sprintf@tmpval+1
 10323  00F324  C010  F076         	movff	?___llmod+2,sprintf@tmpval+2
 10324  00F328  C011  F077         	movff	?___llmod+3,sprintf@tmpval+3
 10325                           
 10326                           ;doprnt.c: 1203: ((*sp++ = ('0' + tmpval.vd)));
 10327  00F32C  0100               	movlb	0	; () banked
 10328  00F32E  5174               	movf	sprintf@tmpval& (0+255),w,b
 10329  00F330  0F30               	addlw	48
 10330  00F332  C040  FFD9         	movff	sprintf@sp,fsr2l
 10331  00F336  C041  FFDA         	movff	sprintf@sp+1,fsr2h
 10332  00F33A                     L14:
 10333  00F33A  6EDF               	movwf	indf2,c
 10334  00F33C  D7B3               	goto	l4668
 10335  00F33E                     l4678:
 10336                           
 10337                           ; BSR set to: 0
 10338  00F33E  0100               	movlb	0	; () banked
 10339  00F340  0785               	decf	sprintf@c& (0+255),f,b
 10340  00F342  0100               	movlb	0	; () banked
 10341  00F344  2985               	incf	sprintf@c& (0+255),w,b
 10342  00F346  B4D8               	btfsc	status,2,c
 10343  00F348  D00F               	goto	l4686
 10344  00F34A  D7AF               	goto	l4670
 10345                           
 10346                           ; BSR set to: 0
 10347                           ;doprnt.c: 1204: }
 10348                           ;doprnt.c: 1206: }
 10349                           ;doprnt.c: 1207: while(exp > 0) {
 10350  00F34C  D00D               	goto	l4686
 10351  00F34E                     l4680:
 10352                           
 10353                           ; BSR set to: 0
 10354                           ;doprnt.c: 1208: ((*sp++ = ('0')));
 10355  00F34E  C040  FFD9         	movff	sprintf@sp,fsr2l
 10356  00F352  C041  FFDA         	movff	sprintf@sp+1,fsr2h
 10357  00F356  0E30               	movlw	48
 10358  00F358  6EDF               	movwf	indf2,c
 10359                           
 10360                           ; BSR set to: 0
 10361  00F35A  4A40               	infsnz	sprintf@sp,f,c
 10362  00F35C  2A41               	incf	sprintf@sp+1,f,c
 10363                           
 10364                           ; BSR set to: 0
 10365                           ;doprnt.c: 1209: exp--;
 10366  00F35E  0100               	movlb	0	; () banked
 10367  00F360  0778               	decf	sprintf@exp& (0+255),f,b
 10368  00F362  A0D8               	btfss	status,0,c
 10369  00F364  0779               	decf	(sprintf@exp+1)& (0+255),f,b
 10370  00F366  D000               	goto	l4686
 10371  00F368                     l4686:
 10372                           
 10373                           ; BSR set to: 0
 10374  00F368  0100               	movlb	0	; () banked
 10375  00F36A  BF79               	btfsc	(sprintf@exp+1)& (0+255),7,b
 10376  00F36C  D007               	goto	l4688
 10377  00F36E  0100               	movlb	0	; () banked
 10378  00F370  5179               	movf	(sprintf@exp+1)& (0+255),w,b
 10379  00F372  E1ED               	bnz	l4680
 10380  00F374  0100               	movlb	0	; () banked
 10381  00F376  0578               	decf	sprintf@exp& (0+255),w,b
 10382  00F378  B0D8               	btfsc	status,0,c
 10383  00F37A  D7E9               	goto	l4680
 10384  00F37C                     l4688:
 10385                           
 10386                           ; BSR set to: 0
 10387                           ;doprnt.c: 1210: }
 10388                           ;doprnt.c: 1211: if(prec > (int)((sizeof dpowers/sizeof dpowers[0])-2))
 10389  00F37C  0100               	movlb	0	; () banked
 10390  00F37E  BF82               	btfsc	(sprintf@prec+1)& (0+255),7,b
 10391  00F380  D00C               	goto	l550
 10392  00F382  0100               	movlb	0	; () banked
 10393  00F384  5182               	movf	(sprintf@prec+1)& (0+255),w,b
 10394  00F386  E105               	bnz	u5410
 10395  00F388  0E09               	movlw	9
 10396  00F38A  0100               	movlb	0	; () banked
 10397  00F38C  5D81               	subwf	sprintf@prec& (0+255),w,b
 10398  00F38E  A0D8               	btfss	status,0,c
 10399  00F390  D004               	goto	l550
 10400  00F392                     u5410:
 10401                           
 10402                           ; BSR set to: 0
 10403                           ;doprnt.c: 1212: c = (sizeof dpowers/sizeof dpowers[0])-2;
 10404  00F392  0E08               	movlw	8
 10405  00F394  0100               	movlb	0	; () banked
 10406  00F396  6F85               	movwf	sprintf@c& (0+255),b
 10407  00F398  D003               	goto	l4692
 10408  00F39A                     l550:
 10409                           
 10410                           ; BSR set to: 0
 10411                           ;doprnt.c: 1213: else
 10412                           ;doprnt.c: 1214: c = prec;
 10413  00F39A  C081  F085         	movff	sprintf@prec,sprintf@c
 10414  00F39E  D000               	goto	l4692
 10415  00F3A0                     l4692:
 10416                           
 10417                           ; BSR set to: 0
 10418                           ;doprnt.c: 1215: prec -= c;
 10419  00F3A0  0100               	movlb	0	; () banked
 10420  00F3A2  5185               	movf	sprintf@c& (0+255),w,b
 10421  00F3A4  0100               	movlb	0	; () banked
 10422  00F3A6  5F81               	subwf	sprintf@prec& (0+255),f,b
 10423  00F3A8  0E00               	movlw	0
 10424  00F3AA  0100               	movlb	0	; () banked
 10425  00F3AC  BF85               	btfsc	sprintf@c& (0+255),7,b
 10426  00F3AE  0EFF               	movlw	255
 10427  00F3B0  0100               	movlb	0	; () banked
 10428  00F3B2  5B82               	subwfb	(sprintf@prec+1)& (0+255),f,b
 10429                           
 10430                           ; BSR set to: 0
 10431                           ;doprnt.c: 1217: if(c || flag & 0x800)
 10432  00F3B4  0100               	movlb	0	; () banked
 10433  00F3B6  5185               	movf	sprintf@c& (0+255),w,b
 10434  00F3B8  0100               	movlb	0	; () banked
 10435  00F3BA  A4D8               	btfss	status,2,c
 10436  00F3BC  D003               	goto	l4698
 10437                           
 10438                           ; BSR set to: 0
 10439  00F3BE  0100               	movlb	0	; () banked
 10440  00F3C0  A787               	btfss	(sprintf@flag+1)& (0+255),3,b
 10441  00F3C2  D009               	goto	l4702
 10442  00F3C4                     l4698:
 10443                           
 10444                           ; BSR set to: 0
 10445                           ;doprnt.c: 1221: ((*sp++ = ('.')));
 10446  00F3C4  C040  FFD9         	movff	sprintf@sp,fsr2l
 10447  00F3C8  C041  FFDA         	movff	sprintf@sp+1,fsr2h
 10448  00F3CC  0E2E               	movlw	46
 10449  00F3CE  6EDF               	movwf	indf2,c
 10450                           
 10451                           ; BSR set to: 0
 10452  00F3D0  4A40               	infsnz	sprintf@sp,f,c
 10453  00F3D2  2A41               	incf	sprintf@sp+1,f,c
 10454  00F3D4  D000               	goto	l4702
 10455  00F3D6                     l4702:
 10456                           
 10457                           ; BSR set to: 0
 10458                           ;doprnt.c: 1227: val = (long)(fval * scale(c));
 10459  00F3D6  0100               	movlb	0	; () banked
 10460  00F3D8  5185               	movf	sprintf@c& (0+255),w,b
 10461  00F3DA  EC2B  F06C         	call	_scale
 10462  00F3DE  C024  F060         	movff	?_scale,_sprintf$2476
 10463  00F3E2  C025  F061         	movff	?_scale+1,_sprintf$2476+1
 10464  00F3E6  C026  F062         	movff	?_scale+2,_sprintf$2476+2
 10465                           
 10466                           ;doprnt.c: 1227: val = (long)(fval * scale(c));
 10467  00F3EA  C07A  F018         	movff	sprintf@fval,___ftmul@f2
 10468  00F3EE  C07B  F019         	movff	sprintf@fval+1,___ftmul@f2+1
 10469  00F3F2  C07C  F01A         	movff	sprintf@fval+2,___ftmul@f2+2
 10470  00F3F6  C060  F015         	movff	_sprintf$2476,___ftmul@f1
 10471  00F3FA  C061  F016         	movff	_sprintf$2476+1,___ftmul@f1+1
 10472  00F3FE  C062  F017         	movff	_sprintf$2476+2,___ftmul@f1+2
 10473  00F402  ECFD  F05F         	call	___ftmul	;wreg free
 10474  00F406  C015  F02B         	movff	?___ftmul,___fttol@f1
 10475  00F40A  C016  F02C         	movff	?___ftmul+1,___fttol@f1+1
 10476  00F40E  C017  F02D         	movff	?___ftmul+2,___fttol@f1+2
 10477  00F412  EC7C  F05F         	call	___fttol	;wreg free
 10478  00F416  C02B  F07D         	movff	?___fttol,sprintf@val
 10479  00F41A  C02C  F07E         	movff	?___fttol+1,sprintf@val+1
 10480  00F41E  C02D  F07F         	movff	?___fttol+2,sprintf@val+2
 10481  00F422  C02E  F080         	movff	?___fttol+3,sprintf@val+3
 10482                           
 10483                           ;doprnt.c: 1228: while(c--) {
 10484  00F426  D073               	goto	l4716
 10485  00F428                     l4706:
 10486                           
 10487                           ;doprnt.c: 1229: tmpval.vd = val/dpowers[c];
 10488  00F428  C07D  F001         	movff	sprintf@val,___lldiv@dividend
 10489  00F42C  C07E  F002         	movff	sprintf@val+1,___lldiv@dividend+1
 10490  00F430  C07F  F003         	movff	sprintf@val+2,___lldiv@dividend+2
 10491  00F434  C080  F004         	movff	sprintf@val+3,___lldiv@dividend+3
 10492  00F438  0100               	movlb	0	; () banked
 10493  00F43A  5185               	movf	sprintf@c& (0+255),w,b
 10494  00F43C  0D04               	mullw	4
 10495  00F43E  0E2F               	movlw	low _dpowers
 10496  00F440  24F3               	addwf	prodl,w,c
 10497  00F442  6EF6               	movwf	tblptrl,c
 10498  00F444  0EFD               	movlw	high _dpowers
 10499  00F446  20F4               	addwfc	prodh,w,c
 10500  00F448  6EF7               	movwf	tblptrh,c
 10501  00F44A                     	if	0	;There are less than 3 active tblptr bytes
 10502  00F44A                     	endif
 10503  00F44A  0009               	tblrd		*+
 10504  00F44C  CFF5 F005          	movff	tablat,___lldiv@divisor
 10505  00F450  0009               	tblrd		*+
 10506  00F452  CFF5 F006          	movff	tablat,___lldiv@divisor+1
 10507  00F456  0009               	tblrd		*+
 10508  00F458  CFF5 F007          	movff	tablat,___lldiv@divisor+2
 10509  00F45C  000A               	tblrd		*-
 10510  00F45E  CFF5 F008          	movff	tablat,___lldiv@divisor+3
 10511  00F462  ECBC  F05C         	call	___lldiv	;wreg free
 10512  00F466  C001  F074         	movff	?___lldiv,sprintf@tmpval
 10513  00F46A  C002  F075         	movff	?___lldiv+1,sprintf@tmpval+1
 10514  00F46E  C003  F076         	movff	?___lldiv+2,sprintf@tmpval+2
 10515  00F472  C004  F077         	movff	?___lldiv+3,sprintf@tmpval+3
 10516                           
 10517                           ;doprnt.c: 1230: tmpval.vd %= 10;
 10518  00F476  C074  F00E         	movff	sprintf@tmpval,___llmod@dividend
 10519  00F47A  C075  F00F         	movff	sprintf@tmpval+1,___llmod@dividend+1
 10520  00F47E  C076  F010         	movff	sprintf@tmpval+2,___llmod@dividend+2
 10521  00F482  C077  F011         	movff	sprintf@tmpval+3,___llmod@dividend+3
 10522  00F486  0E0A               	movlw	10
 10523  00F488  6E12               	movwf	___llmod@divisor,c
 10524  00F48A  0E00               	movlw	0
 10525  00F48C  6E13               	movwf	___llmod@divisor+1,c
 10526  00F48E  0E00               	movlw	0
 10527  00F490  6E14               	movwf	___llmod@divisor+2,c
 10528  00F492  0E00               	movlw	0
 10529  00F494  6E15               	movwf	___llmod@divisor+3,c
 10530  00F496  ECC6  F05B         	call	___llmod	;wreg free
 10531  00F49A  C00E  F074         	movff	?___llmod,sprintf@tmpval
 10532  00F49E  C00F  F075         	movff	?___llmod+1,sprintf@tmpval+1
 10533  00F4A2  C010  F076         	movff	?___llmod+2,sprintf@tmpval+2
 10534  00F4A6  C011  F077         	movff	?___llmod+3,sprintf@tmpval+3
 10535                           
 10536                           ;doprnt.c: 1231: ((*sp++ = ('0' + tmpval.vd)));
 10537  00F4AA  0100               	movlb	0	; () banked
 10538  00F4AC  5174               	movf	sprintf@tmpval& (0+255),w,b
 10539  00F4AE  0F30               	addlw	48
 10540  00F4B0  C040  FFD9         	movff	sprintf@sp,fsr2l
 10541  00F4B4  C041  FFDA         	movff	sprintf@sp+1,fsr2h
 10542  00F4B8  6EDF               	movwf	indf2,c
 10543                           
 10544                           ; BSR set to: 0
 10545  00F4BA  4A40               	infsnz	sprintf@sp,f,c
 10546  00F4BC  2A41               	incf	sprintf@sp+1,f,c
 10547                           
 10548                           ; BSR set to: 0
 10549                           ;doprnt.c: 1232: val %= dpowers[c];
 10550  00F4BE  C07D  F00E         	movff	sprintf@val,___llmod@dividend
 10551  00F4C2  C07E  F00F         	movff	sprintf@val+1,___llmod@dividend+1
 10552  00F4C6  C07F  F010         	movff	sprintf@val+2,___llmod@dividend+2
 10553  00F4CA  C080  F011         	movff	sprintf@val+3,___llmod@dividend+3
 10554  00F4CE  0100               	movlb	0	; () banked
 10555  00F4D0  5185               	movf	sprintf@c& (0+255),w,b
 10556  00F4D2  0D04               	mullw	4
 10557  00F4D4  0E2F               	movlw	low _dpowers
 10558  00F4D6  24F3               	addwf	prodl,w,c
 10559  00F4D8  6EF6               	movwf	tblptrl,c
 10560  00F4DA  0EFD               	movlw	high _dpowers
 10561  00F4DC  20F4               	addwfc	prodh,w,c
 10562  00F4DE  6EF7               	movwf	tblptrh,c
 10563  00F4E0                     	if	0	;There are less than 3 active tblptr bytes
 10564  00F4E0                     	endif
 10565  00F4E0  0009               	tblrd		*+
 10566  00F4E2  CFF5 F012          	movff	tablat,___llmod@divisor
 10567  00F4E6  0009               	tblrd		*+
 10568  00F4E8  CFF5 F013          	movff	tablat,___llmod@divisor+1
 10569  00F4EC  0009               	tblrd		*+
 10570  00F4EE  CFF5 F014          	movff	tablat,___llmod@divisor+2
 10571  00F4F2  000A               	tblrd		*-
 10572  00F4F4  CFF5 F015          	movff	tablat,___llmod@divisor+3
 10573  00F4F8  ECC6  F05B         	call	___llmod	;wreg free
 10574  00F4FC  C00E  F07D         	movff	?___llmod,sprintf@val
 10575  00F500  C00F  F07E         	movff	?___llmod+1,sprintf@val+1
 10576  00F504  C010  F07F         	movff	?___llmod+2,sprintf@val+2
 10577  00F508  C011  F080         	movff	?___llmod+3,sprintf@val+3
 10578  00F50C  D000               	goto	l4716
 10579  00F50E                     l4716:
 10580  00F50E  0100               	movlb	0	; () banked
 10581  00F510  0785               	decf	sprintf@c& (0+255),f,b
 10582  00F512  0100               	movlb	0	; () banked
 10583  00F514  2985               	incf	sprintf@c& (0+255),w,b
 10584  00F516  B4D8               	btfsc	status,2,c
 10585  00F518  D00F               	goto	l4724
 10586  00F51A  D786               	goto	l4706
 10587                           
 10588                           ; BSR set to: 0
 10589                           ;doprnt.c: 1233: }
 10590                           ;doprnt.c: 1235: while(prec) {
 10591  00F51C  D00D               	goto	l4724
 10592  00F51E                     l4718:
 10593                           
 10594                           ; BSR set to: 0
 10595                           ;doprnt.c: 1236: ((*sp++ = ('0')));
 10596  00F51E  C040  FFD9         	movff	sprintf@sp,fsr2l
 10597  00F522  C041  FFDA         	movff	sprintf@sp+1,fsr2h
 10598  00F526  0E30               	movlw	48
 10599  00F528  6EDF               	movwf	indf2,c
 10600                           
 10601                           ; BSR set to: 0
 10602  00F52A  4A40               	infsnz	sprintf@sp,f,c
 10603  00F52C  2A41               	incf	sprintf@sp+1,f,c
 10604                           
 10605                           ; BSR set to: 0
 10606                           ;doprnt.c: 1237: prec--;
 10607  00F52E  0100               	movlb	0	; () banked
 10608  00F530  0781               	decf	sprintf@prec& (0+255),f,b
 10609  00F532  A0D8               	btfss	status,0,c
 10610  00F534  0782               	decf	(sprintf@prec+1)& (0+255),f,b
 10611  00F536  D000               	goto	l4724
 10612  00F538                     l4724:
 10613                           
 10614                           ; BSR set to: 0
 10615  00F538  0100               	movlb	0	; () banked
 10616  00F53A  5181               	movf	sprintf@prec& (0+255),w,b
 10617  00F53C  0100               	movlb	0	; () banked
 10618  00F53E  1182               	iorwf	(sprintf@prec+1)& (0+255),w,b
 10619  00F540  A4D8               	btfss	status,2,c
 10620  00F542  D7ED               	goto	l4718
 10621                           
 10622                           ; BSR set to: 0
 10623                           ;doprnt.c: 1238: }
 10624                           ;doprnt.c: 1240: if((flag & 0x08) && width > 0)
 10625  00F544  0100               	movlb	0	; () banked
 10626  00F546  A786               	btfss	sprintf@flag& (0+255),3,b
 10627  00F548  D3C2               	goto	l4954
 10628                           
 10629                           ; BSR set to: 0
 10630  00F54A  0100               	movlb	0	; () banked
 10631  00F54C  BF84               	btfsc	(sprintf@width+1)& (0+255),7,b
 10632  00F54E  D3BF               	goto	l4954
 10633  00F550  0100               	movlb	0	; () banked
 10634  00F552  5184               	movf	(sprintf@width+1)& (0+255),w,b
 10635  00F554  E106               	bnz	l4728
 10636  00F556  0100               	movlb	0	; () banked
 10637  00F558  0583               	decf	sprintf@width& (0+255),w,b
 10638  00F55A  B0D8               	btfsc	status,0,c
 10639  00F55C  D002               	goto	l4728
 10640  00F55E  D3B7               	goto	l4954
 10641  00F560  D000               	goto	l4728
 10642  00F562                     l4728:
 10643                           
 10644                           ; BSR set to: 0
 10645                           ;doprnt.c: 1242: ((*sp++ = (' ')));
 10646  00F562  C040  FFD9         	movff	sprintf@sp,fsr2l
 10647  00F566  C041  FFDA         	movff	sprintf@sp+1,fsr2h
 10648  00F56A  0E20               	movlw	32
 10649  00F56C  6EDF               	movwf	indf2,c
 10650                           
 10651                           ; BSR set to: 0
 10652  00F56E  4A40               	infsnz	sprintf@sp,f,c
 10653  00F570  2A41               	incf	sprintf@sp+1,f,c
 10654                           
 10655                           ; BSR set to: 0
 10656                           ;doprnt.c: 1243: while(--width);
 10657  00F572  0100               	movlb	0	; () banked
 10658  00F574  0783               	decf	sprintf@width& (0+255),f,b
 10659  00F576  A0D8               	btfss	status,0,c
 10660  00F578  0784               	decf	(sprintf@width+1)& (0+255),f,b
 10661  00F57A  0100               	movlb	0	; () banked
 10662  00F57C  5183               	movf	sprintf@width& (0+255),w,b
 10663  00F57E  0100               	movlb	0	; () banked
 10664  00F580  1184               	iorwf	(sprintf@width+1)& (0+255),w,b
 10665  00F582  B4D8               	btfsc	status,2,c
 10666  00F584  D3A4               	goto	l4954
 10667  00F586  D7ED               	goto	l4728
 10668                           
 10669                           ; BSR set to: 0
 10670                           ;doprnt.c: 1245: continue;
 10671                           
 10672                           ; BSR set to: 0
 10673  00F588  D3A2               	goto	l4954
 10674  00F58A                     l4734:
 10675                           
 10676                           ; BSR set to: 0
 10677                           ;doprnt.c: 1246: }
 10678                           ;doprnt.c: 1251: if((flag & (0xC0)) == 0x00)
 10679  00F58A  0EC0               	movlw	192
 10680  00F58C  0100               	movlb	0	; () banked
 10681  00F58E  1586               	andwf	sprintf@flag& (0+255),w,b
 10682  00F590  6E4A               	movwf	??_sprintf& (0+255),c
 10683  00F592  0E00               	movlw	0
 10684  00F594  0100               	movlb	0	; () banked
 10685  00F596  1587               	andwf	(sprintf@flag+1)& (0+255),w,b
 10686  00F598  6E4B               	movwf	(??_sprintf+1)& (0+255),c
 10687  00F59A  504A               	movf	??_sprintf,w,c
 10688  00F59C  104B               	iorwf	??_sprintf+1,w,c
 10689  00F59E  A4D8               	btfss	status,2,c
 10690  00F5A0  D023               	goto	l4746
 10691                           
 10692                           ; BSR set to: 0
 10693                           ;doprnt.c: 1253: {
 10694                           ;doprnt.c: 1259: val = (long)(*(int *)__va_arg((*(int **)ap), (int)0));
 10695  00F5A2  C072  FFD9         	movff	sprintf@ap,fsr2l
 10696  00F5A6  C073  FFDA         	movff	sprintf@ap+1,fsr2h
 10697  00F5AA  CFDE F07D          	movff	postinc2,sprintf@val
 10698  00F5AE  CFDD F07E          	movff	postdec2,sprintf@val+1
 10699  00F5B2  0100               	movlb	0	; () banked
 10700  00F5B4  0E00               	movlw	0
 10701  00F5B6  BF7E               	btfsc	(sprintf@val+1)& (0+255),7,b
 10702  00F5B8  0EFF               	movlw	-1
 10703  00F5BA  6F7F               	movwf	(sprintf@val+2)& (0+255),b
 10704  00F5BC  6F80               	movwf	(sprintf@val+3)& (0+255),b
 10705                           
 10706                           ; BSR set to: 0
 10707  00F5BE  0E02               	movlw	2
 10708  00F5C0  0100               	movlb	0	; () banked
 10709  00F5C2  2772               	addwf	sprintf@ap& (0+255),f,b
 10710  00F5C4  0E00               	movlw	0
 10711  00F5C6  2373               	addwfc	(sprintf@ap+1)& (0+255),f,b
 10712                           
 10713                           ; BSR set to: 0
 10714                           ;doprnt.c: 1261: if((long)val < 0) {
 10715  00F5C8  0100               	movlb	0	; () banked
 10716  00F5CA  AF80               	btfss	(sprintf@val+3)& (0+255),7,b
 10717  00F5CC  D022               	goto	l4750
 10718                           
 10719                           ; BSR set to: 0
 10720                           ;doprnt.c: 1262: flag |= 0x03;
 10721  00F5CE  0E03               	movlw	3
 10722  00F5D0  0100               	movlb	0	; () banked
 10723  00F5D2  1386               	iorwf	sprintf@flag& (0+255),f,b
 10724                           
 10725                           ; BSR set to: 0
 10726                           ;doprnt.c: 1263: val = -val;
 10727  00F5D4  0100               	movlb	0	; () banked
 10728  00F5D6  1F80               	comf	(sprintf@val+3)& (0+255),f,b
 10729  00F5D8  1F7F               	comf	(sprintf@val+2)& (0+255),f,b
 10730  00F5DA  1F7E               	comf	(sprintf@val+1)& (0+255),f,b
 10731  00F5DC  6D7D               	negf	sprintf@val& (0+255),b
 10732  00F5DE  0E00               	movlw	0
 10733  00F5E0  237E               	addwfc	(sprintf@val+1)& (0+255),f,b
 10734  00F5E2  237F               	addwfc	(sprintf@val+2)& (0+255),f,b
 10735  00F5E4  2380               	addwfc	(sprintf@val+3)& (0+255),f,b
 10736                           
 10737                           ; BSR set to: 0
 10738                           ;doprnt.c: 1264: }
 10739                           ;doprnt.c: 1266: }
 10740  00F5E6  D015               	goto	l4750
 10741  00F5E8                     l4746:
 10742                           
 10743                           ; BSR set to: 0
 10744                           ;doprnt.c: 1268: else
 10745                           ;doprnt.c: 1273: {
 10746                           ;doprnt.c: 1286: val = (*(unsigned *)__va_arg((*(unsigned **)ap), (unsigned)0));
 10747  00F5E8  C072  FFD9         	movff	sprintf@ap,fsr2l
 10748  00F5EC  C073  FFDA         	movff	sprintf@ap+1,fsr2h
 10749  00F5F0  CFDE F04A          	movff	postinc2,??_sprintf
 10750  00F5F4  CFDD F04B          	movff	postdec2,??_sprintf+1
 10751  00F5F8  C04A  F07D         	movff	??_sprintf,sprintf@val
 10752  00F5FC  C04B  F07E         	movff	??_sprintf+1,sprintf@val+1
 10753  00F600  0100               	movlb	0	; () banked
 10754  00F602  6B7F               	clrf	(sprintf@val+2)& (0+255),b
 10755  00F604  6B80               	clrf	(sprintf@val+3)& (0+255),b
 10756                           
 10757                           ; BSR set to: 0
 10758  00F606  0E02               	movlw	2
 10759  00F608  0100               	movlb	0	; () banked
 10760  00F60A  2772               	addwf	sprintf@ap& (0+255),f,b
 10761  00F60C  0E00               	movlw	0
 10762  00F60E  2373               	addwfc	(sprintf@ap+1)& (0+255),f,b
 10763  00F610  D000               	goto	l4750
 10764  00F612                     l4750:
 10765                           
 10766                           ; BSR set to: 0
 10767                           ;doprnt.c: 1287: }
 10768                           ;doprnt.c: 1290: if(prec == 0 && val == 0)
 10769  00F612  0100               	movlb	0	; () banked
 10770  00F614  5181               	movf	sprintf@prec& (0+255),w,b
 10771  00F616  0100               	movlb	0	; () banked
 10772  00F618  1182               	iorwf	(sprintf@prec+1)& (0+255),w,b
 10773  00F61A  A4D8               	btfss	status,2,c
 10774  00F61C  D090               	goto	l4800
 10775                           
 10776                           ; BSR set to: 0
 10777  00F61E  0100               	movlb	0	; () banked
 10778  00F620  517D               	movf	sprintf@val& (0+255),w,b
 10779  00F622  0100               	movlb	0	; () banked
 10780  00F624  117E               	iorwf	(sprintf@val+1)& (0+255),w,b
 10781  00F626  0100               	movlb	0	; () banked
 10782  00F628  117F               	iorwf	(sprintf@val+2)& (0+255),w,b
 10783  00F62A  0100               	movlb	0	; () banked
 10784  00F62C  1180               	iorwf	(sprintf@val+3)& (0+255),w,b
 10785  00F62E  A4D8               	btfss	status,2,c
 10786  00F630  D086               	goto	l4800
 10787                           
 10788                           ; BSR set to: 0
 10789                           ;doprnt.c: 1291: prec++;
 10790  00F632  0100               	movlb	0	; () banked
 10791  00F634  4B81               	infsnz	sprintf@prec& (0+255),f,b
 10792  00F636  2B82               	incf	(sprintf@prec+1)& (0+255),f,b
 10793                           
 10794                           ; BSR set to: 0
 10795                           ;doprnt.c: 1294: switch((unsigned char)(flag & (0xC0))) {
 10796  00F638  D082               	goto	l4800
 10797                           
 10798                           ; BSR set to: 0
 10799                           
 10800                           ;doprnt.c: 1299: case 0x00:
 10801  00F63A  D000               	goto	l4756
 10802  00F63C                     l4756:
 10803                           
 10804                           ; BSR set to: 0
 10805                           ;doprnt.c: 1302: case 0xC0:
 10806                           ;doprnt.c: 1305: for(c = 1 ; c != sizeof dpowers/sizeof dpowers[0] ; c++)
 10807  00F63C  0E01               	movlw	1
 10808  00F63E  0100               	movlb	0	; () banked
 10809  00F640  6F85               	movwf	sprintf@c& (0+255),b
 10810  00F642                     l4758:
 10811                           
 10812                           ; BSR set to: 0
 10813  00F642  0E0A               	movlw	10
 10814  00F644  0100               	movlb	0	; () banked
 10815  00F646  1985               	xorwf	sprintf@c& (0+255),w,b
 10816  00F648  B4D8               	btfsc	status,2,c
 10817  00F64A  D089               	goto	l4802
 10818  00F64C  D001               	goto	l4762
 10819                           
 10820                           ; BSR set to: 0
 10821  00F64E  D087               	goto	l4802
 10822  00F650                     l4762:
 10823                           
 10824                           ; BSR set to: 0
 10825                           ;doprnt.c: 1306: if(val < dpowers[c])
 10826  00F650  0100               	movlb	0	; () banked
 10827  00F652  5185               	movf	sprintf@c& (0+255),w,b
 10828  00F654  0D04               	mullw	4
 10829  00F656  0E2F               	movlw	low _dpowers
 10830  00F658  24F3               	addwf	prodl,w,c
 10831  00F65A  6EF6               	movwf	tblptrl,c
 10832  00F65C  0EFD               	movlw	high _dpowers
 10833  00F65E  20F4               	addwfc	prodh,w,c
 10834  00F660  6EF7               	movwf	tblptrh,c
 10835  00F662                     	if	0	;There are less than 3 active tblptr bytes
 10836  00F662                     	endif
 10837  00F662  0009               	tblrd		*+
 10838  00F664  50F5               	movf	tablat,w,c
 10839  00F666  0100               	movlb	0	; () banked
 10840  00F668  5D7D               	subwf	sprintf@val& (0+255),w,b
 10841  00F66A  0009               	tblrd		*+
 10842  00F66C  50F5               	movf	tablat,w,c
 10843  00F66E  0100               	movlb	0	; () banked
 10844  00F670  597E               	subwfb	(sprintf@val+1)& (0+255),w,b
 10845  00F672  0009               	tblrd		*+
 10846  00F674  50F5               	movf	tablat,w,c
 10847  00F676  0100               	movlb	0	; () banked
 10848  00F678  597F               	subwfb	(sprintf@val+2)& (0+255),w,b
 10849  00F67A  0009               	tblrd		*+
 10850  00F67C  50F5               	movf	tablat,w,c
 10851  00F67E  0100               	movlb	0	; () banked
 10852  00F680  5980               	subwfb	(sprintf@val+3)& (0+255),w,b
 10853  00F682  A0D8               	btfss	status,0,c
 10854  00F684  D06C               	goto	l4802
 10855  00F686  D001               	goto	l4766
 10856                           
 10857                           ; BSR set to: 0
 10858                           ;doprnt.c: 1307: break;
 10859  00F688  D06A               	goto	l4802
 10860  00F68A                     l4766:
 10861                           
 10862                           ; BSR set to: 0
 10863  00F68A  0100               	movlb	0	; () banked
 10864  00F68C  2B85               	incf	sprintf@c& (0+255),f,b
 10865  00F68E  D7D9               	goto	l4758
 10866                           
 10867                           ; BSR set to: 0
 10868                           ;doprnt.c: 1309: break;
 10869                           
 10870                           ; BSR set to: 0
 10871  00F690  D066               	goto	l4802
 10872  00F692                     l4770:
 10873                           
 10874                           ; BSR set to: 0
 10875                           ;doprnt.c: 1316: for(c = 1 ; c != sizeof hexpowers/sizeof hexpowers[0] ; c++)
 10876  00F692  0E01               	movlw	1
 10877  00F694  0100               	movlb	0	; () banked
 10878  00F696  6F85               	movwf	sprintf@c& (0+255),b
 10879  00F698                     l4772:
 10880                           
 10881                           ; BSR set to: 0
 10882  00F698  0E08               	movlw	8
 10883  00F69A  0100               	movlb	0	; () banked
 10884  00F69C  1985               	xorwf	sprintf@c& (0+255),w,b
 10885  00F69E  B4D8               	btfsc	status,2,c
 10886  00F6A0  D05E               	goto	l4802
 10887  00F6A2  D001               	goto	l4776
 10888                           
 10889                           ; BSR set to: 0
 10890  00F6A4  D05C               	goto	l4802
 10891  00F6A6                     l4776:
 10892                           
 10893                           ; BSR set to: 0
 10894                           ;doprnt.c: 1317: if(val < hexpowers[c])
 10895  00F6A6  0100               	movlb	0	; () banked
 10896  00F6A8  5185               	movf	sprintf@c& (0+255),w,b
 10897  00F6AA  0D04               	mullw	4
 10898  00F6AC  0EA5               	movlw	low _hexpowers
 10899  00F6AE  24F3               	addwf	prodl,w,c
 10900  00F6B0  6EF6               	movwf	tblptrl,c
 10901  00F6B2  0EFD               	movlw	high _hexpowers
 10902  00F6B4  20F4               	addwfc	prodh,w,c
 10903  00F6B6  6EF7               	movwf	tblptrh,c
 10904  00F6B8                     	if	0	;There are less than 3 active tblptr bytes
 10905  00F6B8                     	endif
 10906  00F6B8  0009               	tblrd		*+
 10907  00F6BA  50F5               	movf	tablat,w,c
 10908  00F6BC  0100               	movlb	0	; () banked
 10909  00F6BE  5D7D               	subwf	sprintf@val& (0+255),w,b
 10910  00F6C0  0009               	tblrd		*+
 10911  00F6C2  50F5               	movf	tablat,w,c
 10912  00F6C4  0100               	movlb	0	; () banked
 10913  00F6C6  597E               	subwfb	(sprintf@val+1)& (0+255),w,b
 10914  00F6C8  0009               	tblrd		*+
 10915  00F6CA  50F5               	movf	tablat,w,c
 10916  00F6CC  0100               	movlb	0	; () banked
 10917  00F6CE  597F               	subwfb	(sprintf@val+2)& (0+255),w,b
 10918  00F6D0  0009               	tblrd		*+
 10919  00F6D2  50F5               	movf	tablat,w,c
 10920  00F6D4  0100               	movlb	0	; () banked
 10921  00F6D6  5980               	subwfb	(sprintf@val+3)& (0+255),w,b
 10922  00F6D8  A0D8               	btfss	status,0,c
 10923  00F6DA  D041               	goto	l4802
 10924  00F6DC  D001               	goto	l4780
 10925                           
 10926                           ; BSR set to: 0
 10927                           ;doprnt.c: 1318: break;
 10928  00F6DE  D03F               	goto	l4802
 10929  00F6E0                     l4780:
 10930                           
 10931                           ; BSR set to: 0
 10932  00F6E0  0100               	movlb	0	; () banked
 10933  00F6E2  2B85               	incf	sprintf@c& (0+255),f,b
 10934  00F6E4  D7D9               	goto	l4772
 10935                           
 10936                           ; BSR set to: 0
 10937                           ;doprnt.c: 1320: break;
 10938                           
 10939                           ; BSR set to: 0
 10940  00F6E6  D03B               	goto	l4802
 10941  00F6E8                     l4784:
 10942                           
 10943                           ; BSR set to: 0
 10944                           ;doprnt.c: 1328: for(c = 1 ; c != sizeof octpowers/sizeof octpowers[0] ; c++)
 10945  00F6E8  0E01               	movlw	1
 10946  00F6EA  0100               	movlb	0	; () banked
 10947  00F6EC  6F85               	movwf	sprintf@c& (0+255),b
 10948  00F6EE                     l4786:
 10949                           
 10950                           ; BSR set to: 0
 10951  00F6EE  0E0C               	movlw	12
 10952  00F6F0  0100               	movlb	0	; () banked
 10953  00F6F2  1985               	xorwf	sprintf@c& (0+255),w,b
 10954  00F6F4  B4D8               	btfsc	status,2,c
 10955  00F6F6  D033               	goto	l4802
 10956  00F6F8  D001               	goto	l4790
 10957                           
 10958                           ; BSR set to: 0
 10959  00F6FA  D031               	goto	l4802
 10960  00F6FC                     l4790:
 10961                           
 10962                           ; BSR set to: 0
 10963                           ;doprnt.c: 1329: if(val < octpowers[c])
 10964  00F6FC  0100               	movlb	0	; () banked
 10965  00F6FE  5185               	movf	sprintf@c& (0+255),w,b
 10966  00F700  0D04               	mullw	4
 10967  00F702  0EFF               	movlw	low _octpowers
 10968  00F704  24F3               	addwf	prodl,w,c
 10969  00F706  6EF6               	movwf	tblptrl,c
 10970  00F708  0EFC               	movlw	high _octpowers
 10971  00F70A  20F4               	addwfc	prodh,w,c
 10972  00F70C  6EF7               	movwf	tblptrh,c
 10973  00F70E                     	if	0	;There are less than 3 active tblptr bytes
 10974  00F70E                     	endif
 10975  00F70E  0009               	tblrd		*+
 10976  00F710  50F5               	movf	tablat,w,c
 10977  00F712  0100               	movlb	0	; () banked
 10978  00F714  5D7D               	subwf	sprintf@val& (0+255),w,b
 10979  00F716  0009               	tblrd		*+
 10980  00F718  50F5               	movf	tablat,w,c
 10981  00F71A  0100               	movlb	0	; () banked
 10982  00F71C  597E               	subwfb	(sprintf@val+1)& (0+255),w,b
 10983  00F71E  0009               	tblrd		*+
 10984  00F720  50F5               	movf	tablat,w,c
 10985  00F722  0100               	movlb	0	; () banked
 10986  00F724  597F               	subwfb	(sprintf@val+2)& (0+255),w,b
 10987  00F726  0009               	tblrd		*+
 10988  00F728  50F5               	movf	tablat,w,c
 10989  00F72A  0100               	movlb	0	; () banked
 10990  00F72C  5980               	subwfb	(sprintf@val+3)& (0+255),w,b
 10991  00F72E  A0D8               	btfss	status,0,c
 10992  00F730  D016               	goto	l4802
 10993  00F732  D001               	goto	l4794
 10994                           
 10995                           ; BSR set to: 0
 10996                           ;doprnt.c: 1330: break;
 10997  00F734  D014               	goto	l4802
 10998  00F736                     l4794:
 10999                           
 11000                           ; BSR set to: 0
 11001  00F736  0100               	movlb	0	; () banked
 11002  00F738  2B85               	incf	sprintf@c& (0+255),f,b
 11003  00F73A  D7D9               	goto	l4786
 11004                           
 11005                           ; BSR set to: 0
 11006                           ;doprnt.c: 1336: }
 11007                           
 11008                           ; BSR set to: 0
 11009                           ;doprnt.c: 1332: break;
 11010                           
 11011                           ; BSR set to: 0
 11012  00F73C  D010               	goto	l4802
 11013  00F73E                     l4800:
 11014                           
 11015                           ; BSR set to: 0
 11016  00F73E  0100               	movlb	0	; () banked
 11017  00F740  5186               	movf	sprintf@flag& (0+255),w,b
 11018  00F742  0BC0               	andlw	192
 11019                           
 11020                           ; Switch size 1, requested type "space"
 11021                           ; Number of cases is 4, Range of values is 0 to 192
 11022                           ; switch strategies available:
 11023                           ; Name         Instructions Cycles
 11024                           ; simple_byte           13     7 (average)
 11025                           ;	Chosen strategy is simple_byte
 11026  00F744  0A00               	xorlw	0	; case 0
 11027  00F746  B4D8               	btfsc	status,2,c
 11028  00F748  D779               	goto	l4756
 11029  00F74A  0A40               	xorlw	64	; case 64
 11030  00F74C  B4D8               	btfsc	status,2,c
 11031  00F74E  D7CC               	goto	l4784
 11032  00F750  0AC0               	xorlw	192	; case 128
 11033  00F752  B4D8               	btfsc	status,2,c
 11034  00F754  D79E               	goto	l4770
 11035  00F756  0A40               	xorlw	64	; case 192
 11036  00F758  B4D8               	btfsc	status,2,c
 11037  00F75A  D770               	goto	l4756
 11038  00F75C  D000               	goto	l4802
 11039  00F75E                     l4802:
 11040                           
 11041                           ; BSR set to: 0
 11042                           ;doprnt.c: 1339: if(c < prec)
 11043  00F75E  0E80               	movlw	128
 11044  00F760  0100               	movlb	0	; () banked
 11045  00F762  BF85               	btfsc	sprintf@c& (0+255),7,b
 11046  00F764  0E7F               	movlw	127
 11047  00F766  6E4A               	movwf	??_sprintf& (0+255),c
 11048  00F768  0100               	movlb	0	; () banked
 11049  00F76A  5181               	movf	sprintf@prec& (0+255),w,b
 11050  00F76C  0100               	movlb	0	; () banked
 11051  00F76E  5D85               	subwf	sprintf@c& (0+255),w,b
 11052  00F770  0100               	movlb	0	; () banked
 11053  00F772  5182               	movf	(sprintf@prec+1)& (0+255),w,b
 11054  00F774  0A80               	xorlw	128
 11055  00F776  584A               	subwfb	??_sprintf& (0+255),w,c
 11056  00F778  B0D8               	btfsc	status,0,c
 11057  00F77A  D003               	goto	l4806
 11058                           
 11059                           ; BSR set to: 0
 11060                           ;doprnt.c: 1340: c = prec;
 11061  00F77C  C081  F085         	movff	sprintf@prec,sprintf@c
 11062  00F780  D017               	goto	l4810
 11063  00F782                     l4806:
 11064                           
 11065                           ; BSR set to: 0
 11066                           ;doprnt.c: 1341: else if(prec < c)
 11067  00F782  0100               	movlb	0	; () banked
 11068  00F784  5182               	movf	(sprintf@prec+1)& (0+255),w,b
 11069  00F786  0A80               	xorlw	128
 11070  00F788  6E4A               	movwf	??_sprintf& (0+255),c
 11071  00F78A  0100               	movlb	0	; () banked
 11072  00F78C  5185               	movf	sprintf@c& (0+255),w,b
 11073  00F78E  0100               	movlb	0	; () banked
 11074  00F790  5D81               	subwf	sprintf@prec& (0+255),w,b
 11075  00F792  0E80               	movlw	128
 11076  00F794  0100               	movlb	0	; () banked
 11077  00F796  BF85               	btfsc	sprintf@c& (0+255),7,b
 11078  00F798  0E7F               	movlw	127
 11079  00F79A  584A               	subwfb	??_sprintf& (0+255),w,c
 11080  00F79C  B0D8               	btfsc	status,0,c
 11081  00F79E  D008               	goto	l4810
 11082                           
 11083                           ; BSR set to: 0
 11084                           ;doprnt.c: 1342: prec = c;
 11085  00F7A0  0100               	movlb	0	; () banked
 11086  00F7A2  5185               	movf	sprintf@c& (0+255),w,b
 11087  00F7A4  0100               	movlb	0	; () banked
 11088  00F7A6  6F81               	movwf	sprintf@prec& (0+255),b
 11089  00F7A8  6B82               	clrf	(sprintf@prec+1)& (0+255),b
 11090  00F7AA  BF81               	btfsc	sprintf@prec& (0+255),7,b
 11091  00F7AC  0782               	decf	(sprintf@prec+1)& (0+255),f,b
 11092                           
 11093                           ; BSR set to: 0
 11094  00F7AE  D000               	goto	l4810
 11095  00F7B0                     l4810:
 11096                           
 11097                           ; BSR set to: 0
 11098                           ;doprnt.c: 1345: if(width && flag & 0x03)
 11099  00F7B0  0100               	movlb	0	; () banked
 11100  00F7B2  5183               	movf	sprintf@width& (0+255),w,b
 11101  00F7B4  0100               	movlb	0	; () banked
 11102  00F7B6  1184               	iorwf	(sprintf@width+1)& (0+255),w,b
 11103  00F7B8  B4D8               	btfsc	status,2,c
 11104  00F7BA  D011               	goto	l4816
 11105                           
 11106                           ; BSR set to: 0
 11107  00F7BC  0E03               	movlw	3
 11108  00F7BE  0100               	movlb	0	; () banked
 11109  00F7C0  1586               	andwf	sprintf@flag& (0+255),w,b
 11110  00F7C2  6E4A               	movwf	??_sprintf& (0+255),c
 11111  00F7C4  0E00               	movlw	0
 11112  00F7C6  0100               	movlb	0	; () banked
 11113  00F7C8  1587               	andwf	(sprintf@flag+1)& (0+255),w,b
 11114  00F7CA  6E4B               	movwf	(??_sprintf+1)& (0+255),c
 11115  00F7CC  504A               	movf	??_sprintf,w,c
 11116  00F7CE  104B               	iorwf	??_sprintf+1,w,c
 11117  00F7D0  B4D8               	btfsc	status,2,c
 11118  00F7D2  D005               	goto	l4816
 11119                           
 11120                           ; BSR set to: 0
 11121                           ;doprnt.c: 1346: width--;
 11122  00F7D4  0100               	movlb	0	; () banked
 11123  00F7D6  0783               	decf	sprintf@width& (0+255),f,b
 11124  00F7D8  A0D8               	btfss	status,0,c
 11125  00F7DA  0784               	decf	(sprintf@width+1)& (0+255),f,b
 11126  00F7DC  D000               	goto	l4816
 11127  00F7DE                     l4816:
 11128                           
 11129                           ; BSR set to: 0
 11130                           ;doprnt.c: 1348: if(flag & 0x4000) {
 11131  00F7DE  0100               	movlb	0	; () banked
 11132  00F7E0  AD87               	btfss	(sprintf@flag+1)& (0+255),6,b
 11133  00F7E2  D01D               	goto	l4824
 11134                           
 11135                           ; BSR set to: 0
 11136                           ;doprnt.c: 1349: if(width > prec)
 11137  00F7E4  0100               	movlb	0	; () banked
 11138  00F7E6  5183               	movf	sprintf@width& (0+255),w,b
 11139  00F7E8  0100               	movlb	0	; () banked
 11140  00F7EA  5D81               	subwf	sprintf@prec& (0+255),w,b
 11141  00F7EC  0100               	movlb	0	; () banked
 11142  00F7EE  5182               	movf	(sprintf@prec+1)& (0+255),w,b
 11143  00F7F0  0A80               	xorlw	128
 11144  00F7F2  6E4A               	movwf	??_sprintf& (0+255),c
 11145  00F7F4  0100               	movlb	0	; () banked
 11146  00F7F6  5184               	movf	(sprintf@width+1)& (0+255),w,b
 11147  00F7F8  0A80               	xorlw	128
 11148  00F7FA  584A               	subwfb	??_sprintf& (0+255),w,c
 11149  00F7FC  B0D8               	btfsc	status,0,c
 11150  00F7FE  D009               	goto	l4822
 11151                           
 11152                           ; BSR set to: 0
 11153                           ;doprnt.c: 1350: width -= prec;
 11154  00F800  0100               	movlb	0	; () banked
 11155  00F802  5181               	movf	sprintf@prec& (0+255),w,b
 11156  00F804  0100               	movlb	0	; () banked
 11157  00F806  5F83               	subwf	sprintf@width& (0+255),f,b
 11158  00F808  0100               	movlb	0	; () banked
 11159  00F80A  5182               	movf	(sprintf@prec+1)& (0+255),w,b
 11160  00F80C  0100               	movlb	0	; () banked
 11161  00F80E  5B84               	subwfb	(sprintf@width+1)& (0+255),f,b
 11162  00F810  D006               	goto	l4824
 11163  00F812                     l4822:
 11164                           
 11165                           ; BSR set to: 0
 11166                           ;doprnt.c: 1351: else
 11167                           ;doprnt.c: 1352: width = 0;
 11168  00F812  0E00               	movlw	0
 11169  00F814  0100               	movlb	0	; () banked
 11170  00F816  6F84               	movwf	(sprintf@width+1)& (0+255),b
 11171  00F818  0E00               	movlw	0
 11172  00F81A  6F83               	movwf	sprintf@width& (0+255),b
 11173                           
 11174                           ; BSR set to: 0
 11175  00F81C  D000               	goto	l4824
 11176  00F81E                     l4824:
 11177                           
 11178                           ; BSR set to: 0
 11179                           ;doprnt.c: 1353: }
 11180                           ;doprnt.c: 1357: if((flag & (
 11181                           ;doprnt.c: 1359: 0x04|
 11182                           ;doprnt.c: 1361: (0xC0)|0x800)) == (0x40|0x800)) {
 11183  00F81E  0EC4               	movlw	196
 11184  00F820  6E4A               	movwf	??_sprintf& (0+255),c
 11185  00F822  0E08               	movlw	8
 11186  00F824  6E4B               	movwf	(??_sprintf+1)& (0+255),c
 11187  00F826  C086  F04C         	movff	sprintf@flag,??_sprintf+2
 11188  00F82A  C087  F04D         	movff	sprintf@flag+1,??_sprintf+3
 11189  00F82E  504A               	movf	??_sprintf,w,c
 11190  00F830  164C               	andwf	??_sprintf+2,f,c
 11191  00F832  504B               	movf	??_sprintf+1,w,c
 11192  00F834  164D               	andwf	??_sprintf+3,f,c
 11193  00F836  0E40               	movlw	64
 11194  00F838  184C               	xorwf	??_sprintf+2,w,c
 11195  00F83A  E10F               	bnz	l4830
 11196  00F83C  0E08               	movlw	8
 11197  00F83E  184D               	xorwf	??_sprintf+3,w,c
 11198  00F840  A4D8               	btfss	status,2,c
 11199  00F842  D00B               	goto	l4830
 11200                           
 11201                           ; BSR set to: 0
 11202                           ;doprnt.c: 1362: if(width)
 11203  00F844  0100               	movlb	0	; () banked
 11204  00F846  5183               	movf	sprintf@width& (0+255),w,b
 11205  00F848  0100               	movlb	0	; () banked
 11206  00F84A  1184               	iorwf	(sprintf@width+1)& (0+255),w,b
 11207  00F84C  B4D8               	btfsc	status,2,c
 11208  00F84E  D02F               	goto	l4838
 11209                           
 11210                           ; BSR set to: 0
 11211                           ;doprnt.c: 1363: width--;
 11212  00F850  0100               	movlb	0	; () banked
 11213  00F852  0783               	decf	sprintf@width& (0+255),f,b
 11214  00F854  A0D8               	btfss	status,0,c
 11215  00F856  0784               	decf	(sprintf@width+1)& (0+255),f,b
 11216                           
 11217                           ; BSR set to: 0
 11218                           ;doprnt.c: 1364: } else
 11219  00F858  D02A               	goto	l4838
 11220  00F85A                     l4830:
 11221                           
 11222                           ; BSR set to: 0
 11223                           ;doprnt.c: 1368: if((flag & ((0xC0)|0x800)) == (0x80|0x800)) {
 11224  00F85A  0EC0               	movlw	192
 11225  00F85C  6E4A               	movwf	??_sprintf& (0+255),c
 11226  00F85E  0E08               	movlw	8
 11227  00F860  6E4B               	movwf	(??_sprintf+1)& (0+255),c
 11228  00F862  C086  F04C         	movff	sprintf@flag,??_sprintf+2
 11229  00F866  C087  F04D         	movff	sprintf@flag+1,??_sprintf+3
 11230  00F86A  504A               	movf	??_sprintf,w,c
 11231  00F86C  164C               	andwf	??_sprintf+2,f,c
 11232  00F86E  504B               	movf	??_sprintf+1,w,c
 11233  00F870  164D               	andwf	??_sprintf+3,f,c
 11234  00F872  0E80               	movlw	128
 11235  00F874  184C               	xorwf	??_sprintf+2,w,c
 11236  00F876  E11B               	bnz	l4838
 11237  00F878  0E08               	movlw	8
 11238  00F87A  184D               	xorwf	??_sprintf+3,w,c
 11239  00F87C  A4D8               	btfss	status,2,c
 11240  00F87E  D017               	goto	l4838
 11241                           
 11242                           ; BSR set to: 0
 11243                           ;doprnt.c: 1372: if(width > 2)
 11244  00F880  0100               	movlb	0	; () banked
 11245  00F882  BF84               	btfsc	(sprintf@width+1)& (0+255),7,b
 11246  00F884  D00E               	goto	l4836
 11247  00F886  0100               	movlb	0	; () banked
 11248  00F888  5184               	movf	(sprintf@width+1)& (0+255),w,b
 11249  00F88A  E105               	bnz	u5710
 11250  00F88C  0E03               	movlw	3
 11251  00F88E  0100               	movlb	0	; () banked
 11252  00F890  5D83               	subwf	sprintf@width& (0+255),w,b
 11253  00F892  A0D8               	btfss	status,0,c
 11254  00F894  D006               	goto	l4836
 11255  00F896                     u5710:
 11256                           
 11257                           ; BSR set to: 0
 11258                           ;doprnt.c: 1373: width -= 2;
 11259  00F896  0100               	movlb	0	; () banked
 11260  00F898  0EFE               	movlw	254
 11261  00F89A  2783               	addwf	sprintf@width& (0+255),f,b
 11262  00F89C  0EFF               	movlw	255
 11263  00F89E  2384               	addwfc	(sprintf@width+1)& (0+255),f,b
 11264  00F8A0  D006               	goto	l4838
 11265  00F8A2                     l4836:
 11266                           
 11267                           ; BSR set to: 0
 11268                           ;doprnt.c: 1374: else
 11269                           ;doprnt.c: 1375: width = 0;
 11270  00F8A2  0E00               	movlw	0
 11271  00F8A4  0100               	movlb	0	; () banked
 11272  00F8A6  6F84               	movwf	(sprintf@width+1)& (0+255),b
 11273  00F8A8  0E00               	movlw	0
 11274  00F8AA  6F83               	movwf	sprintf@width& (0+255),b
 11275                           
 11276                           ; BSR set to: 0
 11277                           
 11278                           ; BSR set to: 0
 11279  00F8AC  D000               	goto	l4838
 11280  00F8AE                     l4838:
 11281                           
 11282                           ; BSR set to: 0
 11283                           ;doprnt.c: 1376: }
 11284                           ;doprnt.c: 1381: if(width > c)
 11285  00F8AE  0E80               	movlw	128
 11286  00F8B0  0100               	movlb	0	; () banked
 11287  00F8B2  BF85               	btfsc	sprintf@c& (0+255),7,b
 11288  00F8B4  0E7F               	movlw	127
 11289  00F8B6  6E4A               	movwf	??_sprintf& (0+255),c
 11290  00F8B8  0100               	movlb	0	; () banked
 11291  00F8BA  5183               	movf	sprintf@width& (0+255),w,b
 11292  00F8BC  0100               	movlb	0	; () banked
 11293  00F8BE  5D85               	subwf	sprintf@c& (0+255),w,b
 11294  00F8C0  0100               	movlb	0	; () banked
 11295  00F8C2  5184               	movf	(sprintf@width+1)& (0+255),w,b
 11296  00F8C4  0A80               	xorlw	128
 11297  00F8C6  584A               	subwfb	??_sprintf& (0+255),w,c
 11298  00F8C8  B0D8               	btfsc	status,0,c
 11299  00F8CA  D00B               	goto	l4842
 11300                           
 11301                           ; BSR set to: 0
 11302                           ;doprnt.c: 1382: width -= c;
 11303  00F8CC  0100               	movlb	0	; () banked
 11304  00F8CE  5185               	movf	sprintf@c& (0+255),w,b
 11305  00F8D0  0100               	movlb	0	; () banked
 11306  00F8D2  5F83               	subwf	sprintf@width& (0+255),f,b
 11307  00F8D4  0E00               	movlw	0
 11308  00F8D6  0100               	movlb	0	; () banked
 11309  00F8D8  BF85               	btfsc	sprintf@c& (0+255),7,b
 11310  00F8DA  0EFF               	movlw	255
 11311  00F8DC  0100               	movlb	0	; () banked
 11312  00F8DE  5B84               	subwfb	(sprintf@width+1)& (0+255),f,b
 11313  00F8E0  D006               	goto	l4844
 11314  00F8E2                     l4842:
 11315                           
 11316                           ; BSR set to: 0
 11317                           ;doprnt.c: 1383: else
 11318                           ;doprnt.c: 1384: width = 0;
 11319  00F8E2  0E00               	movlw	0
 11320  00F8E4  0100               	movlb	0	; () banked
 11321  00F8E6  6F84               	movwf	(sprintf@width+1)& (0+255),b
 11322  00F8E8  0E00               	movlw	0
 11323  00F8EA  6F83               	movwf	sprintf@width& (0+255),b
 11324  00F8EC  D000               	goto	l4844
 11325  00F8EE                     l4844:
 11326                           
 11327                           ; BSR set to: 0
 11328                           ;doprnt.c: 1387: if(flag & 0x04) {
 11329  00F8EE  0100               	movlb	0	; () banked
 11330  00F8F0  A586               	btfss	sprintf@flag& (0+255),2,b
 11331  00F8F2  D06A               	goto	l4880
 11332                           
 11333                           ; BSR set to: 0
 11334                           ;doprnt.c: 1392: if(flag & 0x03)
 11335  00F8F4  0E03               	movlw	3
 11336  00F8F6  0100               	movlb	0	; () banked
 11337  00F8F8  1586               	andwf	sprintf@flag& (0+255),w,b
 11338  00F8FA  6E4A               	movwf	??_sprintf& (0+255),c
 11339  00F8FC  0E00               	movlw	0
 11340  00F8FE  0100               	movlb	0	; () banked
 11341  00F900  1587               	andwf	(sprintf@flag+1)& (0+255),w,b
 11342  00F902  6E4B               	movwf	(??_sprintf+1)& (0+255),c
 11343  00F904  504A               	movf	??_sprintf,w,c
 11344  00F906  104B               	iorwf	??_sprintf+1,w,c
 11345  00F908  B4D8               	btfsc	status,2,c
 11346  00F90A  D009               	goto	l599
 11347                           
 11348                           ; BSR set to: 0
 11349                           ;doprnt.c: 1393: ((*sp++ = ('-')));
 11350  00F90C  C040  FFD9         	movff	sprintf@sp,fsr2l
 11351  00F910  C041  FFDA         	movff	sprintf@sp+1,fsr2h
 11352  00F914  0E2D               	movlw	45
 11353  00F916  D00B               	goto	L15
 11354  00F918                     l4850:
 11355                           
 11356                           ; BSR set to: 0
 11357  00F918  4A40               	infsnz	sprintf@sp,f,c
 11358  00F91A  2A41               	incf	sprintf@sp+1,f,c
 11359  00F91C  D03B               	goto	l4872
 11360  00F91E                     l599:
 11361                           
 11362                           ; BSR set to: 0
 11363                           ;doprnt.c: 1396: else
 11364                           ;doprnt.c: 1399: if(flag & 0x01)
 11365  00F91E  0100               	movlb	0	; () banked
 11366  00F920  A186               	btfss	sprintf@flag& (0+255),0,b
 11367  00F922  D007               	goto	l4856
 11368                           
 11369                           ; BSR set to: 0
 11370                           ;doprnt.c: 1400: ((*sp++ = (' ')));
 11371  00F924  C040  FFD9         	movff	sprintf@sp,fsr2l
 11372  00F928  C041  FFDA         	movff	sprintf@sp+1,fsr2h
 11373  00F92C  0E20               	movlw	32
 11374  00F92E                     L15:
 11375  00F92E  6EDF               	movwf	indf2,c
 11376  00F930  D7F3               	goto	l4850
 11377  00F932                     l4856:
 11378                           
 11379                           ; BSR set to: 0
 11380                           ;doprnt.c: 1403: else if((flag & ((0xC0)|0x800)) == (0x80|0x800)) {
 11381  00F932  0EC0               	movlw	192
 11382  00F934  6E4A               	movwf	??_sprintf& (0+255),c
 11383  00F936  0E08               	movlw	8
 11384  00F938  6E4B               	movwf	(??_sprintf+1)& (0+255),c
 11385  00F93A  C086  F04C         	movff	sprintf@flag,??_sprintf+2
 11386  00F93E  C087  F04D         	movff	sprintf@flag+1,??_sprintf+3
 11387  00F942  504A               	movf	??_sprintf,w,c
 11388  00F944  164C               	andwf	??_sprintf+2,f,c
 11389  00F946  504B               	movf	??_sprintf+1,w,c
 11390  00F948  164D               	andwf	??_sprintf+3,f,c
 11391  00F94A  0E80               	movlw	128
 11392  00F94C  184C               	xorwf	??_sprintf+2,w,c
 11393  00F94E  E122               	bnz	l4872
 11394  00F950  0E08               	movlw	8
 11395  00F952  184D               	xorwf	??_sprintf+3,w,c
 11396  00F954  A4D8               	btfss	status,2,c
 11397  00F956  D01E               	goto	l4872
 11398                           
 11399                           ; BSR set to: 0
 11400                           ;doprnt.c: 1404: ((*sp++ = ('0')));
 11401  00F958  C040  FFD9         	movff	sprintf@sp,fsr2l
 11402  00F95C  C041  FFDA         	movff	sprintf@sp+1,fsr2h
 11403  00F960  0E30               	movlw	48
 11404  00F962  6EDF               	movwf	indf2,c
 11405                           
 11406                           ; BSR set to: 0
 11407  00F964  4A40               	infsnz	sprintf@sp,f,c
 11408  00F966  2A41               	incf	sprintf@sp+1,f,c
 11409                           
 11410                           ; BSR set to: 0
 11411                           ;doprnt.c: 1406: ((*sp++ = (flag & 0x20 ? 'X' : 'x')));
 11412  00F968  0100               	movlb	0	; () banked
 11413  00F96A  BB86               	btfsc	sprintf@flag& (0+255),5,b
 11414  00F96C  D005               	goto	l4866
 11415                           
 11416                           ; BSR set to: 0
 11417  00F96E  0E00               	movlw	0
 11418  00F970  0100               	movlb	0	; () banked
 11419  00F972  6F68               	movwf	(_sprintf$1265+1)& (0+255),b
 11420  00F974  0E78               	movlw	120
 11421  00F976  D004               	goto	L16
 11422  00F978                     l4866:
 11423                           
 11424                           ; BSR set to: 0
 11425  00F978  0E00               	movlw	0
 11426  00F97A  0100               	movlb	0	; () banked
 11427  00F97C  6F68               	movwf	(_sprintf$1265+1)& (0+255),b
 11428  00F97E  0E58               	movlw	88
 11429  00F980                     L16:
 11430  00F980  6F67               	movwf	_sprintf$1265& (0+255),b
 11431  00F982  D000               	goto	l4868
 11432  00F984                     l4868:
 11433                           
 11434                           ; BSR set to: 0
 11435  00F984  C040  FFD9         	movff	sprintf@sp,fsr2l
 11436  00F988  C041  FFDA         	movff	sprintf@sp+1,fsr2h
 11437  00F98C  C067  FFDF         	movff	_sprintf$1265,indf2
 11438  00F990  D7C3               	goto	l4850
 11439                           
 11440                           ; BSR set to: 0
 11441                           
 11442                           ; BSR set to: 0
 11443                           
 11444                           ; BSR set to: 0
 11445  00F992  D000               	goto	l4872
 11446  00F994                     l4872:
 11447                           
 11448                           ; BSR set to: 0
 11449                           ;doprnt.c: 1412: }
 11450                           ;doprnt.c: 1415: if(width)
 11451  00F994  0100               	movlb	0	; () banked
 11452  00F996  5183               	movf	sprintf@width& (0+255),w,b
 11453  00F998  0100               	movlb	0	; () banked
 11454  00F99A  1184               	iorwf	(sprintf@width+1)& (0+255),w,b
 11455  00F99C  B4D8               	btfsc	status,2,c
 11456  00F99E  D169               	goto	l4944
 11457  00F9A0                     l4874:
 11458                           
 11459                           ; BSR set to: 0
 11460                           ;doprnt.c: 1417: ((*sp++ = ('0')));
 11461  00F9A0  C040  FFD9         	movff	sprintf@sp,fsr2l
 11462  00F9A4  C041  FFDA         	movff	sprintf@sp+1,fsr2h
 11463  00F9A8  0E30               	movlw	48
 11464  00F9AA  6EDF               	movwf	indf2,c
 11465                           
 11466                           ; BSR set to: 0
 11467  00F9AC  4A40               	infsnz	sprintf@sp,f,c
 11468  00F9AE  2A41               	incf	sprintf@sp+1,f,c
 11469                           
 11470                           ; BSR set to: 0
 11471                           ;doprnt.c: 1418: while(--width);
 11472  00F9B0  0100               	movlb	0	; () banked
 11473  00F9B2  0783               	decf	sprintf@width& (0+255),f,b
 11474  00F9B4  A0D8               	btfss	status,0,c
 11475  00F9B6  0784               	decf	(sprintf@width+1)& (0+255),f,b
 11476  00F9B8  0100               	movlb	0	; () banked
 11477  00F9BA  5183               	movf	sprintf@width& (0+255),w,b
 11478  00F9BC  0100               	movlb	0	; () banked
 11479  00F9BE  1184               	iorwf	(sprintf@width+1)& (0+255),w,b
 11480  00F9C0  B4D8               	btfsc	status,2,c
 11481  00F9C2  D157               	goto	l4944
 11482  00F9C4  D7ED               	goto	l4874
 11483                           
 11484                           ; BSR set to: 0
 11485                           ;doprnt.c: 1420: } else
 11486                           
 11487                           ; BSR set to: 0
 11488  00F9C6  D155               	goto	l4944
 11489  00F9C8                     l4880:
 11490                           
 11491                           ; BSR set to: 0
 11492                           ;doprnt.c: 1422: {
 11493                           ;doprnt.c: 1424: if(width
 11494                           ;doprnt.c: 1426: && !(flag & 0x08)
 11495                           ;doprnt.c: 1428: )
 11496  00F9C8  0100               	movlb	0	; () banked
 11497  00F9CA  5183               	movf	sprintf@width& (0+255),w,b
 11498  00F9CC  0100               	movlb	0	; () banked
 11499  00F9CE  1184               	iorwf	(sprintf@width+1)& (0+255),w,b
 11500  00F9D0  B4D8               	btfsc	status,2,c
 11501  00F9D2  D017               	goto	l4890
 11502                           
 11503                           ; BSR set to: 0
 11504  00F9D4  0100               	movlb	0	; () banked
 11505  00F9D6  B786               	btfsc	sprintf@flag& (0+255),3,b
 11506  00F9D8  D014               	goto	l4890
 11507  00F9DA                     l4884:
 11508                           
 11509                           ; BSR set to: 0
 11510                           ;doprnt.c: 1430: ((*sp++ = (' ')));
 11511  00F9DA  C040  FFD9         	movff	sprintf@sp,fsr2l
 11512  00F9DE  C041  FFDA         	movff	sprintf@sp+1,fsr2h
 11513  00F9E2  0E20               	movlw	32
 11514  00F9E4  6EDF               	movwf	indf2,c
 11515                           
 11516                           ; BSR set to: 0
 11517  00F9E6  4A40               	infsnz	sprintf@sp,f,c
 11518  00F9E8  2A41               	incf	sprintf@sp+1,f,c
 11519                           
 11520                           ; BSR set to: 0
 11521                           ;doprnt.c: 1431: while(--width);
 11522  00F9EA  0100               	movlb	0	; () banked
 11523  00F9EC  0783               	decf	sprintf@width& (0+255),f,b
 11524  00F9EE  A0D8               	btfss	status,0,c
 11525  00F9F0  0784               	decf	(sprintf@width+1)& (0+255),f,b
 11526  00F9F2  0100               	movlb	0	; () banked
 11527  00F9F4  5183               	movf	sprintf@width& (0+255),w,b
 11528  00F9F6  0100               	movlb	0	; () banked
 11529  00F9F8  1184               	iorwf	(sprintf@width+1)& (0+255),w,b
 11530  00F9FA  B4D8               	btfsc	status,2,c
 11531  00F9FC  D002               	goto	l4890
 11532  00F9FE  D7ED               	goto	l4884
 11533                           
 11534                           ; BSR set to: 0
 11535  00FA00  D000               	goto	l4890
 11536  00FA02                     l4890:
 11537                           
 11538                           ; BSR set to: 0
 11539                           ;doprnt.c: 1438: if(flag & 0x03)
 11540  00FA02  0E03               	movlw	3
 11541  00FA04  0100               	movlb	0	; () banked
 11542  00FA06  1586               	andwf	sprintf@flag& (0+255),w,b
 11543  00FA08  6E4A               	movwf	??_sprintf& (0+255),c
 11544  00FA0A  0E00               	movlw	0
 11545  00FA0C  0100               	movlb	0	; () banked
 11546  00FA0E  1587               	andwf	(sprintf@flag+1)& (0+255),w,b
 11547  00FA10  6E4B               	movwf	(??_sprintf+1)& (0+255),c
 11548  00FA12  504A               	movf	??_sprintf,w,c
 11549  00FA14  104B               	iorwf	??_sprintf+1,w,c
 11550  00FA16  B4D8               	btfsc	status,2,c
 11551  00FA18  D009               	goto	l615
 11552                           
 11553                           ; BSR set to: 0
 11554                           ;doprnt.c: 1439: ((*sp++ = ('-')));
 11555  00FA1A  C040  FFD9         	movff	sprintf@sp,fsr2l
 11556  00FA1E  C041  FFDA         	movff	sprintf@sp+1,fsr2h
 11557  00FA22  0E2D               	movlw	45
 11558  00FA24  D00B               	goto	L17
 11559  00FA26                     l4894:
 11560                           
 11561                           ; BSR set to: 0
 11562  00FA26  4A40               	infsnz	sprintf@sp,f,c
 11563  00FA28  2A41               	incf	sprintf@sp+1,f,c
 11564  00FA2A  D00B               	goto	l4900
 11565  00FA2C                     l615:
 11566                           
 11567                           ; BSR set to: 0
 11568                           ;doprnt.c: 1443: else if(flag & 0x01)
 11569  00FA2C  0100               	movlb	0	; () banked
 11570  00FA2E  A186               	btfss	sprintf@flag& (0+255),0,b
 11571  00FA30  D008               	goto	l4900
 11572                           
 11573                           ; BSR set to: 0
 11574                           ;doprnt.c: 1444: ((*sp++ = (' ')));
 11575  00FA32  C040  FFD9         	movff	sprintf@sp,fsr2l
 11576  00FA36  C041  FFDA         	movff	sprintf@sp+1,fsr2h
 11577  00FA3A  0E20               	movlw	32
 11578  00FA3C                     L17:
 11579  00FA3C  6EDF               	movwf	indf2,c
 11580  00FA3E  D7F3               	goto	l4894
 11581                           
 11582                           ; BSR set to: 0
 11583                           
 11584                           ; BSR set to: 0
 11585  00FA40  D000               	goto	l4900
 11586  00FA42                     l4900:
 11587                           
 11588                           ; BSR set to: 0
 11589                           ;doprnt.c: 1448: if((flag & ((0xC0)|0x800)) == (0x40|0x800))
 11590  00FA42  0EC0               	movlw	192
 11591  00FA44  6E4A               	movwf	??_sprintf& (0+255),c
 11592  00FA46  0E08               	movlw	8
 11593  00FA48  6E4B               	movwf	(??_sprintf+1)& (0+255),c
 11594  00FA4A  C086  F04C         	movff	sprintf@flag,??_sprintf+2
 11595  00FA4E  C087  F04D         	movff	sprintf@flag+1,??_sprintf+3
 11596  00FA52  504A               	movf	??_sprintf,w,c
 11597  00FA54  164C               	andwf	??_sprintf+2,f,c
 11598  00FA56  504B               	movf	??_sprintf+1,w,c
 11599  00FA58  164D               	andwf	??_sprintf+3,f,c
 11600  00FA5A  0E40               	movlw	64
 11601  00FA5C  184C               	xorwf	??_sprintf+2,w,c
 11602  00FA5E  E10B               	bnz	l4906
 11603  00FA60  0E08               	movlw	8
 11604  00FA62  184D               	xorwf	??_sprintf+3,w,c
 11605  00FA64  A4D8               	btfss	status,2,c
 11606  00FA66  D007               	goto	l4906
 11607                           
 11608                           ; BSR set to: 0
 11609                           ;doprnt.c: 1449: ((*sp++ = ('0')));
 11610  00FA68  C040  FFD9         	movff	sprintf@sp,fsr2l
 11611  00FA6C  C041  FFDA         	movff	sprintf@sp+1,fsr2h
 11612  00FA70  0E30               	movlw	48
 11613  00FA72  6EDF               	movwf	indf2,c
 11614  00FA74  D0FB               	goto	l4942
 11615  00FA76                     l4906:
 11616                           
 11617                           ; BSR set to: 0
 11618                           ;doprnt.c: 1450: else
 11619                           ;doprnt.c: 1454: if((flag & ((0xC0)|0x800)) == (0x80|0x800)) {
 11620  00FA76  0EC0               	movlw	192
 11621  00FA78  6E4A               	movwf	??_sprintf& (0+255),c
 11622  00FA7A  0E08               	movlw	8
 11623  00FA7C  6E4B               	movwf	(??_sprintf+1)& (0+255),c
 11624  00FA7E  C086  F04C         	movff	sprintf@flag,??_sprintf+2
 11625  00FA82  C087  F04D         	movff	sprintf@flag+1,??_sprintf+3
 11626  00FA86  504A               	movf	??_sprintf,w,c
 11627  00FA88  164C               	andwf	??_sprintf+2,f,c
 11628  00FA8A  504B               	movf	??_sprintf+1,w,c
 11629  00FA8C  164D               	andwf	??_sprintf+3,f,c
 11630  00FA8E  0E80               	movlw	128
 11631  00FA90  184C               	xorwf	??_sprintf+2,w,c
 11632  00FA92  E103               	bnz	u5861
 11633  00FA94  0E08               	movlw	8
 11634  00FA96  184D               	xorwf	??_sprintf+3,w,c
 11635  00FA98  A4D8               	btfss	status,2,c
 11636  00FA9A                     u5861:
 11637  00FA9A  D0EB               	goto	l4944
 11638                           
 11639                           ; BSR set to: 0
 11640                           ;doprnt.c: 1458: ((*sp++ = ('0')));
 11641  00FA9C  C040  FFD9         	movff	sprintf@sp,fsr2l
 11642  00FAA0  C041  FFDA         	movff	sprintf@sp+1,fsr2h
 11643  00FAA4  0E30               	movlw	48
 11644  00FAA6  6EDF               	movwf	indf2,c
 11645                           
 11646                           ; BSR set to: 0
 11647  00FAA8  4A40               	infsnz	sprintf@sp,f,c
 11648  00FAAA  2A41               	incf	sprintf@sp+1,f,c
 11649                           
 11650                           ; BSR set to: 0
 11651                           ;doprnt.c: 1460: ((*sp++ = (flag & 0x20 ? 'X' : 'x')));
 11652  00FAAC  0100               	movlb	0	; () banked
 11653  00FAAE  BB86               	btfsc	sprintf@flag& (0+255),5,b
 11654  00FAB0  D005               	goto	l4916
 11655                           
 11656                           ; BSR set to: 0
 11657  00FAB2  0E00               	movlw	0
 11658  00FAB4  0100               	movlb	0	; () banked
 11659  00FAB6  6F6A               	movwf	(_sprintf$1266+1)& (0+255),b
 11660  00FAB8  0E78               	movlw	120
 11661  00FABA  D004               	goto	L18
 11662  00FABC                     l4916:
 11663                           
 11664                           ; BSR set to: 0
 11665  00FABC  0E00               	movlw	0
 11666  00FABE  0100               	movlb	0	; () banked
 11667  00FAC0  6F6A               	movwf	(_sprintf$1266+1)& (0+255),b
 11668  00FAC2  0E58               	movlw	88
 11669  00FAC4                     L18:
 11670  00FAC4  6F69               	movwf	_sprintf$1266& (0+255),b
 11671  00FAC6  D000               	goto	l4918
 11672  00FAC8                     l4918:
 11673                           
 11674                           ; BSR set to: 0
 11675  00FAC8  C040  FFD9         	movff	sprintf@sp,fsr2l
 11676  00FACC  C041  FFDA         	movff	sprintf@sp+1,fsr2h
 11677  00FAD0  C069  FFDF         	movff	_sprintf$1266,indf2
 11678  00FAD4  D0CB               	goto	l4942
 11679                           
 11680                           ; BSR set to: 0
 11681                           ;doprnt.c: 1466: }
 11682                           ;doprnt.c: 1469: }
 11683                           ;doprnt.c: 1474: while(prec--) {
 11684                           
 11685                           ; BSR set to: 0
 11686                           
 11687                           ; BSR set to: 0
 11688                           
 11689                           ; BSR set to: 0
 11690  00FAD6  D0CD               	goto	l4944
 11691                           
 11692                           ; BSR set to: 0
 11693                           ;doprnt.c: 1476: switch((unsigned char)(flag & (0xC0)))
 11694  00FAD8  D0B3               	goto	l4938
 11695                           
 11696                           ; BSR set to: 0
 11697                           
 11698                           ;doprnt.c: 1478: {
 11699                           ;doprnt.c: 1483: case 0x00:
 11700  00FADA  D000               	goto	l4922
 11701  00FADC                     l4922:
 11702                           
 11703                           ; BSR set to: 0
 11704                           ;doprnt.c: 1486: case 0xC0:
 11705                           ;doprnt.c: 1489: c = (val / dpowers[prec]) % 10 + '0';
 11706  00FADC  C081  F04A         	movff	sprintf@prec,??_sprintf
 11707  00FAE0  C082  F04B         	movff	sprintf@prec+1,??_sprintf+1
 11708  00FAE4  90D8               	bcf	status,0,c
 11709  00FAE6  364A               	rlcf	??_sprintf,f,c
 11710  00FAE8  364B               	rlcf	??_sprintf+1,f,c
 11711  00FAEA  90D8               	bcf	status,0,c
 11712  00FAEC  364A               	rlcf	??_sprintf,f,c
 11713  00FAEE  364B               	rlcf	??_sprintf+1,f,c
 11714  00FAF0  0E2F               	movlw	low _dpowers
 11715  00FAF2  244A               	addwf	??_sprintf,w,c
 11716  00FAF4  6EF6               	movwf	tblptrl,c
 11717  00FAF6  0EFD               	movlw	high _dpowers
 11718  00FAF8  204B               	addwfc	??_sprintf+1,w,c
 11719  00FAFA  6EF7               	movwf	tblptrh,c
 11720  00FAFC                     	if	0	;There are less than 3 active tblptr bytes
 11721  00FAFC                     	endif
 11722  00FAFC  0009               	tblrd		*+
 11723  00FAFE  CFF5 F005          	movff	tablat,___lldiv@divisor
 11724  00FB02  0009               	tblrd		*+
 11725  00FB04  CFF5 F006          	movff	tablat,___lldiv@divisor+1
 11726  00FB08  0009               	tblrd		*+
 11727  00FB0A  CFF5 F007          	movff	tablat,___lldiv@divisor+2
 11728  00FB0E  000A               	tblrd		*-
 11729  00FB10  CFF5 F008          	movff	tablat,___lldiv@divisor+3
 11730  00FB14  C07D  F001         	movff	sprintf@val,___lldiv@dividend
 11731  00FB18  C07E  F002         	movff	sprintf@val+1,___lldiv@dividend+1
 11732  00FB1C  C07F  F003         	movff	sprintf@val+2,___lldiv@dividend+2
 11733  00FB20  C080  F004         	movff	sprintf@val+3,___lldiv@dividend+3
 11734  00FB24  ECBC  F05C         	call	___lldiv	;wreg free
 11735  00FB28  C001  F00E         	movff	?___lldiv,___llmod@dividend
 11736  00FB2C  C002  F00F         	movff	?___lldiv+1,___llmod@dividend+1
 11737  00FB30  C003  F010         	movff	?___lldiv+2,___llmod@dividend+2
 11738  00FB34  C004  F011         	movff	?___lldiv+3,___llmod@dividend+3
 11739  00FB38  0E0A               	movlw	10
 11740  00FB3A  6E12               	movwf	___llmod@divisor,c
 11741  00FB3C  0E00               	movlw	0
 11742  00FB3E  6E13               	movwf	___llmod@divisor+1,c
 11743  00FB40  0E00               	movlw	0
 11744  00FB42  6E14               	movwf	___llmod@divisor+2,c
 11745  00FB44  0E00               	movlw	0
 11746  00FB46  6E15               	movwf	___llmod@divisor+3,c
 11747  00FB48  ECC6  F05B         	call	___llmod	;wreg free
 11748  00FB4C  500E               	movf	?___llmod,w,c
 11749  00FB4E  D074               	goto	L19
 11750  00FB50                     l4924:
 11751                           
 11752                           ; BSR set to: 0
 11753                           ;doprnt.c: 1499: {
 11754                           ;doprnt.c: 1500: unsigned char idx = (val / hexpowers[prec]) & 0xF;
 11755  00FB50  C07D  F001         	movff	sprintf@val,___lldiv@dividend
 11756  00FB54  C07E  F002         	movff	sprintf@val+1,___lldiv@dividend+1
 11757  00FB58  C07F  F003         	movff	sprintf@val+2,___lldiv@dividend+2
 11758  00FB5C  C080  F004         	movff	sprintf@val+3,___lldiv@dividend+3
 11759  00FB60  C081  F04A         	movff	sprintf@prec,??_sprintf
 11760  00FB64  C082  F04B         	movff	sprintf@prec+1,??_sprintf+1
 11761  00FB68  90D8               	bcf	status,0,c
 11762  00FB6A  364A               	rlcf	??_sprintf,f,c
 11763  00FB6C  364B               	rlcf	??_sprintf+1,f,c
 11764  00FB6E  90D8               	bcf	status,0,c
 11765  00FB70  364A               	rlcf	??_sprintf,f,c
 11766  00FB72  364B               	rlcf	??_sprintf+1,f,c
 11767  00FB74  0EA5               	movlw	low _hexpowers
 11768  00FB76  244A               	addwf	??_sprintf,w,c
 11769  00FB78  6EF6               	movwf	tblptrl,c
 11770  00FB7A  0EFD               	movlw	high _hexpowers
 11771  00FB7C  204B               	addwfc	??_sprintf+1,w,c
 11772  00FB7E  6EF7               	movwf	tblptrh,c
 11773  00FB80                     	if	0	;There are less than 3 active tblptr bytes
 11774  00FB80                     	endif
 11775  00FB80  0009               	tblrd		*+
 11776  00FB82  CFF5 F005          	movff	tablat,___lldiv@divisor
 11777  00FB86  0009               	tblrd		*+
 11778  00FB88  CFF5 F006          	movff	tablat,___lldiv@divisor+1
 11779  00FB8C  0009               	tblrd		*+
 11780  00FB8E  CFF5 F007          	movff	tablat,___lldiv@divisor+2
 11781  00FB92  000A               	tblrd		*-
 11782  00FB94  CFF5 F008          	movff	tablat,___lldiv@divisor+3
 11783  00FB98  ECBC  F05C         	call	___lldiv	;wreg free
 11784  00FB9C  5001               	movf	?___lldiv,w,c
 11785  00FB9E  0B0F               	andlw	15
 11786  00FBA0  0100               	movlb	0	; () banked
 11787  00FBA2  6F6D               	movwf	sprintf@idx& (0+255),b
 11788                           
 11789                           ; BSR set to: 0
 11790                           ;doprnt.c: 1502: c = (flag & 0x20 ? "0123456789ABCDEF" : "0123456789abcdef")[idx];
 11791  00FBA4  0100               	movlb	0	; () banked
 11792  00FBA6  BB86               	btfsc	sprintf@flag& (0+255),5,b
 11793  00FBA8  D005               	goto	l4930
 11794                           
 11795                           ; BSR set to: 0
 11796  00FBAA  0E81               	movlw	low STR_82
 11797  00FBAC  0100               	movlb	0	; () banked
 11798  00FBAE  6F6B               	movwf	_sprintf$1272& (0+255),b
 11799  00FBB0  0EFF               	movlw	high STR_82
 11800  00FBB2  D004               	goto	L20
 11801  00FBB4                     l4930:
 11802                           
 11803                           ; BSR set to: 0
 11804  00FBB4  0E70               	movlw	low STR_81
 11805  00FBB6  0100               	movlb	0	; () banked
 11806  00FBB8  6F6B               	movwf	_sprintf$1272& (0+255),b
 11807  00FBBA  0EFF               	movlw	high STR_81
 11808  00FBBC                     L20:
 11809  00FBBC  0100               	movlb	0	; () banked
 11810  00FBBE  6F6C               	movwf	(_sprintf$1272+1)& (0+255),b
 11811  00FBC0  D000               	goto	l4932
 11812  00FBC2                     l4932:
 11813                           
 11814                           ; BSR set to: 0
 11815  00FBC2  0100               	movlb	0	; () banked
 11816  00FBC4  516D               	movf	sprintf@idx& (0+255),w,b
 11817  00FBC6  0D01               	mullw	1
 11818  00FBC8  C06B  F04A         	movff	_sprintf$1272,??_sprintf
 11819  00FBCC  C06C  F04B         	movff	_sprintf$1272+1,??_sprintf+1
 11820  00FBD0  50F3               	movf	prodl,w,c
 11821  00FBD2  264A               	addwf	??_sprintf,f,c
 11822  00FBD4  50F4               	movf	prodh,w,c
 11823  00FBD6  224B               	addwfc	??_sprintf+1,f,c
 11824  00FBD8  C04A  FFF6         	movff	??_sprintf,tblptrl
 11825  00FBDC  C04B  FFF7         	movff	??_sprintf+1,tblptrh
 11826  00FBE0                     	if	0	;tblptru may be non-zero
 11827  00FBE0                     	endif
 11828  00FBE0                     	if	0	;tblptru may be non-zero
 11829  00FBE0                     	endif
 11830  00FBE0  0008               	tblrd		*
 11831  00FBE2  CFF5 F085          	movff	tablat,sprintf@c
 11832                           
 11833                           ;doprnt.c: 1508: }
 11834                           ;doprnt.c: 1510: break;
 11835  00FBE6  D03C               	goto	l4940
 11836  00FBE8                     l4934:
 11837                           
 11838                           ; BSR set to: 0
 11839                           ;doprnt.c: 1518: c = ((val / octpowers[prec]) & 07) + '0';
 11840  00FBE8  C07D  F001         	movff	sprintf@val,___lldiv@dividend
 11841  00FBEC  C07E  F002         	movff	sprintf@val+1,___lldiv@dividend+1
 11842  00FBF0  C07F  F003         	movff	sprintf@val+2,___lldiv@dividend+2
 11843  00FBF4  C080  F004         	movff	sprintf@val+3,___lldiv@dividend+3
 11844  00FBF8  C081  F04A         	movff	sprintf@prec,??_sprintf
 11845  00FBFC  C082  F04B         	movff	sprintf@prec+1,??_sprintf+1
 11846  00FC00  90D8               	bcf	status,0,c
 11847  00FC02  364A               	rlcf	??_sprintf,f,c
 11848  00FC04  364B               	rlcf	??_sprintf+1,f,c
 11849  00FC06  90D8               	bcf	status,0,c
 11850  00FC08  364A               	rlcf	??_sprintf,f,c
 11851  00FC0A  364B               	rlcf	??_sprintf+1,f,c
 11852  00FC0C  0EFF               	movlw	low _octpowers
 11853  00FC0E  244A               	addwf	??_sprintf,w,c
 11854  00FC10  6EF6               	movwf	tblptrl,c
 11855  00FC12  0EFC               	movlw	high _octpowers
 11856  00FC14  204B               	addwfc	??_sprintf+1,w,c
 11857  00FC16  6EF7               	movwf	tblptrh,c
 11858  00FC18                     	if	0	;There are less than 3 active tblptr bytes
 11859  00FC18                     	endif
 11860  00FC18  0009               	tblrd		*+
 11861  00FC1A  CFF5 F005          	movff	tablat,___lldiv@divisor
 11862  00FC1E  0009               	tblrd		*+
 11863  00FC20  CFF5 F006          	movff	tablat,___lldiv@divisor+1
 11864  00FC24  0009               	tblrd		*+
 11865  00FC26  CFF5 F007          	movff	tablat,___lldiv@divisor+2
 11866  00FC2A  000A               	tblrd		*-
 11867  00FC2C  CFF5 F008          	movff	tablat,___lldiv@divisor+3
 11868  00FC30  ECBC  F05C         	call	___lldiv	;wreg free
 11869  00FC34  5001               	movf	?___lldiv,w,c
 11870  00FC36  0B07               	andlw	7
 11871  00FC38                     L19:
 11872  00FC38  0F30               	addlw	48
 11873  00FC3A  0100               	movlb	0	; () banked
 11874  00FC3C  6F85               	movwf	sprintf@c& (0+255),b
 11875                           
 11876                           ; BSR set to: 0
 11877                           ;doprnt.c: 1523: }
 11878                           
 11879                           ;doprnt.c: 1520: break;
 11880  00FC3E  D010               	goto	l4940
 11881  00FC40                     l4938:
 11882                           
 11883                           ; BSR set to: 0
 11884  00FC40  0100               	movlb	0	; () banked
 11885  00FC42  5186               	movf	sprintf@flag& (0+255),w,b
 11886  00FC44  0BC0               	andlw	192
 11887                           
 11888                           ; Switch size 1, requested type "space"
 11889                           ; Number of cases is 4, Range of values is 0 to 192
 11890                           ; switch strategies available:
 11891                           ; Name         Instructions Cycles
 11892                           ; simple_byte           13     7 (average)
 11893                           ;	Chosen strategy is simple_byte
 11894  00FC46  0A00               	xorlw	0	; case 0
 11895  00FC48  B4D8               	btfsc	status,2,c
 11896  00FC4A  D748               	goto	l4922
 11897  00FC4C  0A40               	xorlw	64	; case 64
 11898  00FC4E  B4D8               	btfsc	status,2,c
 11899  00FC50  D7CB               	goto	l4934
 11900  00FC52  0AC0               	xorlw	192	; case 128
 11901  00FC54  B4D8               	btfsc	status,2,c
 11902  00FC56  D77C               	goto	l4924
 11903  00FC58  0A40               	xorlw	64	; case 192
 11904  00FC5A  B4D8               	btfsc	status,2,c
 11905  00FC5C  D73F               	goto	l4922
 11906  00FC5E  D000               	goto	l4940
 11907  00FC60                     l4940:
 11908                           
 11909                           ; BSR set to: 0
 11910                           ;doprnt.c: 1524: ((*sp++ = (c)));
 11911  00FC60  C040  FFD9         	movff	sprintf@sp,fsr2l
 11912  00FC64  C041  FFDA         	movff	sprintf@sp+1,fsr2h
 11913  00FC68  C085  FFDF         	movff	sprintf@c,indf2
 11914  00FC6C                     l4942:
 11915                           
 11916                           ; BSR set to: 0
 11917  00FC6C  4A40               	infsnz	sprintf@sp,f,c
 11918  00FC6E  2A41               	incf	sprintf@sp+1,f,c
 11919  00FC70  D000               	goto	l4944
 11920  00FC72                     l4944:
 11921                           
 11922                           ; BSR set to: 0
 11923  00FC72  0100               	movlb	0	; () banked
 11924  00FC74  0781               	decf	sprintf@prec& (0+255),f,b
 11925  00FC76  A0D8               	btfss	status,0,c
 11926  00FC78  0782               	decf	(sprintf@prec+1)& (0+255),f,b
 11927  00FC7A  0100               	movlb	0	; () banked
 11928  00FC7C  2981               	incf	sprintf@prec& (0+255),w,b
 11929  00FC7E  E1E0               	bnz	l4938
 11930  00FC80  0100               	movlb	0	; () banked
 11931  00FC82  2982               	incf	(sprintf@prec+1)& (0+255),w,b
 11932  00FC84  A4D8               	btfss	status,2,c
 11933  00FC86  D7DC               	goto	l4938
 11934                           
 11935                           ; BSR set to: 0
 11936                           ;doprnt.c: 1525: }
 11937                           ;doprnt.c: 1528: if((flag & 0x08) && width > 0)
 11938  00FC88  0100               	movlb	0	; () banked
 11939  00FC8A  A786               	btfss	sprintf@flag& (0+255),3,b
 11940  00FC8C  D020               	goto	l4954
 11941                           
 11942                           ; BSR set to: 0
 11943  00FC8E  0100               	movlb	0	; () banked
 11944  00FC90  BF84               	btfsc	(sprintf@width+1)& (0+255),7,b
 11945  00FC92  D01D               	goto	l4954
 11946  00FC94  0100               	movlb	0	; () banked
 11947  00FC96  5184               	movf	(sprintf@width+1)& (0+255),w,b
 11948  00FC98  E106               	bnz	l4948
 11949  00FC9A  0100               	movlb	0	; () banked
 11950  00FC9C  0583               	decf	sprintf@width& (0+255),w,b
 11951  00FC9E  B0D8               	btfsc	status,0,c
 11952  00FCA0  D002               	goto	l4948
 11953  00FCA2  D015               	goto	l4954
 11954  00FCA4  D000               	goto	l4948
 11955  00FCA6                     l4948:
 11956                           
 11957                           ; BSR set to: 0
 11958                           ;doprnt.c: 1530: ((*sp++ = (' ')));
 11959  00FCA6  C040  FFD9         	movff	sprintf@sp,fsr2l
 11960  00FCAA  C041  FFDA         	movff	sprintf@sp+1,fsr2h
 11961  00FCAE  0E20               	movlw	32
 11962  00FCB0  6EDF               	movwf	indf2,c
 11963                           
 11964                           ; BSR set to: 0
 11965  00FCB2  4A40               	infsnz	sprintf@sp,f,c
 11966  00FCB4  2A41               	incf	sprintf@sp+1,f,c
 11967                           
 11968                           ; BSR set to: 0
 11969                           ;doprnt.c: 1531: while(--width);
 11970  00FCB6  0100               	movlb	0	; () banked
 11971  00FCB8  0783               	decf	sprintf@width& (0+255),f,b
 11972  00FCBA  A0D8               	btfss	status,0,c
 11973  00FCBC  0784               	decf	(sprintf@width+1)& (0+255),f,b
 11974  00FCBE  0100               	movlb	0	; () banked
 11975  00FCC0  5183               	movf	sprintf@width& (0+255),w,b
 11976  00FCC2  0100               	movlb	0	; () banked
 11977  00FCC4  1184               	iorwf	(sprintf@width+1)& (0+255),w,b
 11978  00FCC6  B4D8               	btfsc	status,2,c
 11979  00FCC8  D002               	goto	l4954
 11980  00FCCA  D7ED               	goto	l4948
 11981                           
 11982                           ; BSR set to: 0
 11983                           
 11984                           ; BSR set to: 0
 11985  00FCCC  D000               	goto	l4954
 11986  00FCCE                     l4954:
 11987                           
 11988                           ; BSR set to: 0
 11989  00FCCE  C042  FFF6         	movff	sprintf@f,tblptrl
 11990  00FCD2  C043  FFF7         	movff	sprintf@f+1,tblptrh
 11991  00FCD6  4A42               	infsnz	sprintf@f,f,c
 11992  00FCD8  2A43               	incf	sprintf@f+1,f,c
 11993  00FCDA                     	if	0	;tblptru may be non-zero
 11994  00FCDA                     	endif
 11995  00FCDA                     	if	0	;tblptru may be non-zero
 11996  00FCDA                     	endif
 11997  00FCDA  0008               	tblrd		*
 11998  00FCDC  CFF5 F085          	movff	tablat,sprintf@c
 11999  00FCE0  0100               	movlb	0	; () banked
 12000  00FCE2  5185               	movf	sprintf@c& (0+255),w,b
 12001  00FCE4  B4D8               	btfsc	status,2,c
 12002  00FCE6  D003               	goto	l4956
 12003  00FCE8  EF8F  F074         	goto	l4378
 12004                           
 12005                           ; BSR set to: 0
 12006  00FCEC  D000               	goto	l4956
 12007  00FCEE                     l4956:
 12008                           
 12009                           ; BSR set to: 0
 12010                           ;doprnt.c: 1538: *sp = 0;
 12011  00FCEE  C040  FFD9         	movff	sprintf@sp,fsr2l
 12012  00FCF2  C041  FFDA         	movff	sprintf@sp+1,fsr2h
 12013  00FCF6  0E00               	movlw	0
 12014  00FCF8  6EDF               	movwf	indf2,c
 12015  00FCFA  0012               	return	
 12016                           
 12017                           ; BSR set to: 0
 12018                           
 12019                           ; BSR set to: 0
 12020                           ;doprnt.c: 1540: return 0;
 12021                           ;	Return value of _sprintf is never used
 12022  00FCFC  0012               	return		;funcret
 12023  00FCFE                     __end_of_sprintf:
 12024                           	opt stack 0
 12025                           tblptru	equ	0xFF8
 12026                           tblptrh	equ	0xFF7
 12027                           tblptrl	equ	0xFF6
 12028                           tablat	equ	0xFF5
 12029                           prodh	equ	0xFF4
 12030                           prodl	equ	0xFF3
 12031                           intcon	equ	0xFF2
 12032                           indf0	equ	0xFEF
 12033                           postinc0	equ	0xFEE
 12034                           fsr0h	equ	0xFEA
 12035                           fsr0l	equ	0xFE9
 12036                           wreg	equ	0xFE8
 12037                           postdec1	equ	0xFE5
 12038                           fsr1l	equ	0xFE1
 12039                           indf2	equ	0xFDF
 12040                           postinc2	equ	0xFDE
 12041                           postdec2	equ	0xFDD
 12042                           fsr2h	equ	0xFDA
 12043                           fsr2l	equ	0xFD9
 12044                           status	equ	0xFD8
 12045                           
 12046 ;; *************** function _scale *****************
 12047 ;; Defined at:
 12048 ;;		line 425 in file "C:\Program Files (x86)\Microchip\xc8\v1.34\sources\common\doprnt.c"
 12049 ;; Parameters:    Size  Location     Type
 12050 ;;  scl             1    wreg     char 
 12051 ;; Auto vars:     Size  Location     Type
 12052 ;;  scl             1   41[COMRAM] char 
 12053 ;; Return value:  Size  Location     Type
 12054 ;;                  3   35[COMRAM] char 
 12055 ;; Registers used:
 12056 ;;		wreg, status,2, status,0, tblptrl, tblptrh, tblptru, prodl, prodh, cstack
 12057 ;; Tracked objects:
 12058 ;;		On entry : 0/0
 12059 ;;		On exit  : 0/0
 12060 ;;		Unchanged: 0/0
 12061 ;; Data sizes:     COMRAM   BANK0   BANK1   BANK2   BANK3   BANK4   BANK5   BANK6   BANK7   BANK8   BANK9  BANK10  BANK1
      +1  BANK12  BANK13  BANK14
 12062 ;;      Params:         3       0       0       0       0       0       0       0       0       0       0       0       
      +0       0       0       0
 12063 ;;      Locals:         4       0       0       0       0       0       0       0       0       0       0       0       
      +0       0       0       0
 12064 ;;      Temps:          0       0       0       0       0       0       0       0       0       0       0       0       
      +0       0       0       0
 12065 ;;      Totals:         7       0       0       0       0       0       0       0       0       0       0       0       
      +0       0       0       0
 12066 ;;Total ram usage:        7 bytes
 12067 ;; Hardware stack levels used:    1
 12068 ;; Hardware stack levels required when called:    2
 12069 ;; This function calls:
 12070 ;;		___awdiv
 12071 ;;		___awmod
 12072 ;;		___ftmul
 12073 ;;		___wmul
 12074 ;; This function is called by:
 12075 ;;		_sprintf
 12076 ;; This function uses a non-reentrant model
 12077 ;;
 12078                           
 12079                           	psect	text25
 12080  00D856                     __ptext25:
 12081                           	opt stack 0
 12082  00D856                     _scale:
 12083                           	opt stack 26
 12084                           
 12085                           ; BSR set to: 0
 12086                           ;incstack = 0
 12087                           ;scale@scl stored from wreg
 12088  00D856  6E2A               	movwf	scale@scl,c
 12089                           
 12090                           ;doprnt.c: 428: if(scl < 0) {
 12091  00D858  AE2A               	btfss	scale@scl,7,c
 12092  00D85A  D0FE               	goto	l4084
 12093                           
 12094                           ;doprnt.c: 429: scl = -scl;
 12095  00D85C  6C2A               	negf	scale@scl,c
 12096                           
 12097                           ;doprnt.c: 430: if(scl>=110)
 12098  00D85E  502A               	movf	scale@scl,w,c
 12099  00D860  0A80               	xorlw	128
 12100  00D862  0F12               	addlw	-238
 12101  00D864  A0D8               	btfss	status,0,c
 12102  00D866  D092               	goto	l4074
 12103                           
 12104                           ;doprnt.c: 431: return _npowers_[scl/100+18] * _npowers_[(scl%100)/10+9] * _npowers_[scl
      +                          %10];
 12105  00D868  0E00               	movlw	0
 12106  00D86A  6E12               	movwf	___wmul@multiplicand+1,c
 12107  00D86C  0E03               	movlw	3
 12108  00D86E  6E11               	movwf	___wmul@multiplicand,c
 12109  00D870  0E00               	movlw	0
 12110  00D872  6E0A               	movwf	___awdiv@divisor+1,c
 12111  00D874  0E0A               	movlw	10
 12112  00D876  6E09               	movwf	___awdiv@divisor,c
 12113  00D878  0E00               	movlw	0
 12114  00D87A  6E04               	movwf	___awmod@divisor+1,c
 12115  00D87C  0E64               	movlw	100
 12116  00D87E  6E03               	movwf	___awmod@divisor,c
 12117  00D880  502A               	movf	scale@scl,w,c
 12118  00D882  6E01               	movwf	___awmod@dividend,c
 12119  00D884  6A02               	clrf	___awmod@dividend+1,c
 12120  00D886  BE01               	btfsc	___awmod@dividend,7,c
 12121  00D888  0602               	decf	___awmod@dividend+1,f,c
 12122  00D88A  EC7B  F05C         	call	___awmod	;wreg free
 12123  00D88E  C001  F007         	movff	?___awmod,___awdiv@dividend
 12124  00D892  C002  F008         	movff	?___awmod+1,___awdiv@dividend+1
 12125  00D896  ECDE  F05D         	call	___awdiv	;wreg free
 12126  00D89A  0E09               	movlw	9
 12127  00D89C  2407               	addwf	?___awdiv,w,c
 12128  00D89E  6E0F               	movwf	___wmul@multiplier,c
 12129  00D8A0  0E00               	movlw	0
 12130  00D8A2  2008               	addwfc	?___awdiv+1,w,c
 12131  00D8A4  6E10               	movwf	___wmul@multiplier+1,c
 12132  00D8A6  EC93  F05A         	call	___wmul	;wreg free
 12133  00D8AA  0E57               	movlw	low __npowers_
 12134  00D8AC  240F               	addwf	?___wmul,w,c
 12135  00D8AE  6EF6               	movwf	tblptrl,c
 12136  00D8B0  0EFD               	movlw	high __npowers_
 12137  00D8B2  2010               	addwfc	?___wmul+1,w,c
 12138  00D8B4  6EF7               	movwf	tblptrh,c
 12139  00D8B6                     	if	0	;There are less than 3 active tblptr bytes
 12140  00D8B6                     	endif
 12141  00D8B6  0009               	tblrd		*+
 12142  00D8B8  CFF5 F018          	movff	tablat,___ftmul@f2
 12143  00D8BC  0009               	tblrd		*+
 12144  00D8BE  CFF5 F019          	movff	tablat,___ftmul@f2+1
 12145  00D8C2  000A               	tblrd		*-
 12146  00D8C4  CFF5 F01A          	movff	tablat,___ftmul@f2+2
 12147  00D8C8  0E00               	movlw	0
 12148  00D8CA  6E0A               	movwf	___awdiv@divisor+1,c
 12149  00D8CC  0E64               	movlw	100
 12150  00D8CE  6E09               	movwf	___awdiv@divisor,c
 12151  00D8D0  502A               	movf	scale@scl,w,c
 12152  00D8D2  6E07               	movwf	___awdiv@dividend,c
 12153  00D8D4  6A08               	clrf	___awdiv@dividend+1,c
 12154  00D8D6  BE07               	btfsc	___awdiv@dividend,7,c
 12155  00D8D8  0608               	decf	___awdiv@dividend+1,f,c
 12156  00D8DA  ECDE  F05D         	call	___awdiv	;wreg free
 12157  00D8DE  0E12               	movlw	18
 12158  00D8E0  2407               	addwf	?___awdiv,w,c
 12159  00D8E2  6E0F               	movwf	___wmul@multiplier,c
 12160  00D8E4  0E00               	movlw	0
 12161  00D8E6  2008               	addwfc	?___awdiv+1,w,c
 12162  00D8E8  6E10               	movwf	___wmul@multiplier+1,c
 12163  00D8EA  0E00               	movlw	0
 12164  00D8EC  6E12               	movwf	___wmul@multiplicand+1,c
 12165  00D8EE  0E03               	movlw	3
 12166  00D8F0  6E11               	movwf	___wmul@multiplicand,c
 12167  00D8F2  EC93  F05A         	call	___wmul	;wreg free
 12168  00D8F6  0E57               	movlw	low __npowers_
 12169  00D8F8  240F               	addwf	?___wmul,w,c
 12170  00D8FA  6EF6               	movwf	tblptrl,c
 12171  00D8FC  0EFD               	movlw	high __npowers_
 12172  00D8FE  2010               	addwfc	?___wmul+1,w,c
 12173  00D900  6EF7               	movwf	tblptrh,c
 12174  00D902                     	if	0	;There are less than 3 active tblptr bytes
 12175  00D902                     	endif
 12176  00D902  0009               	tblrd		*+
 12177  00D904  CFF5 F015          	movff	tablat,___ftmul@f1
 12178  00D908  0009               	tblrd		*+
 12179  00D90A  CFF5 F016          	movff	tablat,___ftmul@f1+1
 12180  00D90E  000A               	tblrd		*-
 12181  00D910  CFF5 F017          	movff	tablat,___ftmul@f1+2
 12182  00D914  ECFD  F05F         	call	___ftmul	;wreg free
 12183  00D918  C015  F027         	movff	?___ftmul,_scale$2475
 12184  00D91C  C016  F028         	movff	?___ftmul+1,_scale$2475+1
 12185  00D920  C017  F029         	movff	?___ftmul+2,_scale$2475+2
 12186                           
 12187                           ;doprnt.c: 431: return _npowers_[scl/100+18] * _npowers_[(scl%100)/10+9] * _npowers_[scl
      +                          %10];
 12188  00D924  C027  F015         	movff	_scale$2475,___ftmul@f1
 12189  00D928  C028  F016         	movff	_scale$2475+1,___ftmul@f1+1
 12190  00D92C  C029  F017         	movff	_scale$2475+2,___ftmul@f1+2
 12191  00D930  0E00               	movlw	0
 12192  00D932  6E12               	movwf	___wmul@multiplicand+1,c
 12193  00D934  0E03               	movlw	3
 12194  00D936  6E11               	movwf	___wmul@multiplicand,c
 12195  00D938  0E00               	movlw	0
 12196  00D93A  6E04               	movwf	___awmod@divisor+1,c
 12197  00D93C  0E0A               	movlw	10
 12198  00D93E  6E03               	movwf	___awmod@divisor,c
 12199  00D940  502A               	movf	scale@scl,w,c
 12200  00D942  6E01               	movwf	___awmod@dividend,c
 12201  00D944  6A02               	clrf	___awmod@dividend+1,c
 12202  00D946  BE01               	btfsc	___awmod@dividend,7,c
 12203  00D948  0602               	decf	___awmod@dividend+1,f,c
 12204  00D94A  EC7B  F05C         	call	___awmod	;wreg free
 12205  00D94E  C001  F00F         	movff	?___awmod,___wmul@multiplier
 12206  00D952  C002  F010         	movff	?___awmod+1,___wmul@multiplier+1
 12207  00D956  EC93  F05A         	call	___wmul	;wreg free
 12208  00D95A  0E57               	movlw	low __npowers_
 12209  00D95C  240F               	addwf	?___wmul,w,c
 12210  00D95E  6EF6               	movwf	tblptrl,c
 12211  00D960  0EFD               	movlw	high __npowers_
 12212  00D962  2010               	addwfc	?___wmul+1,w,c
 12213  00D964  6EF7               	movwf	tblptrh,c
 12214  00D966                     	if	0	;There are less than 3 active tblptr bytes
 12215  00D966                     	endif
 12216  00D966  0009               	tblrd		*+
 12217  00D968  CFF5 F018          	movff	tablat,___ftmul@f2
 12218  00D96C  0009               	tblrd		*+
 12219  00D96E  CFF5 F019          	movff	tablat,___ftmul@f2+1
 12220  00D972  000A               	tblrd		*-
 12221  00D974  CFF5 F01A          	movff	tablat,___ftmul@f2+2
 12222  00D978  ECFD  F05F         	call	___ftmul	;wreg free
 12223  00D97C  C015  F024         	movff	?___ftmul,?_scale
 12224  00D980  C016  F025         	movff	?___ftmul+1,?_scale+1
 12225  00D984  C017  F026         	movff	?___ftmul+2,?_scale+2
 12226  00D988  0012               	return	
 12227  00D98A  D054               	goto	l4080
 12228  00D98C                     l4074:
 12229                           
 12230                           ;doprnt.c: 432: else if(scl > 10)
 12231  00D98C  502A               	movf	scale@scl,w,c
 12232  00D98E  0A80               	xorlw	128
 12233  00D990  0F75               	addlw	-139
 12234  00D992  A0D8               	btfss	status,0,c
 12235  00D994  D04F               	goto	l4080
 12236                           
 12237                           ;doprnt.c: 433: return _npowers_[scl/10+9] * _npowers_[scl%10];
 12238  00D996  0E00               	movlw	0
 12239  00D998  6E0A               	movwf	___awdiv@divisor+1,c
 12240  00D99A  0E0A               	movlw	10
 12241  00D99C  6E09               	movwf	___awdiv@divisor,c
 12242  00D99E  502A               	movf	scale@scl,w,c
 12243  00D9A0  6E07               	movwf	___awdiv@dividend,c
 12244  00D9A2  6A08               	clrf	___awdiv@dividend+1,c
 12245  00D9A4  BE07               	btfsc	___awdiv@dividend,7,c
 12246  00D9A6  0608               	decf	___awdiv@dividend+1,f,c
 12247  00D9A8  ECDE  F05D         	call	___awdiv	;wreg free
 12248  00D9AC  0E09               	movlw	9
 12249  00D9AE  2407               	addwf	?___awdiv,w,c
 12250  00D9B0  6E0F               	movwf	___wmul@multiplier,c
 12251  00D9B2  0E00               	movlw	0
 12252  00D9B4  2008               	addwfc	?___awdiv+1,w,c
 12253  00D9B6  6E10               	movwf	___wmul@multiplier+1,c
 12254  00D9B8  0E00               	movlw	0
 12255  00D9BA  6E12               	movwf	___wmul@multiplicand+1,c
 12256  00D9BC  0E03               	movlw	3
 12257  00D9BE  6E11               	movwf	___wmul@multiplicand,c
 12258  00D9C0  EC93  F05A         	call	___wmul	;wreg free
 12259  00D9C4  0E57               	movlw	low __npowers_
 12260  00D9C6  240F               	addwf	?___wmul,w,c
 12261  00D9C8  6EF6               	movwf	tblptrl,c
 12262  00D9CA  0EFD               	movlw	high __npowers_
 12263  00D9CC  2010               	addwfc	?___wmul+1,w,c
 12264  00D9CE  6EF7               	movwf	tblptrh,c
 12265  00D9D0                     	if	0	;There are less than 3 active tblptr bytes
 12266  00D9D0                     	endif
 12267  00D9D0  0009               	tblrd		*+
 12268  00D9D2  CFF5 F015          	movff	tablat,___ftmul@f1
 12269  00D9D6  0009               	tblrd		*+
 12270  00D9D8  CFF5 F016          	movff	tablat,___ftmul@f1+1
 12271  00D9DC  000A               	tblrd		*-
 12272  00D9DE  CFF5 F017          	movff	tablat,___ftmul@f1+2
 12273  00D9E2  0E00               	movlw	0
 12274  00D9E4  6E12               	movwf	___wmul@multiplicand+1,c
 12275  00D9E6  0E03               	movlw	3
 12276  00D9E8  6E11               	movwf	___wmul@multiplicand,c
 12277  00D9EA  0E00               	movlw	0
 12278  00D9EC  6E04               	movwf	___awmod@divisor+1,c
 12279  00D9EE  0E0A               	movlw	10
 12280  00D9F0  6E03               	movwf	___awmod@divisor,c
 12281  00D9F2  502A               	movf	scale@scl,w,c
 12282  00D9F4  6E01               	movwf	___awmod@dividend,c
 12283  00D9F6  6A02               	clrf	___awmod@dividend+1,c
 12284  00D9F8  BE01               	btfsc	___awmod@dividend,7,c
 12285  00D9FA  0602               	decf	___awmod@dividend+1,f,c
 12286  00D9FC  EC7B  F05C         	call	___awmod	;wreg free
 12287  00DA00  C001  F00F         	movff	?___awmod,___wmul@multiplier
 12288  00DA04  C002  F010         	movff	?___awmod+1,___wmul@multiplier+1
 12289  00DA08  EC93  F05A         	call	___wmul	;wreg free
 12290  00DA0C  0E57               	movlw	low __npowers_
 12291  00DA0E  240F               	addwf	?___wmul,w,c
 12292  00DA10  6EF6               	movwf	tblptrl,c
 12293  00DA12  0EFD               	movlw	high __npowers_
 12294  00DA14  2010               	addwfc	?___wmul+1,w,c
 12295  00DA16  6EF7               	movwf	tblptrh,c
 12296  00DA18                     	if	0	;There are less than 3 active tblptr bytes
 12297  00DA18                     	endif
 12298  00DA18  0009               	tblrd		*+
 12299  00DA1A  CFF5 F018          	movff	tablat,___ftmul@f2
 12300  00DA1E  0009               	tblrd		*+
 12301  00DA20  CFF5 F019          	movff	tablat,___ftmul@f2+1
 12302  00DA24  000A               	tblrd		*-
 12303  00DA26  CFF5 F01A          	movff	tablat,___ftmul@f2+2
 12304  00DA2A  ECFD  F05F         	call	___ftmul	;wreg free
 12305  00DA2E  D7A6               	goto	L21
 12306  00DA30  0012               	return	
 12307  00DA32  D000               	goto	l4080
 12308  00DA34                     l4080:
 12309                           
 12310                           ;doprnt.c: 434: return _npowers_[scl];
 12311  00DA34  502A               	movf	scale@scl,w,c
 12312  00DA36  0D03               	mullw	3
 12313  00DA38  0E57               	movlw	low __npowers_
 12314  00DA3A  24F3               	addwf	prodl,w,c
 12315  00DA3C  6EF6               	movwf	tblptrl,c
 12316  00DA3E  0EFD               	movlw	high __npowers_
 12317  00DA40  20F4               	addwfc	prodh,w,c
 12318  00DA42  6EF7               	movwf	tblptrh,c
 12319  00DA44                     	if	0	;There are less than 3 active tblptr bytes
 12320  00DA44                     	endif
 12321  00DA44  0009               	tblrd		*+
 12322  00DA46  CFF5 F024          	movff	tablat,?_scale
 12323  00DA4A  0009               	tblrd		*+
 12324  00DA4C  CFF5 F025          	movff	tablat,?_scale+1
 12325  00DA50  000A               	tblrd		*-
 12326  00DA52  CFF5 F026          	movff	tablat,?_scale+2
 12327  00DA56  0012               	return	
 12328  00DA58                     l4084:
 12329                           
 12330                           ;doprnt.c: 435: }
 12331                           ;doprnt.c: 436: if(scl>=110)
 12332  00DA58  502A               	movf	scale@scl,w,c
 12333  00DA5A  0A80               	xorlw	128
 12334  00DA5C  0F12               	addlw	-238
 12335  00DA5E  A0D8               	btfss	status,0,c
 12336  00DA60  D092               	goto	l4092
 12337                           
 12338                           ;doprnt.c: 437: return _powers_[scl/100+18] * _powers_[(scl%100)/10+9] * _powers_[scl%10
      +                          ];
 12339  00DA62  0E00               	movlw	0
 12340  00DA64  6E12               	movwf	___wmul@multiplicand+1,c
 12341  00DA66  0E03               	movlw	3
 12342  00DA68  6E11               	movwf	___wmul@multiplicand,c
 12343  00DA6A  0E00               	movlw	0
 12344  00DA6C  6E0A               	movwf	___awdiv@divisor+1,c
 12345  00DA6E  0E0A               	movlw	10
 12346  00DA70  6E09               	movwf	___awdiv@divisor,c
 12347  00DA72  0E00               	movlw	0
 12348  00DA74  6E04               	movwf	___awmod@divisor+1,c
 12349  00DA76  0E64               	movlw	100
 12350  00DA78  6E03               	movwf	___awmod@divisor,c
 12351  00DA7A  502A               	movf	scale@scl,w,c
 12352  00DA7C  6E01               	movwf	___awmod@dividend,c
 12353  00DA7E  6A02               	clrf	___awmod@dividend+1,c
 12354  00DA80  BE01               	btfsc	___awmod@dividend,7,c
 12355  00DA82  0602               	decf	___awmod@dividend+1,f,c
 12356  00DA84  EC7B  F05C         	call	___awmod	;wreg free
 12357  00DA88  C001  F007         	movff	?___awmod,___awdiv@dividend
 12358  00DA8C  C002  F008         	movff	?___awmod+1,___awdiv@dividend+1
 12359  00DA90  ECDE  F05D         	call	___awdiv	;wreg free
 12360  00DA94  0E09               	movlw	9
 12361  00DA96  2407               	addwf	?___awdiv,w,c
 12362  00DA98  6E0F               	movwf	___wmul@multiplier,c
 12363  00DA9A  0E00               	movlw	0
 12364  00DA9C  2008               	addwfc	?___awdiv+1,w,c
 12365  00DA9E  6E10               	movwf	___wmul@multiplier+1,c
 12366  00DAA0  EC93  F05A         	call	___wmul	;wreg free
 12367  00DAA4  0E7E               	movlw	low __powers_
 12368  00DAA6  240F               	addwf	?___wmul,w,c
 12369  00DAA8  6EF6               	movwf	tblptrl,c
 12370  00DAAA  0EFD               	movlw	high __powers_
 12371  00DAAC  2010               	addwfc	?___wmul+1,w,c
 12372  00DAAE  6EF7               	movwf	tblptrh,c
 12373  00DAB0                     	if	0	;There are less than 3 active tblptr bytes
 12374  00DAB0                     	endif
 12375  00DAB0  0009               	tblrd		*+
 12376  00DAB2  CFF5 F018          	movff	tablat,___ftmul@f2
 12377  00DAB6  0009               	tblrd		*+
 12378  00DAB8  CFF5 F019          	movff	tablat,___ftmul@f2+1
 12379  00DABC  000A               	tblrd		*-
 12380  00DABE  CFF5 F01A          	movff	tablat,___ftmul@f2+2
 12381  00DAC2  0E00               	movlw	0
 12382  00DAC4  6E0A               	movwf	___awdiv@divisor+1,c
 12383  00DAC6  0E64               	movlw	100
 12384  00DAC8  6E09               	movwf	___awdiv@divisor,c
 12385  00DACA  502A               	movf	scale@scl,w,c
 12386  00DACC  6E07               	movwf	___awdiv@dividend,c
 12387  00DACE  6A08               	clrf	___awdiv@dividend+1,c
 12388  00DAD0  BE07               	btfsc	___awdiv@dividend,7,c
 12389  00DAD2  0608               	decf	___awdiv@dividend+1,f,c
 12390  00DAD4  ECDE  F05D         	call	___awdiv	;wreg free
 12391  00DAD8  0E12               	movlw	18
 12392  00DADA  2407               	addwf	?___awdiv,w,c
 12393  00DADC  6E0F               	movwf	___wmul@multiplier,c
 12394  00DADE  0E00               	movlw	0
 12395  00DAE0  2008               	addwfc	?___awdiv+1,w,c
 12396  00DAE2  6E10               	movwf	___wmul@multiplier+1,c
 12397  00DAE4  0E00               	movlw	0
 12398  00DAE6  6E12               	movwf	___wmul@multiplicand+1,c
 12399  00DAE8  0E03               	movlw	3
 12400  00DAEA  6E11               	movwf	___wmul@multiplicand,c
 12401  00DAEC  EC93  F05A         	call	___wmul	;wreg free
 12402  00DAF0  0E7E               	movlw	low __powers_
 12403  00DAF2  240F               	addwf	?___wmul,w,c
 12404  00DAF4  6EF6               	movwf	tblptrl,c
 12405  00DAF6  0EFD               	movlw	high __powers_
 12406  00DAF8  2010               	addwfc	?___wmul+1,w,c
 12407  00DAFA  6EF7               	movwf	tblptrh,c
 12408  00DAFC                     	if	0	;There are less than 3 active tblptr bytes
 12409  00DAFC                     	endif
 12410  00DAFC  0009               	tblrd		*+
 12411  00DAFE  CFF5 F015          	movff	tablat,___ftmul@f1
 12412  00DB02  0009               	tblrd		*+
 12413  00DB04  CFF5 F016          	movff	tablat,___ftmul@f1+1
 12414  00DB08  000A               	tblrd		*-
 12415  00DB0A  CFF5 F017          	movff	tablat,___ftmul@f1+2
 12416  00DB0E  ECFD  F05F         	call	___ftmul	;wreg free
 12417  00DB12  C015  F027         	movff	?___ftmul,_scale$2475
 12418  00DB16  C016  F028         	movff	?___ftmul+1,_scale$2475+1
 12419  00DB1A  C017  F029         	movff	?___ftmul+2,_scale$2475+2
 12420                           
 12421                           ;doprnt.c: 437: return _powers_[scl/100+18] * _powers_[(scl%100)/10+9] * _powers_[scl%10
      +                          ];
 12422  00DB1E  C027  F015         	movff	_scale$2475,___ftmul@f1
 12423  00DB22  C028  F016         	movff	_scale$2475+1,___ftmul@f1+1
 12424  00DB26  C029  F017         	movff	_scale$2475+2,___ftmul@f1+2
 12425  00DB2A  0E00               	movlw	0
 12426  00DB2C  6E12               	movwf	___wmul@multiplicand+1,c
 12427  00DB2E  0E03               	movlw	3
 12428  00DB30  6E11               	movwf	___wmul@multiplicand,c
 12429  00DB32  0E00               	movlw	0
 12430  00DB34  6E04               	movwf	___awmod@divisor+1,c
 12431  00DB36  0E0A               	movlw	10
 12432  00DB38  6E03               	movwf	___awmod@divisor,c
 12433  00DB3A  502A               	movf	scale@scl,w,c
 12434  00DB3C  6E01               	movwf	___awmod@dividend,c
 12435  00DB3E  6A02               	clrf	___awmod@dividend+1,c
 12436  00DB40  BE01               	btfsc	___awmod@dividend,7,c
 12437  00DB42  0602               	decf	___awmod@dividend+1,f,c
 12438  00DB44  EC7B  F05C         	call	___awmod	;wreg free
 12439  00DB48  C001  F00F         	movff	?___awmod,___wmul@multiplier
 12440  00DB4C  C002  F010         	movff	?___awmod+1,___wmul@multiplier+1
 12441  00DB50  EC93  F05A         	call	___wmul	;wreg free
 12442  00DB54  0E7E               	movlw	low __powers_
 12443  00DB56  240F               	addwf	?___wmul,w,c
 12444  00DB58  6EF6               	movwf	tblptrl,c
 12445  00DB5A  0EFD               	movlw	high __powers_
 12446  00DB5C  2010               	addwfc	?___wmul+1,w,c
 12447  00DB5E  6EF7               	movwf	tblptrh,c
 12448  00DB60                     	if	0	;There are less than 3 active tblptr bytes
 12449  00DB60                     	endif
 12450  00DB60  0009               	tblrd		*+
 12451  00DB62  CFF5 F018          	movff	tablat,___ftmul@f2
 12452  00DB66  0009               	tblrd		*+
 12453  00DB68  CFF5 F019          	movff	tablat,___ftmul@f2+1
 12454  00DB6C  000A               	tblrd		*-
 12455  00DB6E  CFF5 F01A          	movff	tablat,___ftmul@f2+2
 12456  00DB72  ECFD  F05F         	call	___ftmul	;wreg free
 12457  00DB76  C015  F024         	movff	?___ftmul,?_scale
 12458  00DB7A  C016  F025         	movff	?___ftmul+1,?_scale+1
 12459  00DB7E  C017  F026         	movff	?___ftmul+2,?_scale+2
 12460  00DB82  0012               	return	
 12461  00DB84  D054               	goto	l4098
 12462  00DB86                     l4092:
 12463                           
 12464                           ;doprnt.c: 438: else if(scl > 10)
 12465  00DB86  502A               	movf	scale@scl,w,c
 12466  00DB88  0A80               	xorlw	128
 12467  00DB8A  0F75               	addlw	-139
 12468  00DB8C  A0D8               	btfss	status,0,c
 12469  00DB8E  D04F               	goto	l4098
 12470                           
 12471                           ;doprnt.c: 439: return _powers_[scl/10+9] * _powers_[scl%10];
 12472  00DB90  0E00               	movlw	0
 12473  00DB92  6E0A               	movwf	___awdiv@divisor+1,c
 12474  00DB94  0E0A               	movlw	10
 12475  00DB96  6E09               	movwf	___awdiv@divisor,c
 12476  00DB98  502A               	movf	scale@scl,w,c
 12477  00DB9A  6E07               	movwf	___awdiv@dividend,c
 12478  00DB9C  6A08               	clrf	___awdiv@dividend+1,c
 12479  00DB9E  BE07               	btfsc	___awdiv@dividend,7,c
 12480  00DBA0  0608               	decf	___awdiv@dividend+1,f,c
 12481  00DBA2  ECDE  F05D         	call	___awdiv	;wreg free
 12482  00DBA6  0E09               	movlw	9
 12483  00DBA8  2407               	addwf	?___awdiv,w,c
 12484  00DBAA  6E0F               	movwf	___wmul@multiplier,c
 12485  00DBAC  0E00               	movlw	0
 12486  00DBAE  2008               	addwfc	?___awdiv+1,w,c
 12487  00DBB0  6E10               	movwf	___wmul@multiplier+1,c
 12488  00DBB2  0E00               	movlw	0
 12489  00DBB4  6E12               	movwf	___wmul@multiplicand+1,c
 12490  00DBB6  0E03               	movlw	3
 12491  00DBB8  6E11               	movwf	___wmul@multiplicand,c
 12492  00DBBA  EC93  F05A         	call	___wmul	;wreg free
 12493  00DBBE  0E7E               	movlw	low __powers_
 12494  00DBC0  240F               	addwf	?___wmul,w,c
 12495  00DBC2  6EF6               	movwf	tblptrl,c
 12496  00DBC4  0EFD               	movlw	high __powers_
 12497  00DBC6  2010               	addwfc	?___wmul+1,w,c
 12498  00DBC8  6EF7               	movwf	tblptrh,c
 12499  00DBCA                     	if	0	;There are less than 3 active tblptr bytes
 12500  00DBCA                     	endif
 12501  00DBCA  0009               	tblrd		*+
 12502  00DBCC  CFF5 F015          	movff	tablat,___ftmul@f1
 12503  00DBD0  0009               	tblrd		*+
 12504  00DBD2  CFF5 F016          	movff	tablat,___ftmul@f1+1
 12505  00DBD6  000A               	tblrd		*-
 12506  00DBD8  CFF5 F017          	movff	tablat,___ftmul@f1+2
 12507  00DBDC  0E00               	movlw	0
 12508  00DBDE  6E12               	movwf	___wmul@multiplicand+1,c
 12509  00DBE0  0E03               	movlw	3
 12510  00DBE2  6E11               	movwf	___wmul@multiplicand,c
 12511  00DBE4  0E00               	movlw	0
 12512  00DBE6  6E04               	movwf	___awmod@divisor+1,c
 12513  00DBE8  0E0A               	movlw	10
 12514  00DBEA  6E03               	movwf	___awmod@divisor,c
 12515  00DBEC  502A               	movf	scale@scl,w,c
 12516  00DBEE  6E01               	movwf	___awmod@dividend,c
 12517  00DBF0  6A02               	clrf	___awmod@dividend+1,c
 12518  00DBF2  BE01               	btfsc	___awmod@dividend,7,c
 12519  00DBF4  0602               	decf	___awmod@dividend+1,f,c
 12520  00DBF6  EC7B  F05C         	call	___awmod	;wreg free
 12521  00DBFA  C001  F00F         	movff	?___awmod,___wmul@multiplier
 12522  00DBFE  C002  F010         	movff	?___awmod+1,___wmul@multiplier+1
 12523  00DC02  EC93  F05A         	call	___wmul	;wreg free
 12524  00DC06  0E7E               	movlw	low __powers_
 12525  00DC08  240F               	addwf	?___wmul,w,c
 12526  00DC0A  6EF6               	movwf	tblptrl,c
 12527  00DC0C  0EFD               	movlw	high __powers_
 12528  00DC0E  2010               	addwfc	?___wmul+1,w,c
 12529  00DC10  6EF7               	movwf	tblptrh,c
 12530  00DC12                     	if	0	;There are less than 3 active tblptr bytes
 12531  00DC12                     	endif
 12532  00DC12  0009               	tblrd		*+
 12533  00DC14  CFF5 F018          	movff	tablat,___ftmul@f2
 12534  00DC18  0009               	tblrd		*+
 12535  00DC1A  CFF5 F019          	movff	tablat,___ftmul@f2+1
 12536  00DC1E  000A               	tblrd		*-
 12537  00DC20  CFF5 F01A          	movff	tablat,___ftmul@f2+2
 12538  00DC24  ECFD  F05F         	call	___ftmul	;wreg free
 12539  00DC28  D7A6               	goto	L22
 12540  00DC2A  0012               	return	
 12541  00DC2C  D000               	goto	l4098
 12542  00DC2E                     l4098:
 12543                           
 12544                           ;doprnt.c: 440: return _powers_[scl];
 12545  00DC2E  502A               	movf	scale@scl,w,c
 12546  00DC30  0D03               	mullw	3
 12547  00DC32  0E7E               	movlw	low __powers_
 12548  00DC34  24F3               	addwf	prodl,w,c
 12549  00DC36  6EF6               	movwf	tblptrl,c
 12550  00DC38  0EFD               	movlw	high __powers_
 12551  00DC3A  20F4               	addwfc	prodh,w,c
 12552  00DC3C  6EF7               	movwf	tblptrh,c
 12553  00DC3E                     	if	0	;There are less than 3 active tblptr bytes
 12554  00DC3E                     	endif
 12555  00DC3E  0009               	tblrd		*+
 12556  00DC40  CFF5 F024          	movff	tablat,?_scale
 12557  00DC44  0009               	tblrd		*+
 12558  00DC46  CFF5 F025          	movff	tablat,?_scale+1
 12559  00DC4A  000A               	tblrd		*-
 12560  00DC4C  CFF5 F026          	movff	tablat,?_scale+2
 12561  00DC50  0012               	return	
 12562  00DC52  0012               	return		;funcret
 12563  00DC54                     __end_of_scale:
 12564                           	opt stack 0
 12565                           tblptru	equ	0xFF8
 12566                           tblptrh	equ	0xFF7
 12567                           tblptrl	equ	0xFF6
 12568                           tablat	equ	0xFF5
 12569                           prodh	equ	0xFF4
 12570                           prodl	equ	0xFF3
 12571                           intcon	equ	0xFF2
 12572                           indf0	equ	0xFEF
 12573                           postinc0	equ	0xFEE
 12574                           fsr0h	equ	0xFEA
 12575                           fsr0l	equ	0xFE9
 12576                           wreg	equ	0xFE8
 12577                           postdec1	equ	0xFE5
 12578                           fsr1l	equ	0xFE1
 12579                           indf2	equ	0xFDF
 12580                           postinc2	equ	0xFDE
 12581                           postdec2	equ	0xFDD
 12582                           fsr2h	equ	0xFDA
 12583                           fsr2l	equ	0xFD9
 12584                           status	equ	0xFD8
 12585                           
 12586 ;; *************** function _isdigit *****************
 12587 ;; Defined at:
 12588 ;;		line 8 in file "C:\Program Files (x86)\Microchip\xc8\v1.34\sources\common\isdigit.c"
 12589 ;; Parameters:    Size  Location     Type
 12590 ;;  c               1    wreg     unsigned char 
 12591 ;; Auto vars:     Size  Location     Type
 12592 ;;  c               1    2[COMRAM] unsigned char 
 12593 ;; Return value:  Size  Location     Type
 12594 ;;		None               void
 12595 ;; Registers used:
 12596 ;;		wreg, status,2, status,0
 12597 ;; Tracked objects:
 12598 ;;		On entry : 0/0
 12599 ;;		On exit  : 0/0
 12600 ;;		Unchanged: 0/0
 12601 ;; Data sizes:     COMRAM   BANK0   BANK1   BANK2   BANK3   BANK4   BANK5   BANK6   BANK7   BANK8   BANK9  BANK10  BANK1
      +1  BANK12  BANK13  BANK14
 12602 ;;      Params:         0       0       0       0       0       0       0       0       0       0       0       0       
      +0       0       0       0
 12603 ;;      Locals:         2       0       0       0       0       0       0       0       0       0       0       0       
      +0       0       0       0
 12604 ;;      Temps:          1       0       0       0       0       0       0       0       0       0       0       0       
      +0       0       0       0
 12605 ;;      Totals:         3       0       0       0       0       0       0       0       0       0       0       0       
      +0       0       0       0
 12606 ;;Total ram usage:        3 bytes
 12607 ;; Hardware stack levels used:    1
 12608 ;; This function calls:
 12609 ;;		Nothing
 12610 ;; This function is called by:
 12611 ;;		_sprintf
 12612 ;; This function uses a non-reentrant model
 12613 ;;
 12614                           
 12615                           	psect	text26
 12616  00B4BA                     __ptext26:
 12617                           	opt stack 0
 12618  00B4BA                     _isdigit:
 12619                           	opt stack 28
 12620                           
 12621                           ;incstack = 0
 12622                           ;isdigit@c stored from wreg
 12623  00B4BA  6E03               	movwf	isdigit@c,c
 12624  00B4BC  0E00               	movlw	0
 12625  00B4BE  6E02               	movwf	_isdigit$2240,c
 12626  00B4C0  0E3A               	movlw	58
 12627  00B4C2  6003               	cpfslt	isdigit@c,c
 12628  00B4C4  D006               	goto	l4110
 12629  00B4C6  0E2F               	movlw	47
 12630  00B4C8  6403               	cpfsgt	isdigit@c,c
 12631  00B4CA  D003               	goto	l4110
 12632  00B4CC  0E01               	movlw	1
 12633  00B4CE  6E02               	movwf	_isdigit$2240,c
 12634  00B4D0  D000               	goto	l4110
 12635  00B4D2                     l4110:
 12636  00B4D2  C002  F001         	movff	_isdigit$2240,??_isdigit
 12637  00B4D6  3001               	rrcf	??_isdigit,w,c
 12638  00B4D8  0012               	return	
 12639  00B4DA  0012               	return		;funcret
 12640  00B4DC                     __end_of_isdigit:
 12641                           	opt stack 0
 12642                           tblptru	equ	0xFF8
 12643                           tblptrh	equ	0xFF7
 12644                           tblptrl	equ	0xFF6
 12645                           tablat	equ	0xFF5
 12646                           prodh	equ	0xFF4
 12647                           prodl	equ	0xFF3
 12648                           intcon	equ	0xFF2
 12649                           indf0	equ	0xFEF
 12650                           postinc0	equ	0xFEE
 12651                           fsr0h	equ	0xFEA
 12652                           fsr0l	equ	0xFE9
 12653                           wreg	equ	0xFE8
 12654                           postdec1	equ	0xFE5
 12655                           fsr1l	equ	0xFE1
 12656                           indf2	equ	0xFDF
 12657                           postinc2	equ	0xFDE
 12658                           postdec2	equ	0xFDD
 12659                           fsr2h	equ	0xFDA
 12660                           fsr2l	equ	0xFD9
 12661                           status	equ	0xFD8
 12662                           
 12663 ;; *************** function _fround *****************
 12664 ;; Defined at:
 12665 ;;		line 409 in file "C:\Program Files (x86)\Microchip\xc8\v1.34\sources\common\doprnt.c"
 12666 ;; Parameters:    Size  Location     Type
 12667 ;;  prec            1    wreg     unsigned char 
 12668 ;; Auto vars:     Size  Location     Type
 12669 ;;  prec            1   44[COMRAM] unsigned char 
 12670 ;; Return value:  Size  Location     Type
 12671 ;;                  3   35[COMRAM] unsigned char 
 12672 ;; Registers used:
 12673 ;;		wreg, status,2, status,0, tblptrl, tblptrh, tblptru, prodl, prodh, cstack
 12674 ;; Tracked objects:
 12675 ;;		On entry : 0/0
 12676 ;;		On exit  : 0/0
 12677 ;;		Unchanged: 0/0
 12678 ;; Data sizes:     COMRAM   BANK0   BANK1   BANK2   BANK3   BANK4   BANK5   BANK6   BANK7   BANK8   BANK9  BANK10  BANK1
      +1  BANK12  BANK13  BANK14
 12679 ;;      Params:         3       0       0       0       0       0       0       0       0       0       0       0       
      +0       0       0       0
 12680 ;;      Locals:         7       0       0       0       0       0       0       0       0       0       0       0       
      +0       0       0       0
 12681 ;;      Temps:          0       0       0       0       0       0       0       0       0       0       0       0       
      +0       0       0       0
 12682 ;;      Totals:        10       0       0       0       0       0       0       0       0       0       0       0       
      +0       0       0       0
 12683 ;;Total ram usage:       10 bytes
 12684 ;; Hardware stack levels used:    1
 12685 ;; Hardware stack levels required when called:    2
 12686 ;; This function calls:
 12687 ;;		___awdiv
 12688 ;;		___awmod
 12689 ;;		___ftmul
 12690 ;;		___wmul
 12691 ;; This function is called by:
 12692 ;;		_sprintf
 12693 ;; This function uses a non-reentrant model
 12694 ;;
 12695                           
 12696                           	psect	text27
 12697  00D384                     __ptext27:
 12698                           	opt stack 0
 12699  00D384                     _fround:
 12700                           	opt stack 26
 12701                           
 12702                           ;incstack = 0
 12703                           ;fround@prec stored from wreg
 12704  00D384  6E2D               	movwf	fround@prec,c
 12705                           
 12706                           ;doprnt.c: 413: if(prec>=110)
 12707  00D386  0E6D               	movlw	109
 12708  00D388  642D               	cpfsgt	fround@prec,c
 12709  00D38A  D0A0               	goto	l4052
 12710                           
 12711                           ;doprnt.c: 414: return 0.5 * _npowers_[prec/100+18] * _npowers_[(prec%100)/10+9] * _npow
      +                          ers_[prec%10];
 12712  00D38C  0E00               	movlw	0
 12713  00D38E  6E12               	movwf	___wmul@multiplicand+1,c
 12714  00D390  0E03               	movlw	3
 12715  00D392  6E11               	movwf	___wmul@multiplicand,c
 12716  00D394  0E00               	movlw	0
 12717  00D396  6E0A               	movwf	___awdiv@divisor+1,c
 12718  00D398  0E0A               	movlw	10
 12719  00D39A  6E09               	movwf	___awdiv@divisor,c
 12720  00D39C  0E00               	movlw	0
 12721  00D39E  6E04               	movwf	___awmod@divisor+1,c
 12722  00D3A0  0E64               	movlw	100
 12723  00D3A2  6E03               	movwf	___awmod@divisor,c
 12724  00D3A4  C02D  F001         	movff	fround@prec,___awmod@dividend
 12725  00D3A8  6A02               	clrf	___awmod@dividend+1,c
 12726  00D3AA  EC7B  F05C         	call	___awmod	;wreg free
 12727  00D3AE  C001  F007         	movff	?___awmod,___awdiv@dividend
 12728  00D3B2  C002  F008         	movff	?___awmod+1,___awdiv@dividend+1
 12729  00D3B6  ECDE  F05D         	call	___awdiv	;wreg free
 12730  00D3BA  0E09               	movlw	9
 12731  00D3BC  2407               	addwf	?___awdiv,w,c
 12732  00D3BE  6E0F               	movwf	___wmul@multiplier,c
 12733  00D3C0  0E00               	movlw	0
 12734  00D3C2  2008               	addwfc	?___awdiv+1,w,c
 12735  00D3C4  6E10               	movwf	___wmul@multiplier+1,c
 12736  00D3C6  EC93  F05A         	call	___wmul	;wreg free
 12737  00D3CA  0E57               	movlw	low __npowers_
 12738  00D3CC  240F               	addwf	?___wmul,w,c
 12739  00D3CE  6EF6               	movwf	tblptrl,c
 12740  00D3D0  0EFD               	movlw	high __npowers_
 12741  00D3D2  2010               	addwfc	?___wmul+1,w,c
 12742  00D3D4  6EF7               	movwf	tblptrh,c
 12743  00D3D6                     	if	0	;There are less than 3 active tblptr bytes
 12744  00D3D6                     	endif
 12745  00D3D6  0009               	tblrd		*+
 12746  00D3D8  CFF5 F018          	movff	tablat,___ftmul@f2
 12747  00D3DC  0009               	tblrd		*+
 12748  00D3DE  CFF5 F019          	movff	tablat,___ftmul@f2+1
 12749  00D3E2  000A               	tblrd		*-
 12750  00D3E4  CFF5 F01A          	movff	tablat,___ftmul@f2+2
 12751  00D3E8  0E00               	movlw	0
 12752  00D3EA  6E0A               	movwf	___awdiv@divisor+1,c
 12753  00D3EC  0E64               	movlw	100
 12754  00D3EE  6E09               	movwf	___awdiv@divisor,c
 12755  00D3F0  C02D  F007         	movff	fround@prec,___awdiv@dividend
 12756  00D3F4  6A08               	clrf	___awdiv@dividend+1,c
 12757  00D3F6  ECDE  F05D         	call	___awdiv	;wreg free
 12758  00D3FA  0E12               	movlw	18
 12759  00D3FC  2407               	addwf	?___awdiv,w,c
 12760  00D3FE  6E0F               	movwf	___wmul@multiplier,c
 12761  00D400  0E00               	movlw	0
 12762  00D402  2008               	addwfc	?___awdiv+1,w,c
 12763  00D404  6E10               	movwf	___wmul@multiplier+1,c
 12764  00D406  0E00               	movlw	0
 12765  00D408  6E12               	movwf	___wmul@multiplicand+1,c
 12766  00D40A  0E03               	movlw	3
 12767  00D40C  6E11               	movwf	___wmul@multiplicand,c
 12768  00D40E  EC93  F05A         	call	___wmul	;wreg free
 12769  00D412  0E57               	movlw	low __npowers_
 12770  00D414  240F               	addwf	?___wmul,w,c
 12771  00D416  6EF6               	movwf	tblptrl,c
 12772  00D418  0EFD               	movlw	high __npowers_
 12773  00D41A  2010               	addwfc	?___wmul+1,w,c
 12774  00D41C  6EF7               	movwf	tblptrh,c
 12775  00D41E                     	if	0	;There are less than 3 active tblptr bytes
 12776  00D41E                     	endif
 12777  00D41E  0009               	tblrd		*+
 12778  00D420  CFF5 F015          	movff	tablat,___ftmul@f1
 12779  00D424  0009               	tblrd		*+
 12780  00D426  CFF5 F016          	movff	tablat,___ftmul@f1+1
 12781  00D42A  000A               	tblrd		*-
 12782  00D42C  CFF5 F017          	movff	tablat,___ftmul@f1+2
 12783  00D430  ECFD  F05F         	call	___ftmul	;wreg free
 12784  00D434  C015  F02A         	movff	?___ftmul,_fround$2473
 12785  00D438  C016  F02B         	movff	?___ftmul+1,_fround$2473+1
 12786  00D43C  C017  F02C         	movff	?___ftmul+2,_fround$2473+2
 12787                           
 12788                           ;doprnt.c: 414: return 0.5 * _npowers_[prec/100+18] * _npowers_[(prec%100)/10+9] * _npow
      +                          ers_[prec%10];
 12789  00D440  0E00               	movlw	0
 12790  00D442  6E12               	movwf	___wmul@multiplicand+1,c
 12791  00D444  0E03               	movlw	3
 12792  00D446  6E11               	movwf	___wmul@multiplicand,c
 12793  00D448  0E00               	movlw	0
 12794  00D44A  6E04               	movwf	___awmod@divisor+1,c
 12795  00D44C  0E0A               	movlw	10
 12796  00D44E  6E03               	movwf	___awmod@divisor,c
 12797  00D450  C02D  F001         	movff	fround@prec,___awmod@dividend
 12798  00D454  6A02               	clrf	___awmod@dividend+1,c
 12799  00D456  EC7B  F05C         	call	___awmod	;wreg free
 12800  00D45A  C001  F00F         	movff	?___awmod,___wmul@multiplier
 12801  00D45E  C002  F010         	movff	?___awmod+1,___wmul@multiplier+1
 12802  00D462  EC93  F05A         	call	___wmul	;wreg free
 12803  00D466  0E57               	movlw	low __npowers_
 12804  00D468  240F               	addwf	?___wmul,w,c
 12805  00D46A  6EF6               	movwf	tblptrl,c
 12806  00D46C  0EFD               	movlw	high __npowers_
 12807  00D46E  2010               	addwfc	?___wmul+1,w,c
 12808  00D470  6EF7               	movwf	tblptrh,c
 12809  00D472                     	if	0	;There are less than 3 active tblptr bytes
 12810  00D472                     	endif
 12811  00D472  0009               	tblrd		*+
 12812  00D474  CFF5 F018          	movff	tablat,___ftmul@f2
 12813  00D478  0009               	tblrd		*+
 12814  00D47A  CFF5 F019          	movff	tablat,___ftmul@f2+1
 12815  00D47E  000A               	tblrd		*-
 12816  00D480  CFF5 F01A          	movff	tablat,___ftmul@f2+2
 12817  00D484  C02A  F015         	movff	_fround$2473,___ftmul@f1
 12818  00D488  C02B  F016         	movff	_fround$2473+1,___ftmul@f1+1
 12819  00D48C  C02C  F017         	movff	_fround$2473+2,___ftmul@f1+2
 12820  00D490  ECFD  F05F         	call	___ftmul	;wreg free
 12821  00D494  C015  F027         	movff	?___ftmul,_fround$2474
 12822  00D498  C016  F028         	movff	?___ftmul+1,_fround$2474+1
 12823  00D49C  C017  F029         	movff	?___ftmul+2,_fround$2474+2
 12824                           
 12825                           ;doprnt.c: 414: return 0.5 * _npowers_[prec/100+18] * _npowers_[(prec%100)/10+9] * _npow
      +                          ers_[prec%10];
 12826  00D4A0  C027  F015         	movff	_fround$2474,___ftmul@f1
 12827  00D4A4  C028  F016         	movff	_fround$2474+1,___ftmul@f1+1
 12828  00D4A8  C029  F017         	movff	_fround$2474+2,___ftmul@f1+2
 12829  00D4AC  0E00               	movlw	0
 12830  00D4AE  6E18               	movwf	___ftmul@f2,c
 12831  00D4B0  0E00               	movlw	0
 12832  00D4B2  6E19               	movwf	___ftmul@f2+1,c
 12833  00D4B4  0E3F               	movlw	63
 12834  00D4B6  6E1A               	movwf	___ftmul@f2+2,c
 12835  00D4B8  ECFD  F05F         	call	___ftmul	;wreg free
 12836  00D4BC  C015  F024         	movff	?___ftmul,?_fround
 12837  00D4C0  C016  F025         	movff	?___ftmul+1,?_fround+1
 12838  00D4C4  C017  F026         	movff	?___ftmul+2,?_fround+2
 12839  00D4C8  0012               	return	
 12840  00D4CA  D062               	goto	l4060
 12841  00D4CC                     l4052:
 12842                           
 12843                           ;doprnt.c: 415: else if(prec > 10)
 12844  00D4CC  0E0A               	movlw	10
 12845  00D4CE  642D               	cpfsgt	fround@prec,c
 12846  00D4D0  D05F               	goto	l4060
 12847                           
 12848                           ;doprnt.c: 416: return 0.5 * _npowers_[prec/10+9] * _npowers_[prec%10];
 12849  00D4D2  0E00               	movlw	0
 12850  00D4D4  6E12               	movwf	___wmul@multiplicand+1,c
 12851  00D4D6  0E03               	movlw	3
 12852  00D4D8  6E11               	movwf	___wmul@multiplicand,c
 12853  00D4DA  0E00               	movlw	0
 12854  00D4DC  6E04               	movwf	___awmod@divisor+1,c
 12855  00D4DE  0E0A               	movlw	10
 12856  00D4E0  6E03               	movwf	___awmod@divisor,c
 12857  00D4E2  C02D  F001         	movff	fround@prec,___awmod@dividend
 12858  00D4E6  6A02               	clrf	___awmod@dividend+1,c
 12859  00D4E8  EC7B  F05C         	call	___awmod	;wreg free
 12860  00D4EC  C001  F00F         	movff	?___awmod,___wmul@multiplier
 12861  00D4F0  C002  F010         	movff	?___awmod+1,___wmul@multiplier+1
 12862  00D4F4  EC93  F05A         	call	___wmul	;wreg free
 12863  00D4F8  0E57               	movlw	low __npowers_
 12864  00D4FA  240F               	addwf	?___wmul,w,c
 12865  00D4FC  6EF6               	movwf	tblptrl,c
 12866  00D4FE  0EFD               	movlw	high __npowers_
 12867  00D500  2010               	addwfc	?___wmul+1,w,c
 12868  00D502  6EF7               	movwf	tblptrh,c
 12869  00D504                     	if	0	;There are less than 3 active tblptr bytes
 12870  00D504                     	endif
 12871  00D504  0009               	tblrd		*+
 12872  00D506  CFF5 F018          	movff	tablat,___ftmul@f2
 12873  00D50A  0009               	tblrd		*+
 12874  00D50C  CFF5 F019          	movff	tablat,___ftmul@f2+1
 12875  00D510  000A               	tblrd		*-
 12876  00D512  CFF5 F01A          	movff	tablat,___ftmul@f2+2
 12877  00D516  0E00               	movlw	0
 12878  00D518  6E0A               	movwf	___awdiv@divisor+1,c
 12879  00D51A  0E0A               	movlw	10
 12880  00D51C  6E09               	movwf	___awdiv@divisor,c
 12881  00D51E  C02D  F007         	movff	fround@prec,___awdiv@dividend
 12882  00D522  6A08               	clrf	___awdiv@dividend+1,c
 12883  00D524  ECDE  F05D         	call	___awdiv	;wreg free
 12884  00D528  0E09               	movlw	9
 12885  00D52A  2407               	addwf	?___awdiv,w,c
 12886  00D52C  6E0F               	movwf	___wmul@multiplier,c
 12887  00D52E  0E00               	movlw	0
 12888  00D530  2008               	addwfc	?___awdiv+1,w,c
 12889  00D532  6E10               	movwf	___wmul@multiplier+1,c
 12890  00D534  0E00               	movlw	0
 12891  00D536  6E12               	movwf	___wmul@multiplicand+1,c
 12892  00D538  0E03               	movlw	3
 12893  00D53A  6E11               	movwf	___wmul@multiplicand,c
 12894  00D53C  EC93  F05A         	call	___wmul	;wreg free
 12895  00D540  0E57               	movlw	low __npowers_
 12896  00D542  240F               	addwf	?___wmul,w,c
 12897  00D544  6EF6               	movwf	tblptrl,c
 12898  00D546  0EFD               	movlw	high __npowers_
 12899  00D548  2010               	addwfc	?___wmul+1,w,c
 12900  00D54A  6EF7               	movwf	tblptrh,c
 12901  00D54C                     	if	0	;There are less than 3 active tblptr bytes
 12902  00D54C                     	endif
 12903  00D54C  0009               	tblrd		*+
 12904  00D54E  CFF5 F015          	movff	tablat,___ftmul@f1
 12905  00D552  0009               	tblrd		*+
 12906  00D554  CFF5 F016          	movff	tablat,___ftmul@f1+1
 12907  00D558  000A               	tblrd		*-
 12908  00D55A  CFF5 F017          	movff	tablat,___ftmul@f1+2
 12909  00D55E  ECFD  F05F         	call	___ftmul	;wreg free
 12910  00D562  C015  F02A         	movff	?___ftmul,_fround$2473
 12911  00D566  C016  F02B         	movff	?___ftmul+1,_fround$2473+1
 12912  00D56A  C017  F02C         	movff	?___ftmul+2,_fround$2473+2
 12913                           
 12914                           ;doprnt.c: 416: return 0.5 * _npowers_[prec/10+9] * _npowers_[prec%10];
 12915  00D56E  C02A  F015         	movff	_fround$2473,___ftmul@f1
 12916  00D572  C02B  F016         	movff	_fround$2473+1,___ftmul@f1+1
 12917  00D576  C02C  F017         	movff	_fround$2473+2,___ftmul@f1+2
 12918  00D57A  0E00               	movlw	0
 12919  00D57C  6E18               	movwf	___ftmul@f2,c
 12920  00D57E  0E00               	movlw	0
 12921  00D580  6E19               	movwf	___ftmul@f2+1,c
 12922  00D582  0E3F               	movlw	63
 12923  00D584  6E1A               	movwf	___ftmul@f2+2,c
 12924  00D586  ECFD  F05F         	call	___ftmul	;wreg free
 12925  00D58A  D798               	goto	L23
 12926  00D58C  0012               	return	
 12927  00D58E  D000               	goto	l4060
 12928  00D590                     l4060:
 12929                           
 12930                           ;doprnt.c: 417: return 0.5 * _npowers_[prec];
 12931  00D590  502D               	movf	fround@prec,w,c
 12932  00D592  0D03               	mullw	3
 12933  00D594  0E57               	movlw	low __npowers_
 12934  00D596  24F3               	addwf	prodl,w,c
 12935  00D598  6EF6               	movwf	tblptrl,c
 12936  00D59A  0EFD               	movlw	high __npowers_
 12937  00D59C  20F4               	addwfc	prodh,w,c
 12938  00D59E  6EF7               	movwf	tblptrh,c
 12939  00D5A0                     	if	0	;There are less than 3 active tblptr bytes
 12940  00D5A0                     	endif
 12941  00D5A0  0009               	tblrd		*+
 12942  00D5A2  CFF5 F015          	movff	tablat,___ftmul@f1
 12943  00D5A6  0009               	tblrd		*+
 12944  00D5A8  CFF5 F016          	movff	tablat,___ftmul@f1+1
 12945  00D5AC  000A               	tblrd		*-
 12946  00D5AE  CFF5 F017          	movff	tablat,___ftmul@f1+2
 12947  00D5B2  0E00               	movlw	0
 12948  00D5B4  6E18               	movwf	___ftmul@f2,c
 12949  00D5B6  0E00               	movlw	0
 12950  00D5B8  6E19               	movwf	___ftmul@f2+1,c
 12951  00D5BA  0E3F               	movlw	63
 12952  00D5BC  6E1A               	movwf	___ftmul@f2+2,c
 12953  00D5BE  ECFD  F05F         	call	___ftmul	;wreg free
 12954  00D5C2  C015  F024         	movff	?___ftmul,?_fround
 12955  00D5C6  C016  F025         	movff	?___ftmul+1,?_fround+1
 12956  00D5CA  C017  F026         	movff	?___ftmul+2,?_fround+2
 12957  00D5CE  0012               	return	
 12958  00D5D0  0012               	return		;funcret
 12959  00D5D2                     __end_of_fround:
 12960                           	opt stack 0
 12961                           tblptru	equ	0xFF8
 12962                           tblptrh	equ	0xFF7
 12963                           tblptrl	equ	0xFF6
 12964                           tablat	equ	0xFF5
 12965                           prodh	equ	0xFF4
 12966                           prodl	equ	0xFF3
 12967                           intcon	equ	0xFF2
 12968                           indf0	equ	0xFEF
 12969                           postinc0	equ	0xFEE
 12970                           fsr0h	equ	0xFEA
 12971                           fsr0l	equ	0xFE9
 12972                           wreg	equ	0xFE8
 12973                           postdec1	equ	0xFE5
 12974                           fsr1l	equ	0xFE1
 12975                           indf2	equ	0xFDF
 12976                           postinc2	equ	0xFDE
 12977                           postdec2	equ	0xFDD
 12978                           fsr2h	equ	0xFDA
 12979                           fsr2l	equ	0xFD9
 12980                           status	equ	0xFD8
 12981                           
 12982 ;; *************** function ___wmul *****************
 12983 ;; Defined at:
 12984 ;;		line 15 in file "C:\Program Files (x86)\Microchip\xc8\v1.34\sources\common\Umul16.c"
 12985 ;; Parameters:    Size  Location     Type
 12986 ;;  multiplier      2   14[COMRAM] unsigned int 
 12987 ;;  multiplicand    2   16[COMRAM] unsigned int 
 12988 ;; Auto vars:     Size  Location     Type
 12989 ;;  product         2   18[COMRAM] unsigned int 
 12990 ;; Return value:  Size  Location     Type
 12991 ;;                  2   14[COMRAM] unsigned int 
 12992 ;; Registers used:
 12993 ;;		wreg, status,2, status,0, prodl, prodh
 12994 ;; Tracked objects:
 12995 ;;		On entry : 0/0
 12996 ;;		On exit  : 0/0
 12997 ;;		Unchanged: 0/0
 12998 ;; Data sizes:     COMRAM   BANK0   BANK1   BANK2   BANK3   BANK4   BANK5   BANK6   BANK7   BANK8   BANK9  BANK10  BANK1
      +1  BANK12  BANK13  BANK14
 12999 ;;      Params:         4       0       0       0       0       0       0       0       0       0       0       0       
      +0       0       0       0
 13000 ;;      Locals:         2       0       0       0       0       0       0       0       0       0       0       0       
      +0       0       0       0
 13001 ;;      Temps:          0       0       0       0       0       0       0       0       0       0       0       0       
      +0       0       0       0
 13002 ;;      Totals:         6       0       0       0       0       0       0       0       0       0       0       0       
      +0       0       0       0
 13003 ;;Total ram usage:        6 bytes
 13004 ;; Hardware stack levels used:    1
 13005 ;; This function calls:
 13006 ;;		Nothing
 13007 ;; This function is called by:
 13008 ;;		_fround
 13009 ;;		_scale
 13010 ;;		_sprintf
 13011 ;; This function uses a non-reentrant model
 13012 ;;
 13013                           
 13014                           	psect	text28
 13015  00B526                     __ptext28:
 13016                           	opt stack 0
 13017  00B526                     ___wmul:
 13018                           	opt stack 27
 13019                           
 13020                           ;incstack = 0
 13021  00B526  500F               	movf	___wmul@multiplier,w,c
 13022  00B528  0211               	mulwf	___wmul@multiplicand,c
 13023  00B52A  CFF3 F013          	movff	prodl,___wmul@product
 13024  00B52E  CFF4 F014          	movff	prodh,___wmul@product+1
 13025  00B532  500F               	movf	___wmul@multiplier,w,c
 13026  00B534  0212               	mulwf	___wmul@multiplicand+1,c
 13027  00B536  50F3               	movf	prodl,w,c
 13028  00B538  2614               	addwf	___wmul@product+1,f,c
 13029  00B53A  5010               	movf	___wmul@multiplier+1,w,c
 13030  00B53C  0211               	mulwf	___wmul@multiplicand,c
 13031  00B53E  50F3               	movf	prodl,w,c
 13032  00B540  2614               	addwf	___wmul@product+1,f,c
 13033  00B542  C013  F00F         	movff	___wmul@product,?___wmul
 13034  00B546  C014  F010         	movff	___wmul@product+1,?___wmul+1
 13035  00B54A  0012               	return	
 13036  00B54C  0012               	return		;funcret
 13037  00B54E                     __end_of___wmul:
 13038                           	opt stack 0
 13039                           tblptru	equ	0xFF8
 13040                           tblptrh	equ	0xFF7
 13041                           tblptrl	equ	0xFF6
 13042                           tablat	equ	0xFF5
 13043                           prodh	equ	0xFF4
 13044                           prodl	equ	0xFF3
 13045                           intcon	equ	0xFF2
 13046                           indf0	equ	0xFEF
 13047                           postinc0	equ	0xFEE
 13048                           fsr0h	equ	0xFEA
 13049                           fsr0l	equ	0xFE9
 13050                           wreg	equ	0xFE8
 13051                           postdec1	equ	0xFE5
 13052                           fsr1l	equ	0xFE1
 13053                           indf2	equ	0xFDF
 13054                           postinc2	equ	0xFDE
 13055                           postdec2	equ	0xFDD
 13056                           fsr2h	equ	0xFDA
 13057                           fsr2l	equ	0xFD9
 13058                           status	equ	0xFD8
 13059                           
 13060 ;; *************** function ___ftmul *****************
 13061 ;; Defined at:
 13062 ;;		line 62 in file "C:\Program Files (x86)\Microchip\xc8\v1.34\sources\common\ftmul.c"
 13063 ;; Parameters:    Size  Location     Type
 13064 ;;  f1              3   20[COMRAM] float 
 13065 ;;  f2              3   23[COMRAM] float 
 13066 ;; Auto vars:     Size  Location     Type
 13067 ;;  f3_as_produc    3   30[COMRAM] unsigned um
 13068 ;;  sign            1   34[COMRAM] unsigned char 
 13069 ;;  cntr            1   33[COMRAM] unsigned char 
 13070 ;;  exp             1   29[COMRAM] unsigned char 
 13071 ;; Return value:  Size  Location     Type
 13072 ;;                  3   20[COMRAM] float 
 13073 ;; Registers used:
 13074 ;;		wreg, status,2, status,0, cstack
 13075 ;; Tracked objects:
 13076 ;;		On entry : 0/0
 13077 ;;		On exit  : 0/0
 13078 ;;		Unchanged: 0/0
 13079 ;; Data sizes:     COMRAM   BANK0   BANK1   BANK2   BANK3   BANK4   BANK5   BANK6   BANK7   BANK8   BANK9  BANK10  BANK1
      +1  BANK12  BANK13  BANK14
 13080 ;;      Params:         6       0       0       0       0       0       0       0       0       0       0       0       
      +0       0       0       0
 13081 ;;      Locals:         6       0       0       0       0       0       0       0       0       0       0       0       
      +0       0       0       0
 13082 ;;      Temps:          3       0       0       0       0       0       0       0       0       0       0       0       
      +0       0       0       0
 13083 ;;      Totals:        15       0       0       0       0       0       0       0       0       0       0       0       
      +0       0       0       0
 13084 ;;Total ram usage:       15 bytes
 13085 ;; Hardware stack levels used:    1
 13086 ;; Hardware stack levels required when called:    1
 13087 ;; This function calls:
 13088 ;;		___ftpack
 13089 ;; This function is called by:
 13090 ;;		_control_temperatura_agua
 13091 ;;		_fround
 13092 ;;		_scale
 13093 ;;		_sprintf
 13094 ;; This function uses a non-reentrant model
 13095 ;;
 13096                           
 13097                           	psect	text29
 13098  00BFFA                     __ptext29:
 13099                           	opt stack 0
 13100  00BFFA                     ___ftmul:
 13101                           	opt stack 28
 13102                           
 13103                           ;incstack = 0
 13104  00BFFA  C017  F01B         	movff	___ftmul@f1+2,??___ftmul
 13105  00BFFE  6A1C               	clrf	(??___ftmul+1)& (0+255),c
 13106  00C000  6A1D               	clrf	(??___ftmul+2)& (0+255),c
 13107  00C002  3416               	rlcf	___ftmul@f1+1,w,c
 13108  00C004  361B               	rlcf	??___ftmul& (0+255),f,c
 13109  00C006  E301               	bnc	u4171
 13110  00C008  801C               	bsf	(??___ftmul+1)& (0+255),0,c
 13111  00C00A                     u4171:
 13112  00C00A  501B               	movf	??___ftmul,w,c
 13113  00C00C  6E1E               	movwf	___ftmul@exp,c
 13114  00C00E  501E               	movf	___ftmul@exp,w,c
 13115  00C010  A4D8               	btfss	status,2,c
 13116  00C012  D007               	goto	l3866
 13117  00C014  0E00               	movlw	0
 13118  00C016  6E15               	movwf	?___ftmul,c
 13119  00C018  0E00               	movlw	0
 13120  00C01A  6E16               	movwf	?___ftmul+1,c
 13121  00C01C  0E00               	movlw	0
 13122  00C01E  6E17               	movwf	?___ftmul+2,c
 13123  00C020  0012               	return	
 13124  00C022                     l3866:
 13125  00C022  C01A  F01B         	movff	___ftmul@f2+2,??___ftmul
 13126  00C026  6A1C               	clrf	(??___ftmul+1)& (0+255),c
 13127  00C028  6A1D               	clrf	(??___ftmul+2)& (0+255),c
 13128  00C02A  3419               	rlcf	___ftmul@f2+1,w,c
 13129  00C02C  361B               	rlcf	??___ftmul& (0+255),f,c
 13130  00C02E  E301               	bnc	u4191
 13131  00C030  801C               	bsf	(??___ftmul+1)& (0+255),0,c
 13132  00C032                     u4191:
 13133  00C032  501B               	movf	??___ftmul,w,c
 13134  00C034  6E23               	movwf	___ftmul@sign,c
 13135  00C036  5023               	movf	___ftmul@sign,w,c
 13136  00C038  A4D8               	btfss	status,2,c
 13137  00C03A  D007               	goto	l3872
 13138  00C03C  0E00               	movlw	0
 13139  00C03E  6E15               	movwf	?___ftmul,c
 13140  00C040  0E00               	movlw	0
 13141  00C042  6E16               	movwf	?___ftmul+1,c
 13142  00C044  0E00               	movlw	0
 13143  00C046  6E17               	movwf	?___ftmul+2,c
 13144  00C048  0012               	return	
 13145  00C04A                     l3872:
 13146  00C04A  5023               	movf	___ftmul@sign,w,c
 13147  00C04C  0F7B               	addlw	123
 13148  00C04E  261E               	addwf	___ftmul@exp,f,c
 13149  00C050  C017  F023         	movff	___ftmul@f1+2,___ftmul@sign
 13150  00C054  501A               	movf	___ftmul@f2+2,w,c
 13151  00C056  1A23               	xorwf	___ftmul@sign,f,c
 13152  00C058  0E80               	movlw	128
 13153  00C05A  1623               	andwf	___ftmul@sign,f,c
 13154  00C05C  8E16               	bsf	___ftmul@f1+1,7,c
 13155  00C05E  8E19               	bsf	___ftmul@f2+1,7,c
 13156  00C060  0EFF               	movlw	255
 13157  00C062  1618               	andwf	___ftmul@f2,f,c
 13158  00C064  0EFF               	movlw	255
 13159  00C066  1619               	andwf	___ftmul@f2+1,f,c
 13160  00C068  0E00               	movlw	0
 13161  00C06A  161A               	andwf	___ftmul@f2+2,f,c
 13162  00C06C  0E00               	movlw	0
 13163  00C06E  6E1F               	movwf	___ftmul@f3_as_product,c
 13164  00C070  0E00               	movlw	0
 13165  00C072  6E20               	movwf	___ftmul@f3_as_product+1,c
 13166  00C074  0E00               	movlw	0
 13167  00C076  6E21               	movwf	___ftmul@f3_as_product+2,c
 13168  00C078  0E07               	movlw	7
 13169  00C07A  6E22               	movwf	___ftmul@cntr,c
 13170  00C07C  D000               	goto	l3886
 13171  00C07E                     l3886:
 13172  00C07E  A015               	btfss	___ftmul@f1,0,c
 13173  00C080  D007               	goto	l3890
 13174  00C082  5018               	movf	___ftmul@f2,w,c
 13175  00C084  261F               	addwf	___ftmul@f3_as_product,f,c
 13176  00C086  5019               	movf	___ftmul@f2+1,w,c
 13177  00C088  2220               	addwfc	___ftmul@f3_as_product+1,f,c
 13178  00C08A  501A               	movf	___ftmul@f2+2,w,c
 13179  00C08C  2221               	addwfc	___ftmul@f3_as_product+2,f,c
 13180  00C08E  D000               	goto	l3890
 13181  00C090                     l3890:
 13182  00C090  90D8               	bcf	status,0,c
 13183  00C092  3217               	rrcf	___ftmul@f1+2,f,c
 13184  00C094  3216               	rrcf	___ftmul@f1+1,f,c
 13185  00C096  3215               	rrcf	___ftmul@f1,f,c
 13186  00C098  90D8               	bcf	status,0,c
 13187  00C09A  3618               	rlcf	___ftmul@f2,f,c
 13188  00C09C  3619               	rlcf	___ftmul@f2+1,f,c
 13189  00C09E  361A               	rlcf	___ftmul@f2+2,f,c
 13190  00C0A0  2E22               	decfsz	___ftmul@cntr,f,c
 13191  00C0A2  D7ED               	goto	l3886
 13192  00C0A4  D000               	goto	l3894
 13193  00C0A6                     l3894:
 13194  00C0A6  0E09               	movlw	9
 13195  00C0A8  6E22               	movwf	___ftmul@cntr,c
 13196  00C0AA  D000               	goto	l3896
 13197  00C0AC                     l3896:
 13198  00C0AC  A015               	btfss	___ftmul@f1,0,c
 13199  00C0AE  D007               	goto	l3900
 13200  00C0B0  5018               	movf	___ftmul@f2,w,c
 13201  00C0B2  261F               	addwf	___ftmul@f3_as_product,f,c
 13202  00C0B4  5019               	movf	___ftmul@f2+1,w,c
 13203  00C0B6  2220               	addwfc	___ftmul@f3_as_product+1,f,c
 13204  00C0B8  501A               	movf	___ftmul@f2+2,w,c
 13205  00C0BA  2221               	addwfc	___ftmul@f3_as_product+2,f,c
 13206  00C0BC  D000               	goto	l3900
 13207  00C0BE                     l3900:
 13208  00C0BE  90D8               	bcf	status,0,c
 13209  00C0C0  3217               	rrcf	___ftmul@f1+2,f,c
 13210  00C0C2  3216               	rrcf	___ftmul@f1+1,f,c
 13211  00C0C4  3215               	rrcf	___ftmul@f1,f,c
 13212  00C0C6  90D8               	bcf	status,0,c
 13213  00C0C8  3221               	rrcf	___ftmul@f3_as_product+2,f,c
 13214  00C0CA  3220               	rrcf	___ftmul@f3_as_product+1,f,c
 13215  00C0CC  321F               	rrcf	___ftmul@f3_as_product,f,c
 13216  00C0CE  2E22               	decfsz	___ftmul@cntr,f,c
 13217  00C0D0  D7ED               	goto	l3896
 13218  00C0D2  D000               	goto	l3904
 13219  00C0D4                     l3904:
 13220  00C0D4  C01F  F001         	movff	___ftmul@f3_as_product,___ftpack@arg
 13221  00C0D8  C020  F002         	movff	___ftmul@f3_as_product+1,___ftpack@arg+1
 13222  00C0DC  C021  F003         	movff	___ftmul@f3_as_product+2,___ftpack@arg+2
 13223  00C0E0  C01E  F004         	movff	___ftmul@exp,___ftpack@exp
 13224  00C0E4  C023  F005         	movff	___ftmul@sign,___ftpack@sign
 13225  00C0E8  EC29  F05E         	call	___ftpack	;wreg free
 13226  00C0EC  C001  F015         	movff	?___ftpack,?___ftmul
 13227  00C0F0  C002  F016         	movff	?___ftpack+1,?___ftmul+1
 13228  00C0F4  C003  F017         	movff	?___ftpack+2,?___ftmul+2
 13229  00C0F8  0012               	return	
 13230  00C0FA  0012               	return		;funcret
 13231  00C0FC                     __end_of___ftmul:
 13232                           	opt stack 0
 13233                           tblptru	equ	0xFF8
 13234                           tblptrh	equ	0xFF7
 13235                           tblptrl	equ	0xFF6
 13236                           tablat	equ	0xFF5
 13237                           prodh	equ	0xFF4
 13238                           prodl	equ	0xFF3
 13239                           intcon	equ	0xFF2
 13240                           indf0	equ	0xFEF
 13241                           postinc0	equ	0xFEE
 13242                           fsr0h	equ	0xFEA
 13243                           fsr0l	equ	0xFE9
 13244                           wreg	equ	0xFE8
 13245                           postdec1	equ	0xFE5
 13246                           fsr1l	equ	0xFE1
 13247                           indf2	equ	0xFDF
 13248                           postinc2	equ	0xFDE
 13249                           postdec2	equ	0xFDD
 13250                           fsr2h	equ	0xFDA
 13251                           fsr2l	equ	0xFD9
 13252                           status	equ	0xFD8
 13253                           
 13254 ;; *************** function ___awmod *****************
 13255 ;; Defined at:
 13256 ;;		line 8 in file "C:\Program Files (x86)\Microchip\xc8\v1.34\sources\common\awmod.c"
 13257 ;; Parameters:    Size  Location     Type
 13258 ;;  dividend        2    0[COMRAM] int 
 13259 ;;  divisor         2    2[COMRAM] int 
 13260 ;; Auto vars:     Size  Location     Type
 13261 ;;  sign            1    5[COMRAM] unsigned char 
 13262 ;;  counter         1    4[COMRAM] unsigned char 
 13263 ;; Return value:  Size  Location     Type
 13264 ;;                  2    0[COMRAM] int 
 13265 ;; Registers used:
 13266 ;;		wreg, status,2, status,0
 13267 ;; Tracked objects:
 13268 ;;		On entry : 0/0
 13269 ;;		On exit  : 0/0
 13270 ;;		Unchanged: 0/0
 13271 ;; Data sizes:     COMRAM   BANK0   BANK1   BANK2   BANK3   BANK4   BANK5   BANK6   BANK7   BANK8   BANK9  BANK10  BANK1
      +1  BANK12  BANK13  BANK14
 13272 ;;      Params:         4       0       0       0       0       0       0       0       0       0       0       0       
      +0       0       0       0
 13273 ;;      Locals:         2       0       0       0       0       0       0       0       0       0       0       0       
      +0       0       0       0
 13274 ;;      Temps:          0       0       0       0       0       0       0       0       0       0       0       0       
      +0       0       0       0
 13275 ;;      Totals:         6       0       0       0       0       0       0       0       0       0       0       0       
      +0       0       0       0
 13276 ;;Total ram usage:        6 bytes
 13277 ;; Hardware stack levels used:    1
 13278 ;; This function calls:
 13279 ;;		Nothing
 13280 ;; This function is called by:
 13281 ;;		_fround
 13282 ;;		_scale
 13283 ;; This function uses a non-reentrant model
 13284 ;;
 13285                           
 13286                           	psect	text30
 13287  00B8F6                     __ptext30:
 13288                           	opt stack 0
 13289  00B8F6                     ___awmod:
 13290                           	opt stack 27
 13291                           
 13292                           ;incstack = 0
 13293  00B8F6  0E00               	movlw	0
 13294  00B8F8  6E06               	movwf	___awmod@sign,c
 13295  00B8FA  AE02               	btfss	___awmod@dividend+1,7,c
 13296  00B8FC  D007               	goto	l3960
 13297  00B8FE  6C01               	negf	___awmod@dividend,c
 13298  00B900  1E02               	comf	___awmod@dividend+1,f,c
 13299  00B902  B0D8               	btfsc	status,0,c
 13300  00B904  2A02               	incf	___awmod@dividend+1,f,c
 13301  00B906  0E01               	movlw	1
 13302  00B908  6E06               	movwf	___awmod@sign,c
 13303  00B90A  D000               	goto	l3960
 13304  00B90C                     l3960:
 13305  00B90C  AE04               	btfss	___awmod@divisor+1,7,c
 13306  00B90E  D005               	goto	l3964
 13307  00B910  6C03               	negf	___awmod@divisor,c
 13308  00B912  1E04               	comf	___awmod@divisor+1,f,c
 13309  00B914  B0D8               	btfsc	status,0,c
 13310  00B916  2A04               	incf	___awmod@divisor+1,f,c
 13311  00B918  D000               	goto	l3964
 13312  00B91A                     l3964:
 13313  00B91A  5003               	movf	___awmod@divisor,w,c
 13314  00B91C  1004               	iorwf	___awmod@divisor+1,w,c
 13315  00B91E  B4D8               	btfsc	status,2,c
 13316  00B920  D01D               	goto	l3980
 13317  00B922  0E01               	movlw	1
 13318  00B924  6E05               	movwf	___awmod@counter,c
 13319  00B926  D005               	goto	l3970
 13320  00B928                     l3968:
 13321  00B928  90D8               	bcf	status,0,c
 13322  00B92A  3603               	rlcf	___awmod@divisor,f,c
 13323  00B92C  3604               	rlcf	___awmod@divisor+1,f,c
 13324  00B92E  2A05               	incf	___awmod@counter,f,c
 13325  00B930  D000               	goto	l3970
 13326  00B932                     l3970:
 13327  00B932  BE04               	btfsc	___awmod@divisor+1,7,c
 13328  00B934  D002               	goto	l3972
 13329  00B936  D7F8               	goto	l3968
 13330  00B938  D000               	goto	l3972
 13331  00B93A                     l3972:
 13332  00B93A  5003               	movf	___awmod@divisor,w,c
 13333  00B93C  5C01               	subwf	___awmod@dividend,w,c
 13334  00B93E  5004               	movf	___awmod@divisor+1,w,c
 13335  00B940  5802               	subwfb	___awmod@dividend+1,w,c
 13336  00B942  A0D8               	btfss	status,0,c
 13337  00B944  D005               	goto	l3976
 13338  00B946  5003               	movf	___awmod@divisor,w,c
 13339  00B948  5E01               	subwf	___awmod@dividend,f,c
 13340  00B94A  5004               	movf	___awmod@divisor+1,w,c
 13341  00B94C  5A02               	subwfb	___awmod@dividend+1,f,c
 13342  00B94E  D000               	goto	l3976
 13343  00B950                     l3976:
 13344  00B950  90D8               	bcf	status,0,c
 13345  00B952  3204               	rrcf	___awmod@divisor+1,f,c
 13346  00B954  3203               	rrcf	___awmod@divisor,f,c
 13347  00B956  2E05               	decfsz	___awmod@counter,f,c
 13348  00B958  D7F0               	goto	l3972
 13349  00B95A  D000               	goto	l3980
 13350  00B95C                     l3980:
 13351  00B95C  5006               	movf	___awmod@sign,w,c
 13352  00B95E  B4D8               	btfsc	status,2,c
 13353  00B960  D005               	goto	l3984
 13354  00B962  6C01               	negf	___awmod@dividend,c
 13355  00B964  1E02               	comf	___awmod@dividend+1,f,c
 13356  00B966  B0D8               	btfsc	status,0,c
 13357  00B968  2A02               	incf	___awmod@dividend+1,f,c
 13358  00B96A  D000               	goto	l3984
 13359  00B96C                     l3984:
 13360  00B96C  C001  F001         	movff	___awmod@dividend,?___awmod
 13361  00B970  C002  F002         	movff	___awmod@dividend+1,?___awmod+1
 13362  00B974  0012               	return	
 13363  00B976  0012               	return		;funcret
 13364  00B978                     __end_of___awmod:
 13365                           	opt stack 0
 13366                           tblptru	equ	0xFF8
 13367                           tblptrh	equ	0xFF7
 13368                           tblptrl	equ	0xFF6
 13369                           tablat	equ	0xFF5
 13370                           prodh	equ	0xFF4
 13371                           prodl	equ	0xFF3
 13372                           intcon	equ	0xFF2
 13373                           indf0	equ	0xFEF
 13374                           postinc0	equ	0xFEE
 13375                           fsr0h	equ	0xFEA
 13376                           fsr0l	equ	0xFE9
 13377                           wreg	equ	0xFE8
 13378                           postdec1	equ	0xFE5
 13379                           fsr1l	equ	0xFE1
 13380                           indf2	equ	0xFDF
 13381                           postinc2	equ	0xFDE
 13382                           postdec2	equ	0xFDD
 13383                           fsr2h	equ	0xFDA
 13384                           fsr2l	equ	0xFD9
 13385                           status	equ	0xFD8
 13386                           
 13387 ;; *************** function ___awdiv *****************
 13388 ;; Defined at:
 13389 ;;		line 8 in file "C:\Program Files (x86)\Microchip\xc8\v1.34\sources\common\awdiv.c"
 13390 ;; Parameters:    Size  Location     Type
 13391 ;;  dividend        2    6[COMRAM] int 
 13392 ;;  divisor         2    8[COMRAM] int 
 13393 ;; Auto vars:     Size  Location     Type
 13394 ;;  quotient        2   12[COMRAM] int 
 13395 ;;  sign            1   11[COMRAM] unsigned char 
 13396 ;;  counter         1   10[COMRAM] unsigned char 
 13397 ;; Return value:  Size  Location     Type
 13398 ;;                  2    6[COMRAM] int 
 13399 ;; Registers used:
 13400 ;;		wreg, status,2, status,0
 13401 ;; Tracked objects:
 13402 ;;		On entry : 0/0
 13403 ;;		On exit  : 0/0
 13404 ;;		Unchanged: 0/0
 13405 ;; Data sizes:     COMRAM   BANK0   BANK1   BANK2   BANK3   BANK4   BANK5   BANK6   BANK7   BANK8   BANK9  BANK10  BANK1
      +1  BANK12  BANK13  BANK14
 13406 ;;      Params:         4       0       0       0       0       0       0       0       0       0       0       0       
      +0       0       0       0
 13407 ;;      Locals:         4       0       0       0       0       0       0       0       0       0       0       0       
      +0       0       0       0
 13408 ;;      Temps:          0       0       0       0       0       0       0       0       0       0       0       0       
      +0       0       0       0
 13409 ;;      Totals:         8       0       0       0       0       0       0       0       0       0       0       0       
      +0       0       0       0
 13410 ;;Total ram usage:        8 bytes
 13411 ;; Hardware stack levels used:    1
 13412 ;; This function calls:
 13413 ;;		Nothing
 13414 ;; This function is called by:
 13415 ;;		_Write_RTC
 13416 ;;		_fround
 13417 ;;		_scale
 13418 ;;		_sprintf
 13419 ;; This function uses a non-reentrant model
 13420 ;;
 13421                           
 13422                           	psect	text31
 13423  00BBBC                     __ptext31:
 13424                           	opt stack 0
 13425  00BBBC                     ___awdiv:
 13426                           	opt stack 29
 13427                           
 13428                           ;incstack = 0
 13429  00BBBC  0E00               	movlw	0
 13430  00BBBE  6E0C               	movwf	___awdiv@sign,c
 13431  00BBC0  AE0A               	btfss	___awdiv@divisor+1,7,c
 13432  00BBC2  D007               	goto	l3916
 13433  00BBC4  6C09               	negf	___awdiv@divisor,c
 13434  00BBC6  1E0A               	comf	___awdiv@divisor+1,f,c
 13435  00BBC8  B0D8               	btfsc	status,0,c
 13436  00BBCA  2A0A               	incf	___awdiv@divisor+1,f,c
 13437  00BBCC  0E01               	movlw	1
 13438  00BBCE  6E0C               	movwf	___awdiv@sign,c
 13439  00BBD0  D000               	goto	l3916
 13440  00BBD2                     l3916:
 13441  00BBD2  AE08               	btfss	___awdiv@dividend+1,7,c
 13442  00BBD4  D007               	goto	l3922
 13443  00BBD6  6C07               	negf	___awdiv@dividend,c
 13444  00BBD8  1E08               	comf	___awdiv@dividend+1,f,c
 13445  00BBDA  B0D8               	btfsc	status,0,c
 13446  00BBDC  2A08               	incf	___awdiv@dividend+1,f,c
 13447  00BBDE  0E01               	movlw	1
 13448  00BBE0  1A0C               	xorwf	___awdiv@sign,f,c
 13449  00BBE2  D000               	goto	l3922
 13450  00BBE4                     l3922:
 13451  00BBE4  0E00               	movlw	0
 13452  00BBE6  6E0E               	movwf	___awdiv@quotient+1,c
 13453  00BBE8  0E00               	movlw	0
 13454  00BBEA  6E0D               	movwf	___awdiv@quotient,c
 13455  00BBEC  5009               	movf	___awdiv@divisor,w,c
 13456  00BBEE  100A               	iorwf	___awdiv@divisor+1,w,c
 13457  00BBF0  B4D8               	btfsc	status,2,c
 13458  00BBF2  D021               	goto	l3944
 13459  00BBF4  0E01               	movlw	1
 13460  00BBF6  6E0B               	movwf	___awdiv@counter,c
 13461  00BBF8  D005               	goto	l3930
 13462  00BBFA                     l3928:
 13463  00BBFA  90D8               	bcf	status,0,c
 13464  00BBFC  3609               	rlcf	___awdiv@divisor,f,c
 13465  00BBFE  360A               	rlcf	___awdiv@divisor+1,f,c
 13466  00BC00  2A0B               	incf	___awdiv@counter,f,c
 13467  00BC02  D000               	goto	l3930
 13468  00BC04                     l3930:
 13469  00BC04  BE0A               	btfsc	___awdiv@divisor+1,7,c
 13470  00BC06  D002               	goto	l3932
 13471  00BC08  D7F8               	goto	l3928
 13472  00BC0A  D000               	goto	l3932
 13473  00BC0C                     l3932:
 13474  00BC0C  90D8               	bcf	status,0,c
 13475  00BC0E  360D               	rlcf	___awdiv@quotient,f,c
 13476  00BC10  360E               	rlcf	___awdiv@quotient+1,f,c
 13477  00BC12  5009               	movf	___awdiv@divisor,w,c
 13478  00BC14  5C07               	subwf	___awdiv@dividend,w,c
 13479  00BC16  500A               	movf	___awdiv@divisor+1,w,c
 13480  00BC18  5808               	subwfb	___awdiv@dividend+1,w,c
 13481  00BC1A  A0D8               	btfss	status,0,c
 13482  00BC1C  D006               	goto	l3940
 13483  00BC1E  5009               	movf	___awdiv@divisor,w,c
 13484  00BC20  5E07               	subwf	___awdiv@dividend,f,c
 13485  00BC22  500A               	movf	___awdiv@divisor+1,w,c
 13486  00BC24  5A08               	subwfb	___awdiv@dividend+1,f,c
 13487  00BC26  800D               	bsf	___awdiv@quotient,0,c
 13488  00BC28  D000               	goto	l3940
 13489  00BC2A                     l3940:
 13490  00BC2A  90D8               	bcf	status,0,c
 13491  00BC2C  320A               	rrcf	___awdiv@divisor+1,f,c
 13492  00BC2E  3209               	rrcf	___awdiv@divisor,f,c
 13493  00BC30  2E0B               	decfsz	___awdiv@counter,f,c
 13494  00BC32  D7EC               	goto	l3932
 13495  00BC34  D000               	goto	l3944
 13496  00BC36                     l3944:
 13497  00BC36  500C               	movf	___awdiv@sign,w,c
 13498  00BC38  B4D8               	btfsc	status,2,c
 13499  00BC3A  D005               	goto	l3948
 13500  00BC3C  6C0D               	negf	___awdiv@quotient,c
 13501  00BC3E  1E0E               	comf	___awdiv@quotient+1,f,c
 13502  00BC40  B0D8               	btfsc	status,0,c
 13503  00BC42  2A0E               	incf	___awdiv@quotient+1,f,c
 13504  00BC44  D000               	goto	l3948
 13505  00BC46                     l3948:
 13506  00BC46  C00D  F007         	movff	___awdiv@quotient,?___awdiv
 13507  00BC4A  C00E  F008         	movff	___awdiv@quotient+1,?___awdiv+1
 13508  00BC4E  0012               	return	
 13509  00BC50  0012               	return		;funcret
 13510  00BC52                     __end_of___awdiv:
 13511                           	opt stack 0
 13512                           tblptru	equ	0xFF8
 13513                           tblptrh	equ	0xFF7
 13514                           tblptrl	equ	0xFF6
 13515                           tablat	equ	0xFF5
 13516                           prodh	equ	0xFF4
 13517                           prodl	equ	0xFF3
 13518                           intcon	equ	0xFF2
 13519                           indf0	equ	0xFEF
 13520                           postinc0	equ	0xFEE
 13521                           fsr0h	equ	0xFEA
 13522                           fsr0l	equ	0xFE9
 13523                           wreg	equ	0xFE8
 13524                           postdec1	equ	0xFE5
 13525                           fsr1l	equ	0xFE1
 13526                           indf2	equ	0xFDF
 13527                           postinc2	equ	0xFDE
 13528                           postdec2	equ	0xFDD
 13529                           fsr2h	equ	0xFDA
 13530                           fsr2l	equ	0xFD9
 13531                           status	equ	0xFD8
 13532                           
 13533 ;; *************** function __tdiv_to_l_ *****************
 13534 ;; Defined at:
 13535 ;;		line 60 in file "C:\Program Files (x86)\Microchip\xc8\v1.34\sources\common\ftdivl.c"
 13536 ;; Parameters:    Size  Location     Type
 13537 ;;  f1              3    0[COMRAM] float 
 13538 ;;  f2              3    3[COMRAM] float 
 13539 ;; Auto vars:     Size  Location     Type
 13540 ;;  quot            4    9[COMRAM] unsigned long 
 13541 ;;  exp1            1   14[COMRAM] unsigned char 
 13542 ;;  cntr            1   13[COMRAM] unsigned char 
 13543 ;; Return value:  Size  Location     Type
 13544 ;;                  4    0[COMRAM] unsigned long 
 13545 ;; Registers used:
 13546 ;;		wreg, status,2, status,0
 13547 ;; Tracked objects:
 13548 ;;		On entry : 0/0
 13549 ;;		On exit  : 0/0
 13550 ;;		Unchanged: 0/0
 13551 ;; Data sizes:     COMRAM   BANK0   BANK1   BANK2   BANK3   BANK4   BANK5   BANK6   BANK7   BANK8   BANK9  BANK10  BANK1
      +1  BANK12  BANK13  BANK14
 13552 ;;      Params:         6       0       0       0       0       0       0       0       0       0       0       0       
      +0       0       0       0
 13553 ;;      Locals:         6       0       0       0       0       0       0       0       0       0       0       0       
      +0       0       0       0
 13554 ;;      Temps:          3       0       0       0       0       0       0       0       0       0       0       0       
      +0       0       0       0
 13555 ;;      Totals:        15       0       0       0       0       0       0       0       0       0       0       0       
      +0       0       0       0
 13556 ;;Total ram usage:       15 bytes
 13557 ;; Hardware stack levels used:    1
 13558 ;; This function calls:
 13559 ;;		Nothing
 13560 ;; This function is called by:
 13561 ;;		_sprintf
 13562 ;; This function uses a non-reentrant model
 13563 ;;
 13564                           
 13565                           	psect	text32
 13566  00C7BC                     __ptext32:
 13567                           	opt stack 0
 13568  00C7BC                     __tdiv_to_l_:
 13569                           	opt stack 28
 13570                           
 13571                           ;incstack = 0
 13572  00C7BC  C003  F007         	movff	__tdiv_to_l_@f1+2,??__tdiv_to_l_
 13573  00C7C0  6A08               	clrf	(??__tdiv_to_l_+1)& (0+255),c
 13574  00C7C2  6A09               	clrf	(??__tdiv_to_l_+2)& (0+255),c
 13575  00C7C4  3402               	rlcf	__tdiv_to_l_@f1+1,w,c
 13576  00C7C6  3607               	rlcf	??__tdiv_to_l_& (0+255),f,c
 13577  00C7C8  E301               	bnc	u4501
 13578  00C7CA  8008               	bsf	(??__tdiv_to_l_+1)& (0+255),0,c
 13579  00C7CC                     u4501:
 13580  00C7CC  5007               	movf	??__tdiv_to_l_,w,c
 13581  00C7CE  6E0F               	movwf	__tdiv_to_l_@exp1,c
 13582  00C7D0  500F               	movf	__tdiv_to_l_@exp1,w,c
 13583  00C7D2  A4D8               	btfss	status,2,c
 13584  00C7D4  D009               	goto	l4120
 13585  00C7D6  0E00               	movlw	0
 13586  00C7D8  6E01               	movwf	?__tdiv_to_l_,c
 13587  00C7DA  0E00               	movlw	0
 13588  00C7DC  6E02               	movwf	?__tdiv_to_l_+1,c
 13589  00C7DE  0E00               	movlw	0
 13590  00C7E0  6E03               	movwf	?__tdiv_to_l_+2,c
 13591  00C7E2  0E00               	movlw	0
 13592  00C7E4  6E04               	movwf	?__tdiv_to_l_+3,c
 13593  00C7E6  0012               	return	
 13594  00C7E8                     l4120:
 13595  00C7E8  C006  F007         	movff	__tdiv_to_l_@f2+2,??__tdiv_to_l_
 13596  00C7EC  6A08               	clrf	(??__tdiv_to_l_+1)& (0+255),c
 13597  00C7EE  6A09               	clrf	(??__tdiv_to_l_+2)& (0+255),c
 13598  00C7F0  3405               	rlcf	__tdiv_to_l_@f2+1,w,c
 13599  00C7F2  3607               	rlcf	??__tdiv_to_l_& (0+255),f,c
 13600  00C7F4  E301               	bnc	u4521
 13601  00C7F6  8008               	bsf	(??__tdiv_to_l_+1)& (0+255),0,c
 13602  00C7F8                     u4521:
 13603  00C7F8  5007               	movf	??__tdiv_to_l_,w,c
 13604  00C7FA  6E0E               	movwf	__tdiv_to_l_@cntr,c
 13605  00C7FC  500E               	movf	__tdiv_to_l_@cntr,w,c
 13606  00C7FE  A4D8               	btfss	status,2,c
 13607  00C800  D009               	goto	l4126
 13608  00C802  0E00               	movlw	0
 13609  00C804  6E01               	movwf	?__tdiv_to_l_,c
 13610  00C806  0E00               	movlw	0
 13611  00C808  6E02               	movwf	?__tdiv_to_l_+1,c
 13612  00C80A  0E00               	movlw	0
 13613  00C80C  6E03               	movwf	?__tdiv_to_l_+2,c
 13614  00C80E  0E00               	movlw	0
 13615  00C810  6E04               	movwf	?__tdiv_to_l_+3,c
 13616  00C812  0012               	return	
 13617  00C814                     l4126:
 13618  00C814  8E02               	bsf	__tdiv_to_l_@f1+1,7,c
 13619  00C816  0EFF               	movlw	255
 13620  00C818  1601               	andwf	__tdiv_to_l_@f1,f,c
 13621  00C81A  0EFF               	movlw	255
 13622  00C81C  1602               	andwf	__tdiv_to_l_@f1+1,f,c
 13623  00C81E  0E00               	movlw	0
 13624  00C820  1603               	andwf	__tdiv_to_l_@f1+2,f,c
 13625  00C822  8E05               	bsf	__tdiv_to_l_@f2+1,7,c
 13626  00C824  0EFF               	movlw	255
 13627  00C826  1604               	andwf	__tdiv_to_l_@f2,f,c
 13628  00C828  0EFF               	movlw	255
 13629  00C82A  1605               	andwf	__tdiv_to_l_@f2+1,f,c
 13630  00C82C  0E00               	movlw	0
 13631  00C82E  1606               	andwf	__tdiv_to_l_@f2+2,f,c
 13632  00C830  0E00               	movlw	0
 13633  00C832  6E0A               	movwf	__tdiv_to_l_@quot,c
 13634  00C834  0E00               	movlw	0
 13635  00C836  6E0B               	movwf	__tdiv_to_l_@quot+1,c
 13636  00C838  0E00               	movlw	0
 13637  00C83A  6E0C               	movwf	__tdiv_to_l_@quot+2,c
 13638  00C83C  0E00               	movlw	0
 13639  00C83E  6E0D               	movwf	__tdiv_to_l_@quot+3,c
 13640  00C840  0E7F               	movlw	127
 13641  00C842  5E0F               	subwf	__tdiv_to_l_@exp1,f,c
 13642  00C844  500E               	movf	__tdiv_to_l_@cntr,w,c
 13643  00C846  0F98               	addlw	152
 13644  00C848  5E0F               	subwf	__tdiv_to_l_@exp1,f,c
 13645  00C84A  0E18               	movlw	24
 13646  00C84C  6E0E               	movwf	__tdiv_to_l_@cntr,c
 13647  00C84E                     l1141:
 13648  00C84E  90D8               	bcf	status,0,c
 13649  00C850  360A               	rlcf	__tdiv_to_l_@quot,f,c
 13650  00C852  360B               	rlcf	__tdiv_to_l_@quot+1,f,c
 13651  00C854  360C               	rlcf	__tdiv_to_l_@quot+2,f,c
 13652  00C856  360D               	rlcf	__tdiv_to_l_@quot+3,f,c
 13653  00C858  5004               	movf	__tdiv_to_l_@f2,w,c
 13654  00C85A  5C01               	subwf	__tdiv_to_l_@f1,w,c
 13655  00C85C  5005               	movf	__tdiv_to_l_@f2+1,w,c
 13656  00C85E  5802               	subwfb	__tdiv_to_l_@f1+1,w,c
 13657  00C860  5006               	movf	__tdiv_to_l_@f2+2,w,c
 13658  00C862  5803               	subwfb	__tdiv_to_l_@f1+2,w,c
 13659  00C864  A0D8               	btfss	status,0,c
 13660  00C866  D007               	goto	l1142
 13661  00C868  5004               	movf	__tdiv_to_l_@f2,w,c
 13662  00C86A  5E01               	subwf	__tdiv_to_l_@f1,f,c
 13663  00C86C  5005               	movf	__tdiv_to_l_@f2+1,w,c
 13664  00C86E  5A02               	subwfb	__tdiv_to_l_@f1+1,f,c
 13665  00C870  5006               	movf	__tdiv_to_l_@f2+2,w,c
 13666  00C872  5A03               	subwfb	__tdiv_to_l_@f1+2,f,c
 13667  00C874  800A               	bsf	__tdiv_to_l_@quot,0,c
 13668  00C876                     l1142:
 13669  00C876  90D8               	bcf	status,0,c
 13670  00C878  3601               	rlcf	__tdiv_to_l_@f1,f,c
 13671  00C87A  3602               	rlcf	__tdiv_to_l_@f1+1,f,c
 13672  00C87C  3603               	rlcf	__tdiv_to_l_@f1+2,f,c
 13673  00C87E  2E0E               	decfsz	__tdiv_to_l_@cntr,f,c
 13674  00C880  D7E6               	goto	l1141
 13675  00C882  D000               	goto	l4148
 13676  00C884                     l4148:
 13677  00C884  AE0F               	btfss	__tdiv_to_l_@exp1,7,c
 13678  00C886  D017               	goto	l4160
 13679  00C888  500F               	movf	__tdiv_to_l_@exp1,w,c
 13680  00C88A  0A80               	xorlw	128
 13681  00C88C  0F97               	addlw	151
 13682  00C88E  B0D8               	btfsc	status,0,c
 13683  00C890  D00A               	goto	l4156
 13684  00C892  0E00               	movlw	0
 13685  00C894  6E01               	movwf	?__tdiv_to_l_,c
 13686  00C896  0E00               	movlw	0
 13687  00C898  6E02               	movwf	?__tdiv_to_l_+1,c
 13688  00C89A  0E00               	movlw	0
 13689  00C89C  6E03               	movwf	?__tdiv_to_l_+2,c
 13690  00C89E  0E00               	movlw	0
 13691  00C8A0  6E04               	movwf	?__tdiv_to_l_+3,c
 13692  00C8A2  0012               	return	
 13693  00C8A4  D000               	goto	l4156
 13694  00C8A6                     l4156:
 13695  00C8A6  90D8               	bcf	status,0,c
 13696  00C8A8  320D               	rrcf	__tdiv_to_l_@quot+3,f,c
 13697  00C8AA  320C               	rrcf	__tdiv_to_l_@quot+2,f,c
 13698  00C8AC  320B               	rrcf	__tdiv_to_l_@quot+1,f,c
 13699  00C8AE  320A               	rrcf	__tdiv_to_l_@quot,f,c
 13700  00C8B0  3E0F               	incfsz	__tdiv_to_l_@exp1,f,c
 13701  00C8B2  D7F9               	goto	l4156
 13702  00C8B4  D017               	goto	l1148
 13703  00C8B6                     l4160:
 13704  00C8B6  0E17               	movlw	23
 13705  00C8B8  640F               	cpfsgt	__tdiv_to_l_@exp1,c
 13706  00C8BA  D011               	goto	l4168
 13707  00C8BC  0E00               	movlw	0
 13708  00C8BE  6E01               	movwf	?__tdiv_to_l_,c
 13709  00C8C0  0E00               	movlw	0
 13710  00C8C2  6E02               	movwf	?__tdiv_to_l_+1,c
 13711  00C8C4  0E00               	movlw	0
 13712  00C8C6  6E03               	movwf	?__tdiv_to_l_+2,c
 13713  00C8C8  0E00               	movlw	0
 13714  00C8CA  6E04               	movwf	?__tdiv_to_l_+3,c
 13715  00C8CC  0012               	return	
 13716  00C8CE  D007               	goto	l4168
 13717  00C8D0                     l4166:
 13718  00C8D0  90D8               	bcf	status,0,c
 13719  00C8D2  360A               	rlcf	__tdiv_to_l_@quot,f,c
 13720  00C8D4  360B               	rlcf	__tdiv_to_l_@quot+1,f,c
 13721  00C8D6  360C               	rlcf	__tdiv_to_l_@quot+2,f,c
 13722  00C8D8  360D               	rlcf	__tdiv_to_l_@quot+3,f,c
 13723  00C8DA  060F               	decf	__tdiv_to_l_@exp1,f,c
 13724  00C8DC  D000               	goto	l4168
 13725  00C8DE                     l4168:
 13726  00C8DE  500F               	movf	__tdiv_to_l_@exp1,w,c
 13727  00C8E0  A4D8               	btfss	status,2,c
 13728  00C8E2  D7F6               	goto	l4166
 13729  00C8E4                     l1148:
 13730  00C8E4  C00A  F001         	movff	__tdiv_to_l_@quot,?__tdiv_to_l_
 13731  00C8E8  C00B  F002         	movff	__tdiv_to_l_@quot+1,?__tdiv_to_l_+1
 13732  00C8EC  C00C  F003         	movff	__tdiv_to_l_@quot+2,?__tdiv_to_l_+2
 13733  00C8F0  C00D  F004         	movff	__tdiv_to_l_@quot+3,?__tdiv_to_l_+3
 13734  00C8F4  0012               	return		;funcret
 13735  00C8F6                     __end_of__tdiv_to_l_:
 13736                           	opt stack 0
 13737                           tblptru	equ	0xFF8
 13738                           tblptrh	equ	0xFF7
 13739                           tblptrl	equ	0xFF6
 13740                           tablat	equ	0xFF5
 13741                           prodh	equ	0xFF4
 13742                           prodl	equ	0xFF3
 13743                           intcon	equ	0xFF2
 13744                           indf0	equ	0xFEF
 13745                           postinc0	equ	0xFEE
 13746                           fsr0h	equ	0xFEA
 13747                           fsr0l	equ	0xFE9
 13748                           wreg	equ	0xFE8
 13749                           postdec1	equ	0xFE5
 13750                           fsr1l	equ	0xFE1
 13751                           indf2	equ	0xFDF
 13752                           postinc2	equ	0xFDE
 13753                           postdec2	equ	0xFDD
 13754                           fsr2h	equ	0xFDA
 13755                           fsr2l	equ	0xFD9
 13756                           status	equ	0xFD8
 13757                           
 13758 ;; *************** function __div_to_l_ *****************
 13759 ;; Defined at:
 13760 ;;		line 60 in file "C:\Program Files (x86)\Microchip\xc8\v1.34\sources\common\fldivl.c"
 13761 ;; Parameters:    Size  Location     Type
 13762 ;;  f1              3    0[COMRAM] unsigned long 
 13763 ;;  f2              3    3[COMRAM] unsigned long 
 13764 ;; Auto vars:     Size  Location     Type
 13765 ;;  quot            4    6[COMRAM] unsigned long 
 13766 ;;  exp1            1   11[COMRAM] unsigned char 
 13767 ;;  cntr            1   10[COMRAM] unsigned char 
 13768 ;; Return value:  Size  Location     Type
 13769 ;;                  4    0[COMRAM] unsigned long 
 13770 ;; Registers used:
 13771 ;;		wreg, status,2, status,0
 13772 ;; Tracked objects:
 13773 ;;		On entry : 0/0
 13774 ;;		On exit  : 0/0
 13775 ;;		Unchanged: 0/0
 13776 ;; Data sizes:     COMRAM   BANK0   BANK1   BANK2   BANK3   BANK4   BANK5   BANK6   BANK7   BANK8   BANK9  BANK10  BANK1
      +1  BANK12  BANK13  BANK14
 13777 ;;      Params:         6       0       0       0       0       0       0       0       0       0       0       0       
      +0       0       0       0
 13778 ;;      Locals:         6       0       0       0       0       0       0       0       0       0       0       0       
      +0       0       0       0
 13779 ;;      Temps:          0       0       0       0       0       0       0       0       0       0       0       0       
      +0       0       0       0
 13780 ;;      Totals:        12       0       0       0       0       0       0       0       0       0       0       0       
      +0       0       0       0
 13781 ;;Total ram usage:       12 bytes
 13782 ;; Hardware stack levels used:    1
 13783 ;; This function calls:
 13784 ;;		Nothing
 13785 ;; This function is called by:
 13786 ;;		_sprintf
 13787 ;; This function uses a non-reentrant model
 13788 ;;
 13789                           
 13790                           	psect	text33
 13791  00C688                     __ptext33:
 13792                           	opt stack 0
 13793  00C688                     __div_to_l_:
 13794                           	opt stack 28
 13795                           
 13796                           ;incstack = 0
 13797  00C688  3403               	rlcf	__div_to_l_@f1+2,w,c
 13798  00C68A  3404               	rlcf	__div_to_l_@f1+3,w,c
 13799  00C68C  6E0C               	movwf	__div_to_l_@exp1,c
 13800  00C68E  500C               	movf	__div_to_l_@exp1,w,c
 13801  00C690  A4D8               	btfss	status,2,c
 13802  00C692  D009               	goto	l4176
 13803  00C694  0E00               	movlw	0
 13804  00C696  6E01               	movwf	?__div_to_l_,c
 13805  00C698  0E00               	movlw	0
 13806  00C69A  6E02               	movwf	?__div_to_l_+1,c
 13807  00C69C  0E00               	movlw	0
 13808  00C69E  6E03               	movwf	?__div_to_l_+2,c
 13809  00C6A0  0E00               	movlw	0
 13810  00C6A2  6E04               	movwf	?__div_to_l_+3,c
 13811  00C6A4  0012               	return	
 13812  00C6A6                     l4176:
 13813  00C6A6  3406               	rlcf	__div_to_l_@f2+2,w,c
 13814  00C6A8  3407               	rlcf	__div_to_l_@f2+3,w,c
 13815  00C6AA  6E0B               	movwf	__div_to_l_@cntr,c
 13816  00C6AC  500B               	movf	__div_to_l_@cntr,w,c
 13817  00C6AE  A4D8               	btfss	status,2,c
 13818  00C6B0  D009               	goto	l4182
 13819  00C6B2  0E00               	movlw	0
 13820  00C6B4  6E01               	movwf	?__div_to_l_,c
 13821  00C6B6  0E00               	movlw	0
 13822  00C6B8  6E02               	movwf	?__div_to_l_+1,c
 13823  00C6BA  0E00               	movlw	0
 13824  00C6BC  6E03               	movwf	?__div_to_l_+2,c
 13825  00C6BE  0E00               	movlw	0
 13826  00C6C0  6E04               	movwf	?__div_to_l_+3,c
 13827  00C6C2  0012               	return	
 13828  00C6C4                     l4182:
 13829  00C6C4  8E03               	bsf	__div_to_l_@f1+2,7,c
 13830  00C6C6  0EFF               	movlw	255
 13831  00C6C8  1601               	andwf	__div_to_l_@f1,f,c
 13832  00C6CA  0EFF               	movlw	255
 13833  00C6CC  1602               	andwf	__div_to_l_@f1+1,f,c
 13834  00C6CE  0EFF               	movlw	255
 13835  00C6D0  1603               	andwf	__div_to_l_@f1+2,f,c
 13836  00C6D2  0E00               	movlw	0
 13837  00C6D4  1604               	andwf	__div_to_l_@f1+3,f,c
 13838  00C6D6  8E06               	bsf	__div_to_l_@f2+2,7,c
 13839  00C6D8  0EFF               	movlw	255
 13840  00C6DA  1604               	andwf	__div_to_l_@f2,f,c
 13841  00C6DC  0EFF               	movlw	255
 13842  00C6DE  1605               	andwf	__div_to_l_@f2+1,f,c
 13843  00C6E0  0EFF               	movlw	255
 13844  00C6E2  1606               	andwf	__div_to_l_@f2+2,f,c
 13845  00C6E4  0E00               	movlw	0
 13846  00C6E6  1607               	andwf	__div_to_l_@f2+3,f,c
 13847  00C6E8  0E00               	movlw	0
 13848  00C6EA  6E07               	movwf	__div_to_l_@quot,c
 13849  00C6EC  0E00               	movlw	0
 13850  00C6EE  6E08               	movwf	__div_to_l_@quot+1,c
 13851  00C6F0  0E00               	movlw	0
 13852  00C6F2  6E09               	movwf	__div_to_l_@quot+2,c
 13853  00C6F4  0E00               	movlw	0
 13854  00C6F6  6E0A               	movwf	__div_to_l_@quot+3,c
 13855  00C6F8  0E7F               	movlw	127
 13856  00C6FA  5E0C               	subwf	__div_to_l_@exp1,f,c
 13857  00C6FC  500B               	movf	__div_to_l_@cntr,w,c
 13858  00C6FE  0FA0               	addlw	160
 13859  00C700  5E0C               	subwf	__div_to_l_@exp1,f,c
 13860  00C702  0E20               	movlw	32
 13861  00C704  6E0B               	movwf	__div_to_l_@cntr,c
 13862  00C706  D000               	goto	l4196
 13863  00C708                     l4196:
 13864  00C708  90D8               	bcf	status,0,c
 13865  00C70A  3607               	rlcf	__div_to_l_@quot,f,c
 13866  00C70C  3608               	rlcf	__div_to_l_@quot+1,f,c
 13867  00C70E  3609               	rlcf	__div_to_l_@quot+2,f,c
 13868  00C710  360A               	rlcf	__div_to_l_@quot+3,f,c
 13869  00C712  5004               	movf	__div_to_l_@f2,w,c
 13870  00C714  5C01               	subwf	__div_to_l_@f1,w,c
 13871  00C716  5005               	movf	__div_to_l_@f2+1,w,c
 13872  00C718  5802               	subwfb	__div_to_l_@f1+1,w,c
 13873  00C71A  5006               	movf	__div_to_l_@f2+2,w,c
 13874  00C71C  5803               	subwfb	__div_to_l_@f1+2,w,c
 13875  00C71E  5007               	movf	__div_to_l_@f2+3,w,c
 13876  00C720  5804               	subwfb	__div_to_l_@f1+3,w,c
 13877  00C722  A0D8               	btfss	status,0,c
 13878  00C724  D00A               	goto	l4204
 13879  00C726  5004               	movf	__div_to_l_@f2,w,c
 13880  00C728  5E01               	subwf	__div_to_l_@f1,f,c
 13881  00C72A  5005               	movf	__div_to_l_@f2+1,w,c
 13882  00C72C  5A02               	subwfb	__div_to_l_@f1+1,f,c
 13883  00C72E  5006               	movf	__div_to_l_@f2+2,w,c
 13884  00C730  5A03               	subwfb	__div_to_l_@f1+2,f,c
 13885  00C732  5007               	movf	__div_to_l_@f2+3,w,c
 13886  00C734  5A04               	subwfb	__div_to_l_@f1+3,f,c
 13887  00C736  8007               	bsf	__div_to_l_@quot,0,c
 13888  00C738  D000               	goto	l4204
 13889  00C73A                     l4204:
 13890  00C73A  90D8               	bcf	status,0,c
 13891  00C73C  3601               	rlcf	__div_to_l_@f1,f,c
 13892  00C73E  3602               	rlcf	__div_to_l_@f1+1,f,c
 13893  00C740  3603               	rlcf	__div_to_l_@f1+2,f,c
 13894  00C742  3604               	rlcf	__div_to_l_@f1+3,f,c
 13895  00C744  2E0B               	decfsz	__div_to_l_@cntr,f,c
 13896  00C746  D7E0               	goto	l4196
 13897  00C748  D000               	goto	l4208
 13898  00C74A                     l4208:
 13899  00C74A  AE0C               	btfss	__div_to_l_@exp1,7,c
 13900  00C74C  D017               	goto	l4220
 13901  00C74E  500C               	movf	__div_to_l_@exp1,w,c
 13902  00C750  0A80               	xorlw	128
 13903  00C752  0F9F               	addlw	159
 13904  00C754  B0D8               	btfsc	status,0,c
 13905  00C756  D00A               	goto	l4216
 13906  00C758  0E00               	movlw	0
 13907  00C75A  6E01               	movwf	?__div_to_l_,c
 13908  00C75C  0E00               	movlw	0
 13909  00C75E  6E02               	movwf	?__div_to_l_+1,c
 13910  00C760  0E00               	movlw	0
 13911  00C762  6E03               	movwf	?__div_to_l_+2,c
 13912  00C764  0E00               	movlw	0
 13913  00C766  6E04               	movwf	?__div_to_l_+3,c
 13914  00C768  0012               	return	
 13915  00C76A  D000               	goto	l4216
 13916  00C76C                     l4216:
 13917  00C76C  90D8               	bcf	status,0,c
 13918  00C76E  320A               	rrcf	__div_to_l_@quot+3,f,c
 13919  00C770  3209               	rrcf	__div_to_l_@quot+2,f,c
 13920  00C772  3208               	rrcf	__div_to_l_@quot+1,f,c
 13921  00C774  3207               	rrcf	__div_to_l_@quot,f,c
 13922  00C776  3E0C               	incfsz	__div_to_l_@exp1,f,c
 13923  00C778  D7F9               	goto	l4216
 13924  00C77A  D017               	goto	l1027
 13925  00C77C                     l4220:
 13926  00C77C  0E1F               	movlw	31
 13927  00C77E  640C               	cpfsgt	__div_to_l_@exp1,c
 13928  00C780  D011               	goto	l4228
 13929  00C782  0E00               	movlw	0
 13930  00C784  6E01               	movwf	?__div_to_l_,c
 13931  00C786  0E00               	movlw	0
 13932  00C788  6E02               	movwf	?__div_to_l_+1,c
 13933  00C78A  0E00               	movlw	0
 13934  00C78C  6E03               	movwf	?__div_to_l_+2,c
 13935  00C78E  0E00               	movlw	0
 13936  00C790  6E04               	movwf	?__div_to_l_+3,c
 13937  00C792  0012               	return	
 13938  00C794  D007               	goto	l4228
 13939  00C796                     l4226:
 13940  00C796  90D8               	bcf	status,0,c
 13941  00C798  3607               	rlcf	__div_to_l_@quot,f,c
 13942  00C79A  3608               	rlcf	__div_to_l_@quot+1,f,c
 13943  00C79C  3609               	rlcf	__div_to_l_@quot+2,f,c
 13944  00C79E  360A               	rlcf	__div_to_l_@quot+3,f,c
 13945  00C7A0  060C               	decf	__div_to_l_@exp1,f,c
 13946  00C7A2  D000               	goto	l4228
 13947  00C7A4                     l4228:
 13948  00C7A4  500C               	movf	__div_to_l_@exp1,w,c
 13949  00C7A6  A4D8               	btfss	status,2,c
 13950  00C7A8  D7F6               	goto	l4226
 13951  00C7AA                     l1027:
 13952  00C7AA  C007  F001         	movff	__div_to_l_@quot,?__div_to_l_
 13953  00C7AE  C008  F002         	movff	__div_to_l_@quot+1,?__div_to_l_+1
 13954  00C7B2  C009  F003         	movff	__div_to_l_@quot+2,?__div_to_l_+2
 13955  00C7B6  C00A  F004         	movff	__div_to_l_@quot+3,?__div_to_l_+3
 13956  00C7BA  0012               	return		;funcret
 13957  00C7BC                     __end_of__div_to_l_:
 13958                           	opt stack 0
 13959                           tblptru	equ	0xFF8
 13960                           tblptrh	equ	0xFF7
 13961                           tblptrl	equ	0xFF6
 13962                           tablat	equ	0xFF5
 13963                           prodh	equ	0xFF4
 13964                           prodl	equ	0xFF3
 13965                           intcon	equ	0xFF2
 13966                           indf0	equ	0xFEF
 13967                           postinc0	equ	0xFEE
 13968                           fsr0h	equ	0xFEA
 13969                           fsr0l	equ	0xFE9
 13970                           wreg	equ	0xFE8
 13971                           postdec1	equ	0xFE5
 13972                           fsr1l	equ	0xFE1
 13973                           indf2	equ	0xFDF
 13974                           postinc2	equ	0xFDE
 13975                           postdec2	equ	0xFDD
 13976                           fsr2h	equ	0xFDA
 13977                           fsr2l	equ	0xFD9
 13978                           status	equ	0xFD8
 13979                           
 13980 ;; *************** function ___lltoft *****************
 13981 ;; Defined at:
 13982 ;;		line 35 in file "C:\Program Files (x86)\Microchip\xc8\v1.34\sources\common\lltoft.c"
 13983 ;; Parameters:    Size  Location     Type
 13984 ;;  c               4    8[COMRAM] unsigned long 
 13985 ;; Auto vars:     Size  Location     Type
 13986 ;;  exp             1   16[COMRAM] unsigned char 
 13987 ;; Return value:  Size  Location     Type
 13988 ;;                  3    8[COMRAM] float 
 13989 ;; Registers used:
 13990 ;;		wreg, status,2, status,0, cstack
 13991 ;; Tracked objects:
 13992 ;;		On entry : 0/0
 13993 ;;		On exit  : 0/0
 13994 ;;		Unchanged: 0/0
 13995 ;; Data sizes:     COMRAM   BANK0   BANK1   BANK2   BANK3   BANK4   BANK5   BANK6   BANK7   BANK8   BANK9  BANK10  BANK1
      +1  BANK12  BANK13  BANK14
 13996 ;;      Params:         4       0       0       0       0       0       0       0       0       0       0       0       
      +0       0       0       0
 13997 ;;      Locals:         1       0       0       0       0       0       0       0       0       0       0       0       
      +0       0       0       0
 13998 ;;      Temps:          4       0       0       0       0       0       0       0       0       0       0       0       
      +0       0       0       0
 13999 ;;      Totals:         9       0       0       0       0       0       0       0       0       0       0       0       
      +0       0       0       0
 14000 ;;Total ram usage:        9 bytes
 14001 ;; Hardware stack levels used:    1
 14002 ;; Hardware stack levels required when called:    1
 14003 ;; This function calls:
 14004 ;;		___ftpack
 14005 ;; This function is called by:
 14006 ;;		_sprintf
 14007 ;; This function uses a non-reentrant model
 14008 ;;
 14009                           
 14010                           	psect	text34
 14011  00B654                     __ptext34:
 14012                           	opt stack 0
 14013  00B654                     ___lltoft:
 14014                           	opt stack 27
 14015                           
 14016                           ;incstack = 0
 14017  00B654  0E8E               	movlw	142
 14018  00B656  6E11               	movwf	___lltoft@exp,c
 14019  00B658  D007               	goto	l4348
 14020  00B65A                     l4346:
 14021  00B65A  90D8               	bcf	status,0,c
 14022  00B65C  320C               	rrcf	___lltoft@c+3,f,c
 14023  00B65E  320B               	rrcf	___lltoft@c+2,f,c
 14024  00B660  320A               	rrcf	___lltoft@c+1,f,c
 14025  00B662  3209               	rrcf	___lltoft@c,f,c
 14026  00B664  2A11               	incf	___lltoft@exp,f,c
 14027  00B666  D000               	goto	l4348
 14028  00B668                     l4348:
 14029  00B668  0E00               	movlw	0
 14030  00B66A  1409               	andwf	___lltoft@c,w,c
 14031  00B66C  6E0D               	movwf	??___lltoft& (0+255),c
 14032  00B66E  0E00               	movlw	0
 14033  00B670  140A               	andwf	___lltoft@c+1,w,c
 14034  00B672  6E0E               	movwf	(??___lltoft+1)& (0+255),c
 14035  00B674  0E00               	movlw	0
 14036  00B676  140B               	andwf	___lltoft@c+2,w,c
 14037  00B678  6E0F               	movwf	(??___lltoft+2)& (0+255),c
 14038  00B67A  0EFF               	movlw	255
 14039  00B67C  140C               	andwf	___lltoft@c+3,w,c
 14040  00B67E  6E10               	movwf	(??___lltoft+3)& (0+255),c
 14041  00B680  500D               	movf	??___lltoft,w,c
 14042  00B682  100E               	iorwf	??___lltoft+1,w,c
 14043  00B684  100F               	iorwf	??___lltoft+2,w,c
 14044  00B686  1010               	iorwf	??___lltoft+3,w,c
 14045  00B688  A4D8               	btfss	status,2,c
 14046  00B68A  D7E7               	goto	l4346
 14047  00B68C  C009  F001         	movff	___lltoft@c,___ftpack@arg
 14048  00B690  C00A  F002         	movff	___lltoft@c+1,___ftpack@arg+1
 14049  00B694  C00B  F003         	movff	___lltoft@c+2,___ftpack@arg+2
 14050  00B698  C011  F004         	movff	___lltoft@exp,___ftpack@exp
 14051  00B69C  0E00               	movlw	0
 14052  00B69E  6E05               	movwf	___ftpack@sign,c
 14053  00B6A0  EC29  F05E         	call	___ftpack	;wreg free
 14054  00B6A4  C001  F009         	movff	?___ftpack,?___lltoft
 14055  00B6A8  C002  F00A         	movff	?___ftpack+1,?___lltoft+1
 14056  00B6AC  C003  F00B         	movff	?___ftpack+2,?___lltoft+2
 14057  00B6B0  0012               	return	
 14058  00B6B2  0012               	return		;funcret
 14059  00B6B4                     __end_of___lltoft:
 14060                           	opt stack 0
 14061                           tblptru	equ	0xFF8
 14062                           tblptrh	equ	0xFF7
 14063                           tblptrl	equ	0xFF6
 14064                           tablat	equ	0xFF5
 14065                           prodh	equ	0xFF4
 14066                           prodl	equ	0xFF3
 14067                           intcon	equ	0xFF2
 14068                           indf0	equ	0xFEF
 14069                           postinc0	equ	0xFEE
 14070                           fsr0h	equ	0xFEA
 14071                           fsr0l	equ	0xFE9
 14072                           wreg	equ	0xFE8
 14073                           postdec1	equ	0xFE5
 14074                           fsr1l	equ	0xFE1
 14075                           indf2	equ	0xFDF
 14076                           postinc2	equ	0xFDE
 14077                           postdec2	equ	0xFDD
 14078                           fsr2h	equ	0xFDA
 14079                           fsr2l	equ	0xFD9
 14080                           status	equ	0xFD8
 14081                           
 14082 ;; *************** function ___llmod *****************
 14083 ;; Defined at:
 14084 ;;		line 8 in file "C:\Program Files (x86)\Microchip\xc8\v1.34\sources\common\llmod.c"
 14085 ;; Parameters:    Size  Location     Type
 14086 ;;  dividend        4   13[COMRAM] unsigned long 
 14087 ;;  divisor         4   17[COMRAM] unsigned long 
 14088 ;; Auto vars:     Size  Location     Type
 14089 ;;  counter         1   21[COMRAM] unsigned char 
 14090 ;; Return value:  Size  Location     Type
 14091 ;;                  4   13[COMRAM] unsigned long 
 14092 ;; Registers used:
 14093 ;;		wreg, status,2, status,0
 14094 ;; Tracked objects:
 14095 ;;		On entry : 0/0
 14096 ;;		On exit  : 0/0
 14097 ;;		Unchanged: 0/0
 14098 ;; Data sizes:     COMRAM   BANK0   BANK1   BANK2   BANK3   BANK4   BANK5   BANK6   BANK7   BANK8   BANK9  BANK10  BANK1
      +1  BANK12  BANK13  BANK14
 14099 ;;      Params:         8       0       0       0       0       0       0       0       0       0       0       0       
      +0       0       0       0
 14100 ;;      Locals:         1       0       0       0       0       0       0       0       0       0       0       0       
      +0       0       0       0
 14101 ;;      Temps:          0       0       0       0       0       0       0       0       0       0       0       0       
      +0       0       0       0
 14102 ;;      Totals:         9       0       0       0       0       0       0       0       0       0       0       0       
      +0       0       0       0
 14103 ;;Total ram usage:        9 bytes
 14104 ;; Hardware stack levels used:    1
 14105 ;; This function calls:
 14106 ;;		Nothing
 14107 ;; This function is called by:
 14108 ;;		_sprintf
 14109 ;; This function uses a non-reentrant model
 14110 ;;
 14111                           
 14112                           	psect	text35
 14113  00B78C                     __ptext35:
 14114                           	opt stack 0
 14115  00B78C                     ___llmod:
 14116                           	opt stack 28
 14117                           
 14118                           ;incstack = 0
 14119  00B78C  5012               	movf	___llmod@divisor,w,c
 14120  00B78E  1013               	iorwf	___llmod@divisor+1,w,c
 14121  00B790  1014               	iorwf	___llmod@divisor+2,w,c
 14122  00B792  1015               	iorwf	___llmod@divisor+3,w,c
 14123  00B794  B4D8               	btfsc	status,2,c
 14124  00B796  D029               	goto	l1238
 14125  00B798  0E01               	movlw	1
 14126  00B79A  6E16               	movwf	___llmod@counter,c
 14127  00B79C  D007               	goto	l4334
 14128  00B79E                     l4332:
 14129  00B79E  90D8               	bcf	status,0,c
 14130  00B7A0  3612               	rlcf	___llmod@divisor,f,c
 14131  00B7A2  3613               	rlcf	___llmod@divisor+1,f,c
 14132  00B7A4  3614               	rlcf	___llmod@divisor+2,f,c
 14133  00B7A6  3615               	rlcf	___llmod@divisor+3,f,c
 14134  00B7A8  2A16               	incf	___llmod@counter,f,c
 14135  00B7AA  D000               	goto	l4334
 14136  00B7AC                     l4334:
 14137  00B7AC  BE15               	btfsc	___llmod@divisor+3,7,c
 14138  00B7AE  D002               	goto	l4336
 14139  00B7B0  D7F6               	goto	l4332
 14140  00B7B2  D000               	goto	l4336
 14141  00B7B4                     l4336:
 14142  00B7B4  5012               	movf	___llmod@divisor,w,c
 14143  00B7B6  5C0E               	subwf	___llmod@dividend,w,c
 14144  00B7B8  5013               	movf	___llmod@divisor+1,w,c
 14145  00B7BA  580F               	subwfb	___llmod@dividend+1,w,c
 14146  00B7BC  5014               	movf	___llmod@divisor+2,w,c
 14147  00B7BE  5810               	subwfb	___llmod@dividend+2,w,c
 14148  00B7C0  5015               	movf	___llmod@divisor+3,w,c
 14149  00B7C2  5811               	subwfb	___llmod@dividend+3,w,c
 14150  00B7C4  A0D8               	btfss	status,0,c
 14151  00B7C6  D009               	goto	l4340
 14152  00B7C8  5012               	movf	___llmod@divisor,w,c
 14153  00B7CA  5E0E               	subwf	___llmod@dividend,f,c
 14154  00B7CC  5013               	movf	___llmod@divisor+1,w,c
 14155  00B7CE  5A0F               	subwfb	___llmod@dividend+1,f,c
 14156  00B7D0  5014               	movf	___llmod@divisor+2,w,c
 14157  00B7D2  5A10               	subwfb	___llmod@dividend+2,f,c
 14158  00B7D4  5015               	movf	___llmod@divisor+3,w,c
 14159  00B7D6  5A11               	subwfb	___llmod@dividend+3,f,c
 14160  00B7D8  D000               	goto	l4340
 14161  00B7DA                     l4340:
 14162  00B7DA  90D8               	bcf	status,0,c
 14163  00B7DC  3215               	rrcf	___llmod@divisor+3,f,c
 14164  00B7DE  3214               	rrcf	___llmod@divisor+2,f,c
 14165  00B7E0  3213               	rrcf	___llmod@divisor+1,f,c
 14166  00B7E2  3212               	rrcf	___llmod@divisor,f,c
 14167  00B7E4  2E16               	decfsz	___llmod@counter,f,c
 14168  00B7E6  D7E6               	goto	l4336
 14169  00B7E8  D000               	goto	l1238
 14170  00B7EA                     l1238:
 14171  00B7EA  C00E  F00E         	movff	___llmod@dividend,?___llmod
 14172  00B7EE  C00F  F00F         	movff	___llmod@dividend+1,?___llmod+1
 14173  00B7F2  C010  F010         	movff	___llmod@dividend+2,?___llmod+2
 14174  00B7F6  C011  F011         	movff	___llmod@dividend+3,?___llmod+3
 14175  00B7FA  0012               	return		;funcret
 14176  00B7FC                     __end_of___llmod:
 14177                           	opt stack 0
 14178                           tblptru	equ	0xFF8
 14179                           tblptrh	equ	0xFF7
 14180                           tblptrl	equ	0xFF6
 14181                           tablat	equ	0xFF5
 14182                           prodh	equ	0xFF4
 14183                           prodl	equ	0xFF3
 14184                           intcon	equ	0xFF2
 14185                           indf0	equ	0xFEF
 14186                           postinc0	equ	0xFEE
 14187                           fsr0h	equ	0xFEA
 14188                           fsr0l	equ	0xFE9
 14189                           wreg	equ	0xFE8
 14190                           postdec1	equ	0xFE5
 14191                           fsr1l	equ	0xFE1
 14192                           indf2	equ	0xFDF
 14193                           postinc2	equ	0xFDE
 14194                           postdec2	equ	0xFDD
 14195                           fsr2h	equ	0xFDA
 14196                           fsr2l	equ	0xFD9
 14197                           status	equ	0xFD8
 14198                           
 14199 ;; *************** function ___lldiv *****************
 14200 ;; Defined at:
 14201 ;;		line 8 in file "C:\Program Files (x86)\Microchip\xc8\v1.34\sources\common\lldiv.c"
 14202 ;; Parameters:    Size  Location     Type
 14203 ;;  dividend        4    0[COMRAM] unsigned long 
 14204 ;;  divisor         4    4[COMRAM] unsigned long 
 14205 ;; Auto vars:     Size  Location     Type
 14206 ;;  quotient        4    8[COMRAM] unsigned long 
 14207 ;;  counter         1   12[COMRAM] unsigned char 
 14208 ;; Return value:  Size  Location     Type
 14209 ;;                  4    0[COMRAM] unsigned long 
 14210 ;; Registers used:
 14211 ;;		wreg, status,2, status,0
 14212 ;; Tracked objects:
 14213 ;;		On entry : 0/0
 14214 ;;		On exit  : 0/0
 14215 ;;		Unchanged: 0/0
 14216 ;; Data sizes:     COMRAM   BANK0   BANK1   BANK2   BANK3   BANK4   BANK5   BANK6   BANK7   BANK8   BANK9  BANK10  BANK1
      +1  BANK12  BANK13  BANK14
 14217 ;;      Params:         8       0       0       0       0       0       0       0       0       0       0       0       
      +0       0       0       0
 14218 ;;      Locals:         5       0       0       0       0       0       0       0       0       0       0       0       
      +0       0       0       0
 14219 ;;      Temps:          0       0       0       0       0       0       0       0       0       0       0       0       
      +0       0       0       0
 14220 ;;      Totals:        13       0       0       0       0       0       0       0       0       0       0       0       
      +0       0       0       0
 14221 ;;Total ram usage:       13 bytes
 14222 ;; Hardware stack levels used:    1
 14223 ;; This function calls:
 14224 ;;		Nothing
 14225 ;; This function is called by:
 14226 ;;		_sprintf
 14227 ;; This function uses a non-reentrant model
 14228 ;;
 14229                           
 14230                           	psect	text36
 14231  00B978                     __ptext36:
 14232                           	opt stack 0
 14233  00B978                     ___lldiv:
 14234                           	opt stack 28
 14235                           
 14236                           ;incstack = 0
 14237  00B978  0E00               	movlw	0
 14238  00B97A  6E09               	movwf	___lldiv@quotient,c
 14239  00B97C  0E00               	movlw	0
 14240  00B97E  6E0A               	movwf	___lldiv@quotient+1,c
 14241  00B980  0E00               	movlw	0
 14242  00B982  6E0B               	movwf	___lldiv@quotient+2,c
 14243  00B984  0E00               	movlw	0
 14244  00B986  6E0C               	movwf	___lldiv@quotient+3,c
 14245  00B988  5005               	movf	___lldiv@divisor,w,c
 14246  00B98A  1006               	iorwf	___lldiv@divisor+1,w,c
 14247  00B98C  1007               	iorwf	___lldiv@divisor+2,w,c
 14248  00B98E  1008               	iorwf	___lldiv@divisor+3,w,c
 14249  00B990  B4D8               	btfsc	status,2,c
 14250  00B992  D02F               	goto	l1228
 14251  00B994  0E01               	movlw	1
 14252  00B996  6E0D               	movwf	___lldiv@counter,c
 14253  00B998  D007               	goto	l4314
 14254  00B99A                     l4312:
 14255  00B99A  90D8               	bcf	status,0,c
 14256  00B99C  3605               	rlcf	___lldiv@divisor,f,c
 14257  00B99E  3606               	rlcf	___lldiv@divisor+1,f,c
 14258  00B9A0  3607               	rlcf	___lldiv@divisor+2,f,c
 14259  00B9A2  3608               	rlcf	___lldiv@divisor+3,f,c
 14260  00B9A4  2A0D               	incf	___lldiv@counter,f,c
 14261  00B9A6  D000               	goto	l4314
 14262  00B9A8                     l4314:
 14263  00B9A8  BE08               	btfsc	___lldiv@divisor+3,7,c
 14264  00B9AA  D002               	goto	l4316
 14265  00B9AC  D7F6               	goto	l4312
 14266  00B9AE  D000               	goto	l4316
 14267  00B9B0                     l4316:
 14268  00B9B0  90D8               	bcf	status,0,c
 14269  00B9B2  3609               	rlcf	___lldiv@quotient,f,c
 14270  00B9B4  360A               	rlcf	___lldiv@quotient+1,f,c
 14271  00B9B6  360B               	rlcf	___lldiv@quotient+2,f,c
 14272  00B9B8  360C               	rlcf	___lldiv@quotient+3,f,c
 14273  00B9BA  5005               	movf	___lldiv@divisor,w,c
 14274  00B9BC  5C01               	subwf	___lldiv@dividend,w,c
 14275  00B9BE  5006               	movf	___lldiv@divisor+1,w,c
 14276  00B9C0  5802               	subwfb	___lldiv@dividend+1,w,c
 14277  00B9C2  5007               	movf	___lldiv@divisor+2,w,c
 14278  00B9C4  5803               	subwfb	___lldiv@dividend+2,w,c
 14279  00B9C6  5008               	movf	___lldiv@divisor+3,w,c
 14280  00B9C8  5804               	subwfb	___lldiv@dividend+3,w,c
 14281  00B9CA  A0D8               	btfss	status,0,c
 14282  00B9CC  D00A               	goto	l4324
 14283  00B9CE  5005               	movf	___lldiv@divisor,w,c
 14284  00B9D0  5E01               	subwf	___lldiv@dividend,f,c
 14285  00B9D2  5006               	movf	___lldiv@divisor+1,w,c
 14286  00B9D4  5A02               	subwfb	___lldiv@dividend+1,f,c
 14287  00B9D6  5007               	movf	___lldiv@divisor+2,w,c
 14288  00B9D8  5A03               	subwfb	___lldiv@dividend+2,f,c
 14289  00B9DA  5008               	movf	___lldiv@divisor+3,w,c
 14290  00B9DC  5A04               	subwfb	___lldiv@dividend+3,f,c
 14291  00B9DE  8009               	bsf	___lldiv@quotient,0,c
 14292  00B9E0  D000               	goto	l4324
 14293  00B9E2                     l4324:
 14294  00B9E2  90D8               	bcf	status,0,c
 14295  00B9E4  3208               	rrcf	___lldiv@divisor+3,f,c
 14296  00B9E6  3207               	rrcf	___lldiv@divisor+2,f,c
 14297  00B9E8  3206               	rrcf	___lldiv@divisor+1,f,c
 14298  00B9EA  3205               	rrcf	___lldiv@divisor,f,c
 14299  00B9EC  2E0D               	decfsz	___lldiv@counter,f,c
 14300  00B9EE  D7E0               	goto	l4316
 14301  00B9F0  D000               	goto	l1228
 14302  00B9F2                     l1228:
 14303  00B9F2  C009  F001         	movff	___lldiv@quotient,?___lldiv
 14304  00B9F6  C00A  F002         	movff	___lldiv@quotient+1,?___lldiv+1
 14305  00B9FA  C00B  F003         	movff	___lldiv@quotient+2,?___lldiv+2
 14306  00B9FE  C00C  F004         	movff	___lldiv@quotient+3,?___lldiv+3
 14307  00BA02  0012               	return		;funcret
 14308  00BA04                     __end_of___lldiv:
 14309                           	opt stack 0
 14310                           tblptru	equ	0xFF8
 14311                           tblptrh	equ	0xFF7
 14312                           tblptrl	equ	0xFF6
 14313                           tablat	equ	0xFF5
 14314                           prodh	equ	0xFF4
 14315                           prodl	equ	0xFF3
 14316                           intcon	equ	0xFF2
 14317                           indf0	equ	0xFEF
 14318                           postinc0	equ	0xFEE
 14319                           fsr0h	equ	0xFEA
 14320                           fsr0l	equ	0xFE9
 14321                           wreg	equ	0xFE8
 14322                           postdec1	equ	0xFE5
 14323                           fsr1l	equ	0xFE1
 14324                           indf2	equ	0xFDF
 14325                           postinc2	equ	0xFDE
 14326                           postdec2	equ	0xFDD
 14327                           fsr2h	equ	0xFDA
 14328                           fsr2l	equ	0xFD9
 14329                           status	equ	0xFD8
 14330                           
 14331 ;; *************** function ___fttol *****************
 14332 ;; Defined at:
 14333 ;;		line 44 in file "C:\Program Files (x86)\Microchip\xc8\v1.34\sources\common\fttol.c"
 14334 ;; Parameters:    Size  Location     Type
 14335 ;;  f1              3   42[COMRAM] float 
 14336 ;; Auto vars:     Size  Location     Type
 14337 ;;  lval            4   52[COMRAM] unsigned long 
 14338 ;;  exp1            1   56[COMRAM] unsigned char 
 14339 ;;  sign1           1   51[COMRAM] unsigned char 
 14340 ;; Return value:  Size  Location     Type
 14341 ;;                  4   42[COMRAM] long 
 14342 ;; Registers used:
 14343 ;;		wreg, status,2, status,0
 14344 ;; Tracked objects:
 14345 ;;		On entry : 0/0
 14346 ;;		On exit  : 0/0
 14347 ;;		Unchanged: 0/0
 14348 ;; Data sizes:     COMRAM   BANK0   BANK1   BANK2   BANK3   BANK4   BANK5   BANK6   BANK7   BANK8   BANK9  BANK10  BANK1
      +1  BANK12  BANK13  BANK14
 14349 ;;      Params:         4       0       0       0       0       0       0       0       0       0       0       0       
      +0       0       0       0
 14350 ;;      Locals:         6       0       0       0       0       0       0       0       0       0       0       0       
      +0       0       0       0
 14351 ;;      Temps:          5       0       0       0       0       0       0       0       0       0       0       0       
      +0       0       0       0
 14352 ;;      Totals:        15       0       0       0       0       0       0       0       0       0       0       0       
      +0       0       0       0
 14353 ;;Total ram usage:       15 bytes
 14354 ;; Hardware stack levels used:    1
 14355 ;; This function calls:
 14356 ;;		Nothing
 14357 ;; This function is called by:
 14358 ;;		_control_temperatura_agua
 14359 ;;		_sprintf
 14360 ;; This function uses a non-reentrant model
 14361 ;;
 14362                           
 14363                           	psect	text37
 14364  00BEF8                     __ptext37:
 14365                           	opt stack 0
 14366  00BEF8                     ___fttol:
 14367                           	opt stack 29
 14368                           
 14369                           ;incstack = 0
 14370  00BEF8  C02D  F02F         	movff	___fttol@f1+2,??___fttol
 14371  00BEFC  6A30               	clrf	(??___fttol+1)& (0+255),c
 14372  00BEFE  6A31               	clrf	(??___fttol+2)& (0+255),c
 14373  00BF00  342C               	rlcf	___fttol@f1+1,w,c
 14374  00BF02  362F               	rlcf	??___fttol& (0+255),f,c
 14375  00BF04  E301               	bnc	u4711
 14376  00BF06  8030               	bsf	(??___fttol+1)& (0+255),0,c
 14377  00BF08                     u4711:
 14378  00BF08  502F               	movf	??___fttol,w,c
 14379  00BF0A  6E39               	movwf	___fttol@exp1,c
 14380  00BF0C  5039               	movf	___fttol@exp1,w,c
 14381  00BF0E  A4D8               	btfss	status,2,c
 14382  00BF10  D009               	goto	l4266
 14383  00BF12  0E00               	movlw	0
 14384  00BF14  6E2B               	movwf	?___fttol,c
 14385  00BF16  0E00               	movlw	0
 14386  00BF18  6E2C               	movwf	?___fttol+1,c
 14387  00BF1A  0E00               	movlw	0
 14388  00BF1C  6E2D               	movwf	?___fttol+2,c
 14389  00BF1E  0E00               	movlw	0
 14390  00BF20  6E2E               	movwf	?___fttol+3,c
 14391  00BF22  0012               	return	
 14392  00BF24                     l4266:
 14393  00BF24  0E17               	movlw	23
 14394  00BF26  6E2F               	movwf	??___fttol& (0+255),c
 14395  00BF28  C02B  F030         	movff	___fttol@f1,??___fttol+1
 14396  00BF2C  C02C  F031         	movff	___fttol@f1+1,??___fttol+2
 14397  00BF30  C02D  F032         	movff	___fttol@f1+2,??___fttol+3
 14398  00BF34  282F               	incf	??___fttol,w,c
 14399  00BF36  6E33               	movwf	(??___fttol+4)& (0+255),c
 14400  00BF38  D004               	goto	u4730
 14401  00BF3A                     u4735:
 14402  00BF3A  90D8               	bcf	status,0,c
 14403  00BF3C  3232               	rrcf	??___fttol+3,f,c
 14404  00BF3E  3231               	rrcf	??___fttol+2,f,c
 14405  00BF40  3230               	rrcf	??___fttol+1,f,c
 14406  00BF42                     u4730:
 14407  00BF42  2E33               	decfsz	(??___fttol+4)& (0+255),f,c
 14408  00BF44  D7FA               	goto	u4735
 14409  00BF46  5030               	movf	??___fttol+1,w,c
 14410  00BF48  6E34               	movwf	___fttol@sign1,c
 14411  00BF4A  8E2C               	bsf	___fttol@f1+1,7,c
 14412  00BF4C  0EFF               	movlw	255
 14413  00BF4E  162B               	andwf	___fttol@f1,f,c
 14414  00BF50  0EFF               	movlw	255
 14415  00BF52  162C               	andwf	___fttol@f1+1,f,c
 14416  00BF54  0E00               	movlw	0
 14417  00BF56  162D               	andwf	___fttol@f1+2,f,c
 14418  00BF58  502B               	movf	___fttol@f1,w,c
 14419  00BF5A  6E35               	movwf	___fttol@lval,c
 14420  00BF5C  502C               	movf	___fttol@f1+1,w,c
 14421  00BF5E  6E36               	movwf	___fttol@lval+1,c
 14422  00BF60  502D               	movf	___fttol@f1+2,w,c
 14423  00BF62  6E37               	movwf	___fttol@lval+2,c
 14424  00BF64  6A38               	clrf	___fttol@lval+3,c
 14425  00BF66  0E8E               	movlw	142
 14426  00BF68  5E39               	subwf	___fttol@exp1,f,c
 14427  00BF6A  AE39               	btfss	___fttol@exp1,7,c
 14428  00BF6C  D017               	goto	l4288
 14429  00BF6E  5039               	movf	___fttol@exp1,w,c
 14430  00BF70  0A80               	xorlw	128
 14431  00BF72  0F8F               	addlw	143
 14432  00BF74  B0D8               	btfsc	status,0,c
 14433  00BF76  D00A               	goto	l4284
 14434  00BF78  0E00               	movlw	0
 14435  00BF7A  6E2B               	movwf	?___fttol,c
 14436  00BF7C  0E00               	movlw	0
 14437  00BF7E  6E2C               	movwf	?___fttol+1,c
 14438  00BF80  0E00               	movlw	0
 14439  00BF82  6E2D               	movwf	?___fttol+2,c
 14440  00BF84  0E00               	movlw	0
 14441  00BF86  6E2E               	movwf	?___fttol+3,c
 14442  00BF88  0012               	return	
 14443  00BF8A  D000               	goto	l4284
 14444  00BF8C                     l4284:
 14445  00BF8C  90D8               	bcf	status,0,c
 14446  00BF8E  3238               	rrcf	___fttol@lval+3,f,c
 14447  00BF90  3237               	rrcf	___fttol@lval+2,f,c
 14448  00BF92  3236               	rrcf	___fttol@lval+1,f,c
 14449  00BF94  3235               	rrcf	___fttol@lval,f,c
 14450  00BF96  3E39               	incfsz	___fttol@exp1,f,c
 14451  00BF98  D7F9               	goto	l4284
 14452  00BF9A  D019               	goto	l4298
 14453  00BF9C                     l4288:
 14454  00BF9C  0E17               	movlw	23
 14455  00BF9E  6439               	cpfsgt	___fttol@exp1,c
 14456  00BFA0  D011               	goto	l4296
 14457  00BFA2  0E00               	movlw	0
 14458  00BFA4  6E2B               	movwf	?___fttol,c
 14459  00BFA6  0E00               	movlw	0
 14460  00BFA8  6E2C               	movwf	?___fttol+1,c
 14461  00BFAA  0E00               	movlw	0
 14462  00BFAC  6E2D               	movwf	?___fttol+2,c
 14463  00BFAE  0E00               	movlw	0
 14464  00BFB0  6E2E               	movwf	?___fttol+3,c
 14465  00BFB2  0012               	return	
 14466  00BFB4  D007               	goto	l4296
 14467  00BFB6                     l4294:
 14468  00BFB6  90D8               	bcf	status,0,c
 14469  00BFB8  3635               	rlcf	___fttol@lval,f,c
 14470  00BFBA  3636               	rlcf	___fttol@lval+1,f,c
 14471  00BFBC  3637               	rlcf	___fttol@lval+2,f,c
 14472  00BFBE  3638               	rlcf	___fttol@lval+3,f,c
 14473  00BFC0  0639               	decf	___fttol@exp1,f,c
 14474  00BFC2  D000               	goto	l4296
 14475  00BFC4                     l4296:
 14476  00BFC4  5039               	movf	___fttol@exp1,w,c
 14477  00BFC6  B4D8               	btfsc	status,2,c
 14478  00BFC8  D002               	goto	l4298
 14479  00BFCA  D7F5               	goto	l4294
 14480  00BFCC  D000               	goto	l4298
 14481  00BFCE                     l4298:
 14482  00BFCE  5034               	movf	___fttol@sign1,w,c
 14483  00BFD0  B4D8               	btfsc	status,2,c
 14484  00BFD2  D009               	goto	l4302
 14485  00BFD4  1E38               	comf	___fttol@lval+3,f,c
 14486  00BFD6  1E37               	comf	___fttol@lval+2,f,c
 14487  00BFD8  1E36               	comf	___fttol@lval+1,f,c
 14488  00BFDA  6C35               	negf	___fttol@lval,c
 14489  00BFDC  0E00               	movlw	0
 14490  00BFDE  2236               	addwfc	___fttol@lval+1,f,c
 14491  00BFE0  2237               	addwfc	___fttol@lval+2,f,c
 14492  00BFE2  2238               	addwfc	___fttol@lval+3,f,c
 14493  00BFE4  D000               	goto	l4302
 14494  00BFE6                     l4302:
 14495  00BFE6  C035  F02B         	movff	___fttol@lval,?___fttol
 14496  00BFEA  C036  F02C         	movff	___fttol@lval+1,?___fttol+1
 14497  00BFEE  C037  F02D         	movff	___fttol@lval+2,?___fttol+2
 14498  00BFF2  C038  F02E         	movff	___fttol@lval+3,?___fttol+3
 14499  00BFF6  0012               	return	
 14500  00BFF8  0012               	return		;funcret
 14501  00BFFA                     __end_of___fttol:
 14502                           	opt stack 0
 14503                           tblptru	equ	0xFF8
 14504                           tblptrh	equ	0xFF7
 14505                           tblptrl	equ	0xFF6
 14506                           tablat	equ	0xFF5
 14507                           prodh	equ	0xFF4
 14508                           prodl	equ	0xFF3
 14509                           intcon	equ	0xFF2
 14510                           indf0	equ	0xFEF
 14511                           postinc0	equ	0xFEE
 14512                           fsr0h	equ	0xFEA
 14513                           fsr0l	equ	0xFE9
 14514                           wreg	equ	0xFE8
 14515                           postdec1	equ	0xFE5
 14516                           fsr1l	equ	0xFE1
 14517                           indf2	equ	0xFDF
 14518                           postinc2	equ	0xFDE
 14519                           postdec2	equ	0xFDD
 14520                           fsr2h	equ	0xFDA
 14521                           fsr2l	equ	0xFD9
 14522                           status	equ	0xFD8
 14523                           
 14524 ;; *************** function ___ftsub *****************
 14525 ;; Defined at:
 14526 ;;		line 20 in file "C:\Program Files (x86)\Microchip\xc8\v1.34\sources\common\ftsub.c"
 14527 ;; Parameters:    Size  Location     Type
 14528 ;;  f1              3   57[COMRAM] float 
 14529 ;;  f2              3   60[COMRAM] float 
 14530 ;; Auto vars:     Size  Location     Type
 14531 ;;		None
 14532 ;; Return value:  Size  Location     Type
 14533 ;;                  3   57[COMRAM] float 
 14534 ;; Registers used:
 14535 ;;		wreg, status,2, status,0, cstack
 14536 ;; Tracked objects:
 14537 ;;		On entry : 0/0
 14538 ;;		On exit  : 0/0
 14539 ;;		Unchanged: 0/0
 14540 ;; Data sizes:     COMRAM   BANK0   BANK1   BANK2   BANK3   BANK4   BANK5   BANK6   BANK7   BANK8   BANK9  BANK10  BANK1
      +1  BANK12  BANK13  BANK14
 14541 ;;      Params:         6       0       0       0       0       0       0       0       0       0       0       0       
      +0       0       0       0
 14542 ;;      Locals:         0       0       0       0       0       0       0       0       0       0       0       0       
      +0       0       0       0
 14543 ;;      Temps:          0       0       0       0       0       0       0       0       0       0       0       0       
      +0       0       0       0
 14544 ;;      Totals:         6       0       0       0       0       0       0       0       0       0       0       0       
      +0       0       0       0
 14545 ;;Total ram usage:        6 bytes
 14546 ;; Hardware stack levels used:    1
 14547 ;; Hardware stack levels required when called:    2
 14548 ;; This function calls:
 14549 ;;		___ftadd
 14550 ;; This function is called by:
 14551 ;;		_V_ProgTempAgua
 14552 ;;		_sprintf
 14553 ;; This function uses a non-reentrant model
 14554 ;;
 14555                           
 14556                           	psect	text38
 14557  00B5C2                     __ptext38:
 14558                           	opt stack 0
 14559  00B5C2                     ___ftsub:
 14560                           	opt stack 26
 14561                           
 14562                           ;incstack = 0
 14563  00B5C2  503D               	movf	___ftsub@f2,w,c
 14564  00B5C4  103E               	iorwf	___ftsub@f2+1,w,c
 14565  00B5C6  103F               	iorwf	___ftsub@f2+2,w,c
 14566  00B5C8  B4D8               	btfsc	status,2,c
 14567  00B5CA  D007               	goto	l4234
 14568  00B5CC  0E00               	movlw	0
 14569  00B5CE  1A3D               	xorwf	___ftsub@f2,f,c
 14570  00B5D0  0E00               	movlw	0
 14571  00B5D2  1A3E               	xorwf	___ftsub@f2+1,f,c
 14572  00B5D4  0E80               	movlw	128
 14573  00B5D6  1A3F               	xorwf	___ftsub@f2+2,f,c
 14574  00B5D8  D000               	goto	l4234
 14575  00B5DA                     l4234:
 14576  00B5DA  C03A  F02E         	movff	___ftsub@f1,___ftadd@f1
 14577  00B5DE  C03B  F02F         	movff	___ftsub@f1+1,___ftadd@f1+1
 14578  00B5E2  C03C  F030         	movff	___ftsub@f1+2,___ftadd@f1+2
 14579  00B5E6  C03D  F031         	movff	___ftsub@f2,___ftadd@f2
 14580  00B5EA  C03E  F032         	movff	___ftsub@f2+1,___ftadd@f2+1
 14581  00B5EE  C03F  F033         	movff	___ftsub@f2+2,___ftadd@f2+2
 14582  00B5F2  ECE7  F067         	call	___ftadd	;wreg free
 14583  00B5F6  C02E  F03A         	movff	?___ftadd,?___ftsub
 14584  00B5FA  C02F  F03B         	movff	?___ftadd+1,?___ftsub+1
 14585  00B5FE  C030  F03C         	movff	?___ftadd+2,?___ftsub+2
 14586  00B602  0012               	return	
 14587  00B604  0012               	return		;funcret
 14588  00B606                     __end_of___ftsub:
 14589                           	opt stack 0
 14590                           tblptru	equ	0xFF8
 14591                           tblptrh	equ	0xFF7
 14592                           tblptrl	equ	0xFF6
 14593                           tablat	equ	0xFF5
 14594                           prodh	equ	0xFF4
 14595                           prodl	equ	0xFF3
 14596                           intcon	equ	0xFF2
 14597                           indf0	equ	0xFEF
 14598                           postinc0	equ	0xFEE
 14599                           fsr0h	equ	0xFEA
 14600                           fsr0l	equ	0xFE9
 14601                           wreg	equ	0xFE8
 14602                           postdec1	equ	0xFE5
 14603                           fsr1l	equ	0xFE1
 14604                           indf2	equ	0xFDF
 14605                           postinc2	equ	0xFDE
 14606                           postdec2	equ	0xFDD
 14607                           fsr2h	equ	0xFDA
 14608                           fsr2l	equ	0xFD9
 14609                           status	equ	0xFD8
 14610                           
 14611 ;; *************** function ___ftadd *****************
 14612 ;; Defined at:
 14613 ;;		line 86 in file "C:\Program Files (x86)\Microchip\xc8\v1.34\sources\common\ftadd.c"
 14614 ;; Parameters:    Size  Location     Type
 14615 ;;  f1              3   45[COMRAM] float 
 14616 ;;  f2              3   48[COMRAM] float 
 14617 ;; Auto vars:     Size  Location     Type
 14618 ;;  exp1            1   56[COMRAM] unsigned char 
 14619 ;;  exp2            1   55[COMRAM] unsigned char 
 14620 ;;  sign            1   54[COMRAM] unsigned char 
 14621 ;; Return value:  Size  Location     Type
 14622 ;;                  3   45[COMRAM] float 
 14623 ;; Registers used:
 14624 ;;		wreg, status,2, status,0, cstack
 14625 ;; Tracked objects:
 14626 ;;		On entry : 0/0
 14627 ;;		On exit  : 0/0
 14628 ;;		Unchanged: 0/0
 14629 ;; Data sizes:     COMRAM   BANK0   BANK1   BANK2   BANK3   BANK4   BANK5   BANK6   BANK7   BANK8   BANK9  BANK10  BANK1
      +1  BANK12  BANK13  BANK14
 14630 ;;      Params:         6       0       0       0       0       0       0       0       0       0       0       0       
      +0       0       0       0
 14631 ;;      Locals:         3       0       0       0       0       0       0       0       0       0       0       0       
      +0       0       0       0
 14632 ;;      Temps:          3       0       0       0       0       0       0       0       0       0       0       0       
      +0       0       0       0
 14633 ;;      Totals:        12       0       0       0       0       0       0       0       0       0       0       0       
      +0       0       0       0
 14634 ;;Total ram usage:       12 bytes
 14635 ;; Hardware stack levels used:    1
 14636 ;; Hardware stack levels required when called:    1
 14637 ;; This function calls:
 14638 ;;		___ftpack
 14639 ;; This function is called by:
 14640 ;;		_V_ProgTempAgua
 14641 ;;		_control_temperatura_agua
 14642 ;;		_sprintf
 14643 ;;		___ftsub
 14644 ;; This function uses a non-reentrant model
 14645 ;;
 14646                           
 14647                           	psect	text39
 14648  00CFCE                     __ptext39:
 14649                           	opt stack 0
 14650  00CFCE                     ___ftadd:
 14651                           	opt stack 28
 14652                           
 14653                           ;incstack = 0
 14654  00CFCE  C030  F034         	movff	___ftadd@f1+2,??___ftadd
 14655  00CFD2  6A35               	clrf	(??___ftadd+1)& (0+255),c
 14656  00CFD4  6A36               	clrf	(??___ftadd+2)& (0+255),c
 14657  00CFD6  342F               	rlcf	___ftadd@f1+1,w,c
 14658  00CFD8  3634               	rlcf	??___ftadd& (0+255),f,c
 14659  00CFDA  E301               	bnc	u3961
 14660  00CFDC  8035               	bsf	(??___ftadd+1)& (0+255),0,c
 14661  00CFDE                     u3961:
 14662  00CFDE  5034               	movf	??___ftadd,w,c
 14663  00CFE0  6E39               	movwf	___ftadd@exp1,c
 14664  00CFE2  C033  F034         	movff	___ftadd@f2+2,??___ftadd
 14665  00CFE6  6A35               	clrf	(??___ftadd+1)& (0+255),c
 14666  00CFE8  6A36               	clrf	(??___ftadd+2)& (0+255),c
 14667  00CFEA  3432               	rlcf	___ftadd@f2+1,w,c
 14668  00CFEC  3634               	rlcf	??___ftadd& (0+255),f,c
 14669  00CFEE  E301               	bnc	u3971
 14670  00CFF0  8035               	bsf	(??___ftadd+1)& (0+255),0,c
 14671  00CFF2                     u3971:
 14672  00CFF2  5034               	movf	??___ftadd,w,c
 14673  00CFF4  6E38               	movwf	___ftadd@exp2,c
 14674  00CFF6  5039               	movf	___ftadd@exp1,w,c
 14675  00CFF8  B4D8               	btfsc	status,2,c
 14676  00CFFA  D00B               	goto	l1099
 14677  00CFFC  5038               	movf	___ftadd@exp2,w,c
 14678  00CFFE  5C39               	subwf	___ftadd@exp1,w,c
 14679  00D000  B0D8               	btfsc	status,0,c
 14680  00D002  D00E               	goto	l3798
 14681  00D004  5039               	movf	___ftadd@exp1,w,c
 14682  00D006  0800               	sublw	0
 14683  00D008  2438               	addwf	___ftadd@exp2,w,c
 14684  00D00A  6E34               	movwf	??___ftadd& (0+255),c
 14685  00D00C  0E18               	movlw	24
 14686  00D00E  6434               	cpfsgt	??___ftadd,c
 14687  00D010  D007               	goto	l3798
 14688  00D012                     l1099:
 14689  00D012  C031  F02E         	movff	___ftadd@f2,?___ftadd
 14690  00D016  C032  F02F         	movff	___ftadd@f2+1,?___ftadd+1
 14691  00D01A  C033  F030         	movff	___ftadd@f2+2,?___ftadd+2
 14692  00D01E  0012               	return	
 14693  00D020                     l3798:
 14694  00D020  5038               	movf	___ftadd@exp2,w,c
 14695  00D022  B4D8               	btfsc	status,2,c
 14696  00D024  D00B               	goto	l1103
 14697  00D026  5039               	movf	___ftadd@exp1,w,c
 14698  00D028  5C38               	subwf	___ftadd@exp2,w,c
 14699  00D02A  B0D8               	btfsc	status,0,c
 14700  00D02C  D00E               	goto	l3804
 14701  00D02E  5038               	movf	___ftadd@exp2,w,c
 14702  00D030  0800               	sublw	0
 14703  00D032  2439               	addwf	___ftadd@exp1,w,c
 14704  00D034  6E34               	movwf	??___ftadd& (0+255),c
 14705  00D036  0E18               	movlw	24
 14706  00D038  6434               	cpfsgt	??___ftadd,c
 14707  00D03A  D007               	goto	l3804
 14708  00D03C                     l1103:
 14709  00D03C  C02E  F02E         	movff	___ftadd@f1,?___ftadd
 14710  00D040  C02F  F02F         	movff	___ftadd@f1+1,?___ftadd+1
 14711  00D044  C030  F030         	movff	___ftadd@f1+2,?___ftadd+2
 14712  00D048  0012               	return	
 14713  00D04A                     l3804:
 14714  00D04A  0E06               	movlw	6
 14715  00D04C  6E37               	movwf	___ftadd@sign,c
 14716  00D04E  AE30               	btfss	___ftadd@f1+2,7,c
 14717  00D050  D002               	goto	l3810
 14718  00D052  8E37               	bsf	___ftadd@sign,7,c
 14719  00D054  D000               	goto	l3810
 14720  00D056                     l3810:
 14721  00D056  BE33               	btfsc	___ftadd@f2+2,7,c
 14722  00D058  8C37               	bsf	___ftadd@sign,6,c
 14723  00D05A  8E2F               	bsf	___ftadd@f1+1,7,c
 14724  00D05C  0EFF               	movlw	255
 14725  00D05E  162E               	andwf	___ftadd@f1,f,c
 14726  00D060  0EFF               	movlw	255
 14727  00D062  162F               	andwf	___ftadd@f1+1,f,c
 14728  00D064  0E00               	movlw	0
 14729  00D066  1630               	andwf	___ftadd@f1+2,f,c
 14730  00D068  8E32               	bsf	___ftadd@f2+1,7,c
 14731  00D06A  0EFF               	movlw	255
 14732  00D06C  1631               	andwf	___ftadd@f2,f,c
 14733  00D06E  0EFF               	movlw	255
 14734  00D070  1632               	andwf	___ftadd@f2+1,f,c
 14735  00D072  0E00               	movlw	0
 14736  00D074  1633               	andwf	___ftadd@f2+2,f,c
 14737  00D076  5038               	movf	___ftadd@exp2,w,c
 14738  00D078  5C39               	subwf	___ftadd@exp1,w,c
 14739  00D07A  B0D8               	btfsc	status,0,c
 14740  00D07C  D01E               	goto	l3830
 14741  00D07E                     l3820:
 14742  00D07E  90D8               	bcf	status,0,c
 14743  00D080  3631               	rlcf	___ftadd@f2,f,c
 14744  00D082  3632               	rlcf	___ftadd@f2+1,f,c
 14745  00D084  3633               	rlcf	___ftadd@f2+2,f,c
 14746  00D086  0638               	decf	___ftadd@exp2,f,c
 14747  00D088  5039               	movf	___ftadd@exp1,w,c
 14748  00D08A  1838               	xorwf	___ftadd@exp2,w,c
 14749  00D08C  B4D8               	btfsc	status,2,c
 14750  00D08E  D00F               	goto	l3828
 14751  00D090  0637               	decf	___ftadd@sign,f,c
 14752  00D092  C037  F034         	movff	___ftadd@sign,??___ftadd
 14753  00D096  0E07               	movlw	7
 14754  00D098  1634               	andwf	??___ftadd,f,c
 14755  00D09A  B4D8               	btfsc	status,2,c
 14756  00D09C  D008               	goto	l3828
 14757  00D09E  D7EF               	goto	l3820
 14758  00D0A0  D006               	goto	l3828
 14759  00D0A2                     l3826:
 14760  00D0A2  90D8               	bcf	status,0,c
 14761  00D0A4  3230               	rrcf	___ftadd@f1+2,f,c
 14762  00D0A6  322F               	rrcf	___ftadd@f1+1,f,c
 14763  00D0A8  322E               	rrcf	___ftadd@f1,f,c
 14764  00D0AA  2A39               	incf	___ftadd@exp1,f,c
 14765  00D0AC  D000               	goto	l3828
 14766  00D0AE                     l3828:
 14767  00D0AE  5038               	movf	___ftadd@exp2,w,c
 14768  00D0B0  1839               	xorwf	___ftadd@exp1,w,c
 14769  00D0B2  B4D8               	btfsc	status,2,c
 14770  00D0B4  D024               	goto	l1114
 14771  00D0B6  D7F5               	goto	l3826
 14772  00D0B8  D022               	goto	l1114
 14773  00D0BA                     l3830:
 14774  00D0BA  5039               	movf	___ftadd@exp1,w,c
 14775  00D0BC  5C38               	subwf	___ftadd@exp2,w,c
 14776  00D0BE  B0D8               	btfsc	status,0,c
 14777  00D0C0  D01E               	goto	l1114
 14778  00D0C2                     l3832:
 14779  00D0C2  90D8               	bcf	status,0,c
 14780  00D0C4  362E               	rlcf	___ftadd@f1,f,c
 14781  00D0C6  362F               	rlcf	___ftadd@f1+1,f,c
 14782  00D0C8  3630               	rlcf	___ftadd@f1+2,f,c
 14783  00D0CA  0639               	decf	___ftadd@exp1,f,c
 14784  00D0CC  5039               	movf	___ftadd@exp1,w,c
 14785  00D0CE  1838               	xorwf	___ftadd@exp2,w,c
 14786  00D0D0  B4D8               	btfsc	status,2,c
 14787  00D0D2  D00F               	goto	l3840
 14788  00D0D4  0637               	decf	___ftadd@sign,f,c
 14789  00D0D6  C037  F034         	movff	___ftadd@sign,??___ftadd
 14790  00D0DA  0E07               	movlw	7
 14791  00D0DC  1634               	andwf	??___ftadd,f,c
 14792  00D0DE  B4D8               	btfsc	status,2,c
 14793  00D0E0  D008               	goto	l3840
 14794  00D0E2  D7EF               	goto	l3832
 14795  00D0E4  D006               	goto	l3840
 14796  00D0E6                     l3838:
 14797  00D0E6  90D8               	bcf	status,0,c
 14798  00D0E8  3233               	rrcf	___ftadd@f2+2,f,c
 14799  00D0EA  3232               	rrcf	___ftadd@f2+1,f,c
 14800  00D0EC  3231               	rrcf	___ftadd@f2,f,c
 14801  00D0EE  2A38               	incf	___ftadd@exp2,f,c
 14802  00D0F0  D000               	goto	l3840
 14803  00D0F2                     l3840:
 14804  00D0F2  5038               	movf	___ftadd@exp2,w,c
 14805  00D0F4  1839               	xorwf	___ftadd@exp1,w,c
 14806  00D0F6  B4D8               	btfsc	status,2,c
 14807  00D0F8  D002               	goto	l1114
 14808  00D0FA  D7F5               	goto	l3838
 14809  00D0FC  D000               	goto	l1114
 14810  00D0FE                     l1114:
 14811  00D0FE  AE37               	btfss	___ftadd@sign,7,c
 14812  00D100  D00C               	goto	l1123
 14813  00D102  0EFF               	movlw	255
 14814  00D104  1A2E               	xorwf	___ftadd@f1,f,c
 14815  00D106  0EFF               	movlw	255
 14816  00D108  1A2F               	xorwf	___ftadd@f1+1,f,c
 14817  00D10A  0EFF               	movlw	255
 14818  00D10C  1A30               	xorwf	___ftadd@f1+2,f,c
 14819  00D10E  0E01               	movlw	1
 14820  00D110  262E               	addwf	___ftadd@f1,f,c
 14821  00D112  0E00               	movlw	0
 14822  00D114  222F               	addwfc	___ftadd@f1+1,f,c
 14823  00D116  0E00               	movlw	0
 14824  00D118  2230               	addwfc	___ftadd@f1+2,f,c
 14825  00D11A                     l1123:
 14826  00D11A  AC37               	btfss	___ftadd@sign,6,c
 14827  00D11C  D00D               	goto	l3846
 14828  00D11E  0EFF               	movlw	255
 14829  00D120  1A31               	xorwf	___ftadd@f2,f,c
 14830  00D122  0EFF               	movlw	255
 14831  00D124  1A32               	xorwf	___ftadd@f2+1,f,c
 14832  00D126  0EFF               	movlw	255
 14833  00D128  1A33               	xorwf	___ftadd@f2+2,f,c
 14834  00D12A  0E01               	movlw	1
 14835  00D12C  2631               	addwf	___ftadd@f2,f,c
 14836  00D12E  0E00               	movlw	0
 14837  00D130  2232               	addwfc	___ftadd@f2+1,f,c
 14838  00D132  0E00               	movlw	0
 14839  00D134  2233               	addwfc	___ftadd@f2+2,f,c
 14840  00D136  D000               	goto	l3846
 14841  00D138                     l3846:
 14842  00D138  0E00               	movlw	0
 14843  00D13A  6E37               	movwf	___ftadd@sign,c
 14844  00D13C  502E               	movf	___ftadd@f1,w,c
 14845  00D13E  2631               	addwf	___ftadd@f2,f,c
 14846  00D140  502F               	movf	___ftadd@f1+1,w,c
 14847  00D142  2232               	addwfc	___ftadd@f2+1,f,c
 14848  00D144  5030               	movf	___ftadd@f1+2,w,c
 14849  00D146  2233               	addwfc	___ftadd@f2+2,f,c
 14850  00D148  AE33               	btfss	___ftadd@f2+2,7,c
 14851  00D14A  D00F               	goto	l3856
 14852  00D14C  0EFF               	movlw	255
 14853  00D14E  1A31               	xorwf	___ftadd@f2,f,c
 14854  00D150  0EFF               	movlw	255
 14855  00D152  1A32               	xorwf	___ftadd@f2+1,f,c
 14856  00D154  0EFF               	movlw	255
 14857  00D156  1A33               	xorwf	___ftadd@f2+2,f,c
 14858  00D158  0E01               	movlw	1
 14859  00D15A  2631               	addwf	___ftadd@f2,f,c
 14860  00D15C  0E00               	movlw	0
 14861  00D15E  2232               	addwfc	___ftadd@f2+1,f,c
 14862  00D160  0E00               	movlw	0
 14863  00D162  2233               	addwfc	___ftadd@f2+2,f,c
 14864  00D164  0E01               	movlw	1
 14865  00D166  6E37               	movwf	___ftadd@sign,c
 14866  00D168  D000               	goto	l3856
 14867  00D16A                     l3856:
 14868  00D16A  C031  F001         	movff	___ftadd@f2,___ftpack@arg
 14869  00D16E  C032  F002         	movff	___ftadd@f2+1,___ftpack@arg+1
 14870  00D172  C033  F003         	movff	___ftadd@f2+2,___ftpack@arg+2
 14871  00D176  C039  F004         	movff	___ftadd@exp1,___ftpack@exp
 14872  00D17A  C037  F005         	movff	___ftadd@sign,___ftpack@sign
 14873  00D17E  EC29  F05E         	call	___ftpack	;wreg free
 14874  00D182  C001  F02E         	movff	?___ftpack,?___ftadd
 14875  00D186  C002  F02F         	movff	?___ftpack+1,?___ftadd+1
 14876  00D18A  C003  F030         	movff	?___ftpack+2,?___ftadd+2
 14877  00D18E  0012               	return	
 14878  00D190  0012               	return		;funcret
 14879  00D192                     __end_of___ftadd:
 14880                           	opt stack 0
 14881                           tblptru	equ	0xFF8
 14882                           tblptrh	equ	0xFF7
 14883                           tblptrl	equ	0xFF6
 14884                           tablat	equ	0xFF5
 14885                           prodh	equ	0xFF4
 14886                           prodl	equ	0xFF3
 14887                           intcon	equ	0xFF2
 14888                           indf0	equ	0xFEF
 14889                           postinc0	equ	0xFEE
 14890                           fsr0h	equ	0xFEA
 14891                           fsr0l	equ	0xFE9
 14892                           wreg	equ	0xFE8
 14893                           postdec1	equ	0xFE5
 14894                           fsr1l	equ	0xFE1
 14895                           indf2	equ	0xFDF
 14896                           postinc2	equ	0xFDE
 14897                           postdec2	equ	0xFDD
 14898                           fsr2h	equ	0xFDA
 14899                           fsr2l	equ	0xFD9
 14900                           status	equ	0xFD8
 14901                           
 14902 ;; *************** function ___ftpack *****************
 14903 ;; Defined at:
 14904 ;;		line 62 in file "C:\Program Files (x86)\Microchip\xc8\v1.34\sources\common\float.c"
 14905 ;; Parameters:    Size  Location     Type
 14906 ;;  arg             3    0[COMRAM] unsigned um
 14907 ;;  exp             1    3[COMRAM] unsigned char 
 14908 ;;  sign            1    4[COMRAM] unsigned char 
 14909 ;; Auto vars:     Size  Location     Type
 14910 ;;		None
 14911 ;; Return value:  Size  Location     Type
 14912 ;;                  3    0[COMRAM] float 
 14913 ;; Registers used:
 14914 ;;		wreg, status,2, status,0
 14915 ;; Tracked objects:
 14916 ;;		On entry : 0/0
 14917 ;;		On exit  : 0/0
 14918 ;;		Unchanged: 0/0
 14919 ;; Data sizes:     COMRAM   BANK0   BANK1   BANK2   BANK3   BANK4   BANK5   BANK6   BANK7   BANK8   BANK9  BANK10  BANK1
      +1  BANK12  BANK13  BANK14
 14920 ;;      Params:         5       0       0       0       0       0       0       0       0       0       0       0       
      +0       0       0       0
 14921 ;;      Locals:         0       0       0       0       0       0       0       0       0       0       0       0       
      +0       0       0       0
 14922 ;;      Temps:          3       0       0       0       0       0       0       0       0       0       0       0       
      +0       0       0       0
 14923 ;;      Totals:         8       0       0       0       0       0       0       0       0       0       0       0       
      +0       0       0       0
 14924 ;;Total ram usage:        8 bytes
 14925 ;; Hardware stack levels used:    1
 14926 ;; This function calls:
 14927 ;;		Nothing
 14928 ;; This function is called by:
 14929 ;;		___awtoft
 14930 ;;		___ftadd
 14931 ;;		___ftdiv
 14932 ;;		___ftmul
 14933 ;;		___lbtoft
 14934 ;;		___lltoft
 14935 ;; This function uses a non-reentrant model
 14936 ;;
 14937                           
 14938                           	psect	text40
 14939  00BC52                     __ptext40:
 14940                           	opt stack 0
 14941  00BC52                     ___ftpack:
 14942                           	opt stack 28
 14943                           
 14944                           ;incstack = 0
 14945  00BC52  5004               	movf	___ftpack@exp,w,c
 14946  00BC54  B4D8               	btfsc	status,2,c
 14947  00BC56  D005               	goto	l3752
 14948  00BC58  5001               	movf	___ftpack@arg,w,c
 14949  00BC5A  1002               	iorwf	___ftpack@arg+1,w,c
 14950  00BC5C  1003               	iorwf	___ftpack@arg+2,w,c
 14951  00BC5E  A4D8               	btfss	status,2,c
 14952  00BC60  D00E               	goto	l3758
 14953  00BC62                     l3752:
 14954  00BC62  0E00               	movlw	0
 14955  00BC64  6E01               	movwf	?___ftpack,c
 14956  00BC66  0E00               	movlw	0
 14957  00BC68  6E02               	movwf	?___ftpack+1,c
 14958  00BC6A  0E00               	movlw	0
 14959  00BC6C  6E03               	movwf	?___ftpack+2,c
 14960  00BC6E  0012               	return	
 14961  00BC70  D006               	goto	l3758
 14962  00BC72                     l3756:
 14963  00BC72  2A04               	incf	___ftpack@exp,f,c
 14964  00BC74  90D8               	bcf	status,0,c
 14965  00BC76  3203               	rrcf	___ftpack@arg+2,f,c
 14966  00BC78  3202               	rrcf	___ftpack@arg+1,f,c
 14967  00BC7A  3201               	rrcf	___ftpack@arg,f,c
 14968  00BC7C  D000               	goto	l3758
 14969  00BC7E                     l3758:
 14970  00BC7E  0E00               	movlw	0
 14971  00BC80  1401               	andwf	___ftpack@arg,w,c
 14972  00BC82  6E06               	movwf	??___ftpack& (0+255),c
 14973  00BC84  0E00               	movlw	0
 14974  00BC86  1402               	andwf	___ftpack@arg+1,w,c
 14975  00BC88  6E07               	movwf	(??___ftpack+1)& (0+255),c
 14976  00BC8A  0EFE               	movlw	254
 14977  00BC8C  1403               	andwf	___ftpack@arg+2,w,c
 14978  00BC8E  6E08               	movwf	(??___ftpack+2)& (0+255),c
 14979  00BC90  5006               	movf	??___ftpack,w,c
 14980  00BC92  1007               	iorwf	??___ftpack+1,w,c
 14981  00BC94  1008               	iorwf	??___ftpack+2,w,c
 14982  00BC96  B4D8               	btfsc	status,2,c
 14983  00BC98  D00E               	goto	l3764
 14984  00BC9A  D7EB               	goto	l3756
 14985  00BC9C  D00C               	goto	l3764
 14986  00BC9E                     l3760:
 14987  00BC9E  2A04               	incf	___ftpack@exp,f,c
 14988  00BCA0  0E01               	movlw	1
 14989  00BCA2  2601               	addwf	___ftpack@arg,f,c
 14990  00BCA4  0E00               	movlw	0
 14991  00BCA6  2202               	addwfc	___ftpack@arg+1,f,c
 14992  00BCA8  0E00               	movlw	0
 14993  00BCAA  2203               	addwfc	___ftpack@arg+2,f,c
 14994  00BCAC  90D8               	bcf	status,0,c
 14995  00BCAE  3203               	rrcf	___ftpack@arg+2,f,c
 14996  00BCB0  3202               	rrcf	___ftpack@arg+1,f,c
 14997  00BCB2  3201               	rrcf	___ftpack@arg,f,c
 14998  00BCB4  D000               	goto	l3764
 14999  00BCB6                     l3764:
 15000  00BCB6  0E00               	movlw	0
 15001  00BCB8  1401               	andwf	___ftpack@arg,w,c
 15002  00BCBA  6E06               	movwf	??___ftpack& (0+255),c
 15003  00BCBC  0E00               	movlw	0
 15004  00BCBE  1402               	andwf	___ftpack@arg+1,w,c
 15005  00BCC0  6E07               	movwf	(??___ftpack+1)& (0+255),c
 15006  00BCC2  0EFF               	movlw	255
 15007  00BCC4  1403               	andwf	___ftpack@arg+2,w,c
 15008  00BCC6  6E08               	movwf	(??___ftpack+2)& (0+255),c
 15009  00BCC8  5006               	movf	??___ftpack,w,c
 15010  00BCCA  1007               	iorwf	??___ftpack+1,w,c
 15011  00BCCC  1008               	iorwf	??___ftpack+2,w,c
 15012  00BCCE  B4D8               	btfsc	status,2,c
 15013  00BCD0  D008               	goto	l3768
 15014  00BCD2  D7E5               	goto	l3760
 15015  00BCD4  D006               	goto	l3768
 15016  00BCD6                     l3766:
 15017  00BCD6  0604               	decf	___ftpack@exp,f,c
 15018  00BCD8  90D8               	bcf	status,0,c
 15019  00BCDA  3601               	rlcf	___ftpack@arg,f,c
 15020  00BCDC  3602               	rlcf	___ftpack@arg+1,f,c
 15021  00BCDE  3603               	rlcf	___ftpack@arg+2,f,c
 15022  00BCE0  D000               	goto	l3768
 15023  00BCE2                     l3768:
 15024  00BCE2  BE02               	btfsc	___ftpack@arg+1,7,c
 15025  00BCE4  D004               	goto	l1070
 15026  00BCE6  0E02               	movlw	2
 15027  00BCE8  6004               	cpfslt	___ftpack@exp,c
 15028  00BCEA  D7F5               	goto	l3766
 15029  00BCEC  D000               	goto	l1070
 15030  00BCEE                     l1070:
 15031  00BCEE  B004               	btfsc	___ftpack@exp,0,c
 15032  00BCF0  D002               	goto	l3774
 15033  00BCF2  9E02               	bcf	___ftpack@arg+1,7,c
 15034  00BCF4  D000               	goto	l3774
 15035  00BCF6                     l3774:
 15036  00BCF6  90D8               	bcf	status,0,c
 15037  00BCF8  3204               	rrcf	___ftpack@exp,f,c
 15038  00BCFA  5004               	movf	___ftpack@exp,w,c
 15039  00BCFC  1203               	iorwf	___ftpack@arg+2,f,c
 15040  00BCFE  5005               	movf	___ftpack@sign,w,c
 15041  00BD00  B4D8               	btfsc	status,2,c
 15042  00BD02  D002               	goto	l3780
 15043  00BD04  8E03               	bsf	___ftpack@arg+2,7,c
 15044  00BD06  D000               	goto	l3780
 15045  00BD08                     l3780:
 15046  00BD08  C001  F001         	movff	___ftpack@arg,?___ftpack
 15047  00BD0C  C002  F002         	movff	___ftpack@arg+1,?___ftpack+1
 15048  00BD10  C003  F003         	movff	___ftpack@arg+2,?___ftpack+2
 15049  00BD14  0012               	return	
 15050  00BD16  0012               	return		;funcret
 15051  00BD18                     __end_of___ftpack:
 15052                           	opt stack 0
 15053                           tblptru	equ	0xFF8
 15054                           tblptrh	equ	0xFF7
 15055                           tblptrl	equ	0xFF6
 15056                           tablat	equ	0xFF5
 15057                           prodh	equ	0xFF4
 15058                           prodl	equ	0xFF3
 15059                           intcon	equ	0xFF2
 15060                           indf0	equ	0xFEF
 15061                           postinc0	equ	0xFEE
 15062                           fsr0h	equ	0xFEA
 15063                           fsr0l	equ	0xFE9
 15064                           wreg	equ	0xFE8
 15065                           postdec1	equ	0xFE5
 15066                           fsr1l	equ	0xFE1
 15067                           indf2	equ	0xFDF
 15068                           postinc2	equ	0xFDE
 15069                           postdec2	equ	0xFDD
 15070                           fsr2h	equ	0xFDA
 15071                           fsr2l	equ	0xFD9
 15072                           status	equ	0xFD8
 15073                           
 15074 ;; *************** function ___ftneg *****************
 15075 ;; Defined at:
 15076 ;;		line 15 in file "C:\Program Files (x86)\Microchip\xc8\v1.34\sources\common\ftneg.c"
 15077 ;; Parameters:    Size  Location     Type
 15078 ;;  f1              3    0[COMRAM] float 
 15079 ;; Auto vars:     Size  Location     Type
 15080 ;;		None
 15081 ;; Return value:  Size  Location     Type
 15082 ;;                  3    0[COMRAM] float 
 15083 ;; Registers used:
 15084 ;;		wreg, status,2, status,0
 15085 ;; Tracked objects:
 15086 ;;		On entry : 0/0
 15087 ;;		On exit  : 0/0
 15088 ;;		Unchanged: 0/0
 15089 ;; Data sizes:     COMRAM   BANK0   BANK1   BANK2   BANK3   BANK4   BANK5   BANK6   BANK7   BANK8   BANK9  BANK10  BANK1
      +1  BANK12  BANK13  BANK14
 15090 ;;      Params:         3       0       0       0       0       0       0       0       0       0       0       0       
      +0       0       0       0
 15091 ;;      Locals:         0       0       0       0       0       0       0       0       0       0       0       0       
      +0       0       0       0
 15092 ;;      Temps:          0       0       0       0       0       0       0       0       0       0       0       0       
      +0       0       0       0
 15093 ;;      Totals:         3       0       0       0       0       0       0       0       0       0       0       0       
      +0       0       0       0
 15094 ;;Total ram usage:        3 bytes
 15095 ;; Hardware stack levels used:    1
 15096 ;; This function calls:
 15097 ;;		Nothing
 15098 ;; This function is called by:
 15099 ;;		_sprintf
 15100 ;; This function uses a non-reentrant model
 15101 ;;
 15102                           
 15103                           	psect	text41
 15104  00B4DC                     __ptext41:
 15105                           	opt stack 0
 15106  00B4DC                     ___ftneg:
 15107                           	opt stack 28
 15108                           
 15109                           ;incstack = 0
 15110  00B4DC  5001               	movf	___ftneg@f1,w,c
 15111  00B4DE  1002               	iorwf	___ftneg@f1+1,w,c
 15112  00B4E0  1003               	iorwf	___ftneg@f1+2,w,c
 15113  00B4E2  B4D8               	btfsc	status,2,c
 15114  00B4E4  D006               	goto	l1173
 15115  00B4E6  0E00               	movlw	0
 15116  00B4E8  1A01               	xorwf	___ftneg@f1,f,c
 15117  00B4EA  0E00               	movlw	0
 15118  00B4EC  1A02               	xorwf	___ftneg@f1+1,f,c
 15119  00B4EE  0E80               	movlw	128
 15120  00B4F0  1A03               	xorwf	___ftneg@f1+2,f,c
 15121  00B4F2                     l1173:
 15122  00B4F2  C001  F001         	movff	___ftneg@f1,?___ftneg
 15123  00B4F6  C002  F002         	movff	___ftneg@f1+1,?___ftneg+1
 15124  00B4FA  C003  F003         	movff	___ftneg@f1+2,?___ftneg+2
 15125  00B4FE  0012               	return		;funcret
 15126  00B500                     __end_of___ftneg:
 15127                           	opt stack 0
 15128                           tblptru	equ	0xFF8
 15129                           tblptrh	equ	0xFF7
 15130                           tblptrl	equ	0xFF6
 15131                           tablat	equ	0xFF5
 15132                           prodh	equ	0xFF4
 15133                           prodl	equ	0xFF3
 15134                           intcon	equ	0xFF2
 15135                           indf0	equ	0xFEF
 15136                           postinc0	equ	0xFEE
 15137                           fsr0h	equ	0xFEA
 15138                           fsr0l	equ	0xFE9
 15139                           wreg	equ	0xFE8
 15140                           postdec1	equ	0xFE5
 15141                           fsr1l	equ	0xFE1
 15142                           indf2	equ	0xFDF
 15143                           postinc2	equ	0xFDE
 15144                           postdec2	equ	0xFDD
 15145                           fsr2h	equ	0xFDA
 15146                           fsr2l	equ	0xFD9
 15147                           status	equ	0xFD8
 15148                           
 15149 ;; *************** function ___ftge *****************
 15150 ;; Defined at:
 15151 ;;		line 4 in file "C:\Program Files (x86)\Microchip\xc8\v1.34\sources\common\ftge.c"
 15152 ;; Parameters:    Size  Location     Type
 15153 ;;  ff1             3    0[COMRAM] float 
 15154 ;;  ff2             3    3[COMRAM] float 
 15155 ;; Auto vars:     Size  Location     Type
 15156 ;;		None
 15157 ;; Return value:  Size  Location     Type
 15158 ;;		None               void
 15159 ;; Registers used:
 15160 ;;		wreg, status,2, status,0
 15161 ;; Tracked objects:
 15162 ;;		On entry : 0/0
 15163 ;;		On exit  : 0/0
 15164 ;;		Unchanged: 0/0
 15165 ;; Data sizes:     COMRAM   BANK0   BANK1   BANK2   BANK3   BANK4   BANK5   BANK6   BANK7   BANK8   BANK9  BANK10  BANK1
      +1  BANK12  BANK13  BANK14
 15166 ;;      Params:         6       0       0       0       0       0       0       0       0       0       0       0       
      +0       0       0       0
 15167 ;;      Locals:         0       0       0       0       0       0       0       0       0       0       0       0       
      +0       0       0       0
 15168 ;;      Temps:          3       0       0       0       0       0       0       0       0       0       0       0       
      +0       0       0       0
 15169 ;;      Totals:         9       0       0       0       0       0       0       0       0       0       0       0       
      +0       0       0       0
 15170 ;;Total ram usage:        9 bytes
 15171 ;; Hardware stack levels used:    1
 15172 ;; This function calls:
 15173 ;;		Nothing
 15174 ;; This function is called by:
 15175 ;;		_V_ProgTempAgua
 15176 ;;		_control_temperatura_agua
 15177 ;;		_sprintf
 15178 ;; This function uses a non-reentrant model
 15179 ;;
 15180                           
 15181                           	psect	text42
 15182  00BB26                     __ptext42:
 15183                           	opt stack 0
 15184  00BB26                     ___ftge:
 15185                           	opt stack 29
 15186                           
 15187                           ;incstack = 0
 15188  00BB26  AE03               	btfss	___ftge@ff1+2,7,c
 15189  00BB28  D017               	goto	l4242
 15190  00BB2A  C001  F007         	movff	___ftge@ff1,??___ftge
 15191  00BB2E  C002  F008         	movff	___ftge@ff1+1,??___ftge+1
 15192  00BB32  C003  F009         	movff	___ftge@ff1+2,??___ftge+2
 15193  00BB36  1E07               	comf	??___ftge,f,c
 15194  00BB38  1E08               	comf	??___ftge+1,f,c
 15195  00BB3A  1E09               	comf	??___ftge+2,f,c
 15196  00BB3C  2A07               	incf	??___ftge,f,c
 15197  00BB3E  0E00               	movlw	0
 15198  00BB40  2208               	addwfc	??___ftge+1,f,c
 15199  00BB42  2209               	addwfc	??___ftge+2,f,c
 15200  00BB44  0E00               	movlw	0
 15201  00BB46  2407               	addwf	??___ftge,w,c
 15202  00BB48  6E01               	movwf	___ftge@ff1,c
 15203  00BB4A  0E00               	movlw	0
 15204  00BB4C  2008               	addwfc	??___ftge+1,w,c
 15205  00BB4E  6E02               	movwf	___ftge@ff1+1,c
 15206  00BB50  0E80               	movlw	128
 15207  00BB52  2009               	addwfc	??___ftge+2,w,c
 15208  00BB54  6E03               	movwf	___ftge@ff1+2,c
 15209  00BB56  D000               	goto	l4242
 15210  00BB58                     l4242:
 15211  00BB58  AE06               	btfss	___ftge@ff2+2,7,c
 15212  00BB5A  D017               	goto	l4246
 15213  00BB5C  C004  F007         	movff	___ftge@ff2,??___ftge
 15214  00BB60  C005  F008         	movff	___ftge@ff2+1,??___ftge+1
 15215  00BB64  C006  F009         	movff	___ftge@ff2+2,??___ftge+2
 15216  00BB68  1E07               	comf	??___ftge,f,c
 15217  00BB6A  1E08               	comf	??___ftge+1,f,c
 15218  00BB6C  1E09               	comf	??___ftge+2,f,c
 15219  00BB6E  2A07               	incf	??___ftge,f,c
 15220  00BB70  0E00               	movlw	0
 15221  00BB72  2208               	addwfc	??___ftge+1,f,c
 15222  00BB74  2209               	addwfc	??___ftge+2,f,c
 15223  00BB76  0E00               	movlw	0
 15224  00BB78  2407               	addwf	??___ftge,w,c
 15225  00BB7A  6E04               	movwf	___ftge@ff2,c
 15226  00BB7C  0E00               	movlw	0
 15227  00BB7E  2008               	addwfc	??___ftge+1,w,c
 15228  00BB80  6E05               	movwf	___ftge@ff2+1,c
 15229  00BB82  0E80               	movlw	128
 15230  00BB84  2009               	addwfc	??___ftge+2,w,c
 15231  00BB86  6E06               	movwf	___ftge@ff2+2,c
 15232  00BB88  D000               	goto	l4246
 15233  00BB8A                     l4246:
 15234  00BB8A  0E00               	movlw	0
 15235  00BB8C  1A01               	xorwf	___ftge@ff1,f,c
 15236  00BB8E  0E00               	movlw	0
 15237  00BB90  1A02               	xorwf	___ftge@ff1+1,f,c
 15238  00BB92  0E80               	movlw	128
 15239  00BB94  1A03               	xorwf	___ftge@ff1+2,f,c
 15240  00BB96  0E00               	movlw	0
 15241  00BB98  1A04               	xorwf	___ftge@ff2,f,c
 15242  00BB9A  0E00               	movlw	0
 15243  00BB9C  1A05               	xorwf	___ftge@ff2+1,f,c
 15244  00BB9E  0E80               	movlw	128
 15245  00BBA0  1A06               	xorwf	___ftge@ff2+2,f,c
 15246  00BBA2  5004               	movf	___ftge@ff2,w,c
 15247  00BBA4  5C01               	subwf	___ftge@ff1,w,c
 15248  00BBA6  5005               	movf	___ftge@ff2+1,w,c
 15249  00BBA8  5802               	subwfb	___ftge@ff1+1,w,c
 15250  00BBAA  5006               	movf	___ftge@ff2+2,w,c
 15251  00BBAC  5803               	subwfb	___ftge@ff1+2,w,c
 15252  00BBAE  B0D8               	btfsc	status,0,c
 15253  00BBB0  D002               	goto	l4252
 15254  00BBB2  90D8               	bcf	status,0,c
 15255  00BBB4  0012               	return	
 15256  00BBB6                     l4252:
 15257  00BBB6  80D8               	bsf	status,0,c
 15258  00BBB8  0012               	return	
 15259  00BBBA  0012               	return		;funcret
 15260  00BBBC                     __end_of___ftge:
 15261                           	opt stack 0
 15262                           tblptru	equ	0xFF8
 15263                           tblptrh	equ	0xFF7
 15264                           tblptrl	equ	0xFF6
 15265                           tablat	equ	0xFF5
 15266                           prodh	equ	0xFF4
 15267                           prodl	equ	0xFF3
 15268                           intcon	equ	0xFF2
 15269                           indf0	equ	0xFEF
 15270                           postinc0	equ	0xFEE
 15271                           fsr0h	equ	0xFEA
 15272                           fsr0l	equ	0xFE9
 15273                           wreg	equ	0xFE8
 15274                           postdec1	equ	0xFE5
 15275                           fsr1l	equ	0xFE1
 15276                           indf2	equ	0xFDF
 15277                           postinc2	equ	0xFDE
 15278                           postdec2	equ	0xFDD
 15279                           fsr2h	equ	0xFDA
 15280                           fsr2l	equ	0xFD9
 15281                           status	equ	0xFD8
 15282                           
 15283 ;; *************** function _Lcd_Init *****************
 15284 ;; Defined at:
 15285 ;;		line 42 in file "../lcd.h"
 15286 ;; Parameters:    Size  Location     Type
 15287 ;;		None
 15288 ;; Auto vars:     Size  Location     Type
 15289 ;;  data            1    4[COMRAM] unsigned char 
 15290 ;; Return value:  Size  Location     Type
 15291 ;;		None               void
 15292 ;; Registers used:
 15293 ;;		wreg, status,2, status,0, cstack
 15294 ;; Tracked objects:
 15295 ;;		On entry : 0/0
 15296 ;;		On exit  : 0/0
 15297 ;;		Unchanged: 0/0
 15298 ;; Data sizes:     COMRAM   BANK0   BANK1   BANK2   BANK3   BANK4   BANK5   BANK6   BANK7   BANK8   BANK9  BANK10  BANK1
      +1  BANK12  BANK13  BANK14
 15299 ;;      Params:         0       0       0       0       0       0       0       0       0       0       0       0       
      +0       0       0       0
 15300 ;;      Locals:         1       0       0       0       0       0       0       0       0       0       0       0       
      +0       0       0       0
 15301 ;;      Temps:          1       0       0       0       0       0       0       0       0       0       0       0       
      +0       0       0       0
 15302 ;;      Totals:         2       0       0       0       0       0       0       0       0       0       0       0       
      +0       0       0       0
 15303 ;;Total ram usage:        2 bytes
 15304 ;; Hardware stack levels used:    1
 15305 ;; Hardware stack levels required when called:    1
 15306 ;; This function calls:
 15307 ;;		_Lcd_Cmd
 15308 ;; This function is called by:
 15309 ;;		_main
 15310 ;; This function uses a non-reentrant model
 15311 ;;
 15312                           
 15313                           	psect	text43
 15314  00C208                     __ptext43:
 15315                           	opt stack 0
 15316  00C208                     _Lcd_Init:
 15317                           	opt stack 29
 15318                           
 15319                           ;lcd.h: 43: unsigned char data;
 15320                           ;lcd.h: 44: TRISBbits.TRISB0 = 0;
 15321                           
 15322                           ;incstack = 0
 15323  00C208  9093               	bcf	3987,0,c	;volatile
 15324                           
 15325                           ;lcd.h: 45: TRISBbits.TRISB1 = 0;
 15326  00C20A  9293               	bcf	3987,1,c	;volatile
 15327                           
 15328                           ;lcd.h: 46: TRISBbits.TRISB2 = 0;
 15329  00C20C  9493               	bcf	3987,2,c	;volatile
 15330                           
 15331                           ;lcd.h: 47: TRISBbits.TRISB3 = 0;
 15332  00C20E  9693               	bcf	3987,3,c	;volatile
 15333                           
 15334                           ;lcd.h: 48: TRISBbits.TRISB4 = 0;
 15335  00C210  9893               	bcf	3987,4,c	;volatile
 15336                           
 15337                           ;lcd.h: 49: TRISBbits.TRISB5 = 0;
 15338  00C212  9A93               	bcf	3987,5,c	;volatile
 15339                           
 15340                           ;lcd.h: 50: LATBbits.LATB0 = 0;
 15341  00C214  908A               	bcf	3978,0,c	;volatile
 15342                           
 15343                           ;lcd.h: 51: LATBbits.LATB1 = 0;
 15344  00C216  928A               	bcf	3978,1,c	;volatile
 15345                           
 15346                           ;lcd.h: 52: LATBbits.LATB2 = 0;
 15347  00C218  948A               	bcf	3978,2,c	;volatile
 15348                           
 15349                           ;lcd.h: 53: LATBbits.LATB3 = 0;
 15350  00C21A  968A               	bcf	3978,3,c	;volatile
 15351                           
 15352                           ;lcd.h: 54: LATBbits.LATB4 = 0;
 15353  00C21C  988A               	bcf	3978,4,c	;volatile
 15354                           
 15355                           ;lcd.h: 55: LATBbits.LATB5 = 0;
 15356  00C21E  9A8A               	bcf	3978,5,c	;volatile
 15357                           
 15358                           ;lcd.h: 56: _delay((unsigned long)((5500)*(8000000/4000000.0)));
 15359  00C220  0E0F               	movlw	15
 15360  00C222  6E04               	movwf	??_Lcd_Init& (0+255),c
 15361  00C224  0E48               	movlw	72
 15362  00C226                     u7947:
 15363  00C226  2EE8               	decfsz	wreg,f,c
 15364  00C228  D7FE               	goto	u7947
 15365  00C22A  2E04               	decfsz	??_Lcd_Init& (0+255),f,c
 15366  00C22C  D7FC               	goto	u7947
 15367                           
 15368                           ;lcd.h: 57: _delay((unsigned long)((5500)*(8000000/4000000.0)));
 15369  00C22E  0E0F               	movlw	15
 15370  00C230  6E04               	movwf	??_Lcd_Init& (0+255),c
 15371  00C232  0E48               	movlw	72
 15372  00C234                     u7957:
 15373  00C234  2EE8               	decfsz	wreg,f,c
 15374  00C236  D7FE               	goto	u7957
 15375  00C238  2E04               	decfsz	??_Lcd_Init& (0+255),f,c
 15376  00C23A  D7FC               	goto	u7957
 15377                           
 15378                           ;lcd.h: 58: _delay((unsigned long)((5500)*(8000000/4000000.0)));
 15379  00C23C  0E0F               	movlw	15
 15380  00C23E  6E04               	movwf	??_Lcd_Init& (0+255),c
 15381  00C240  0E48               	movlw	72
 15382  00C242                     u7967:
 15383  00C242  2EE8               	decfsz	wreg,f,c
 15384  00C244  D7FE               	goto	u7967
 15385  00C246  2E04               	decfsz	??_Lcd_Init& (0+255),f,c
 15386  00C248  D7FC               	goto	u7967
 15387                           
 15388                           ;lcd.h: 59: _delay((unsigned long)((5500)*(8000000/4000000.0)));
 15389  00C24A  0E0F               	movlw	15
 15390  00C24C  6E04               	movwf	??_Lcd_Init& (0+255),c
 15391  00C24E  0E48               	movlw	72
 15392  00C250                     u7977:
 15393  00C250  2EE8               	decfsz	wreg,f,c
 15394  00C252  D7FE               	goto	u7977
 15395  00C254  2E04               	decfsz	??_Lcd_Init& (0+255),f,c
 15396  00C256  D7FC               	goto	u7977
 15397                           
 15398                           ;lcd.h: 60: _delay((unsigned long)((5500)*(8000000/4000000.0)));
 15399  00C258  0E0F               	movlw	15
 15400  00C25A  6E04               	movwf	??_Lcd_Init& (0+255),c
 15401  00C25C  0E48               	movlw	72
 15402  00C25E                     u7987:
 15403  00C25E  2EE8               	decfsz	wreg,f,c
 15404  00C260  D7FE               	goto	u7987
 15405  00C262  2E04               	decfsz	??_Lcd_Init& (0+255),f,c
 15406  00C264  D7FC               	goto	u7987
 15407                           
 15408                           ;lcd.h: 61: _delay((unsigned long)((5500)*(8000000/4000000.0)));
 15409  00C266  0E0F               	movlw	15
 15410  00C268  6E04               	movwf	??_Lcd_Init& (0+255),c
 15411  00C26A  0E48               	movlw	72
 15412  00C26C                     u7997:
 15413  00C26C  2EE8               	decfsz	wreg,f,c
 15414  00C26E  D7FE               	goto	u7997
 15415  00C270  2E04               	decfsz	??_Lcd_Init& (0+255),f,c
 15416  00C272  D7FC               	goto	u7997
 15417                           
 15418                           ;lcd.h: 62: for(data = 1; data < 4; data ++)
 15419  00C274  0E01               	movlw	1
 15420  00C276  6E05               	movwf	Lcd_Init@data,c
 15421  00C278  D01F               	goto	L24
 15422  00C27A  D021               	goto	l84
 15423  00C27C                     l83:
 15424                           
 15425                           ;lcd.h: 63: {
 15426                           ;lcd.h: 64: LATBbits.LATB0 = 0; LATBbits.LATB1 = 0; LATBbits.LATB2 = 1; LATBbits.LATB3 =
      +                           1; LATBbits.LATB4 = 0;
 15427  00C27C  908A               	bcf	3978,0,c	;volatile
 15428  00C27E  928A               	bcf	3978,1,c	;volatile
 15429  00C280  848A               	bsf	3978,2,c	;volatile
 15430  00C282  868A               	bsf	3978,3,c	;volatile
 15431  00C284  988A               	bcf	3978,4,c	;volatile
 15432                           
 15433                           ;lcd.h: 65: LATBbits.LATB5 = 0; LATBbits.LATB0 = 0; LATBbits.LATB1 = 0; LATBbits.LATB2 =
      +                           1; LATBbits.LATB3 = 1;
 15434  00C286  9A8A               	bcf	3978,5,c	;volatile
 15435  00C288  908A               	bcf	3978,0,c	;volatile
 15436  00C28A  928A               	bcf	3978,1,c	;volatile
 15437  00C28C  848A               	bsf	3978,2,c	;volatile
 15438  00C28E  868A               	bsf	3978,3,c	;volatile
 15439                           
 15440                           ;lcd.h: 66: LATBbits.LATB4 = 1; LATBbits.LATB5 = 0;
 15441  00C290  888A               	bsf	3978,4,c	;volatile
 15442  00C292  9A8A               	bcf	3978,5,c	;volatile
 15443                           
 15444                           ;lcd.h: 67: _delay((unsigned long)((5)*(8000000/4000000.0)));
 15445  00C294  0E03               	movlw	3
 15446  00C296                     u8007:
 15447  00C296  2EE8               	decfsz	wreg,f,c
 15448  00C298  D7FE               	goto	u8007
 15449  00C29A  F000               	nop	
 15450                           
 15451                           ;lcd.h: 68: LATBbits.LATB0 = 0; LATBbits.LATB1 = 0; LATBbits.LATB2 = 1; LATBbits.LATB3 =
      +                           1; LATBbits.LATB4 = 0;
 15452  00C29C  908A               	bcf	3978,0,c	;volatile
 15453  00C29E  928A               	bcf	3978,1,c	;volatile
 15454  00C2A0  848A               	bsf	3978,2,c	;volatile
 15455  00C2A2  868A               	bsf	3978,3,c	;volatile
 15456  00C2A4  988A               	bcf	3978,4,c	;volatile
 15457                           
 15458                           ;lcd.h: 69: LATBbits.LATB5 = 0;
 15459  00C2A6  9A8A               	bcf	3978,5,c	;volatile
 15460                           
 15461                           ;lcd.h: 70: _delay((unsigned long)((5500)*(8000000/4000000.0)));
 15462  00C2A8  0E0F               	movlw	15
 15463  00C2AA  6E04               	movwf	??_Lcd_Init& (0+255),c
 15464  00C2AC  0E48               	movlw	72
 15465  00C2AE                     u8017:
 15466  00C2AE  2EE8               	decfsz	wreg,f,c
 15467  00C2B0  D7FE               	goto	u8017
 15468  00C2B2  2E04               	decfsz	??_Lcd_Init& (0+255),f,c
 15469  00C2B4  D7FC               	goto	u8017
 15470  00C2B6  2A05               	incf	Lcd_Init@data,f,c
 15471  00C2B8                     L24:
 15472  00C2B8  0E03               	movlw	3
 15473  00C2BA  6405               	cpfsgt	Lcd_Init@data,c
 15474  00C2BC  D7DF               	goto	l83
 15475  00C2BE                     l84:
 15476                           
 15477                           ;lcd.h: 71: }
 15478                           ;lcd.h: 72: LATBbits.LATB0 = 0; LATBbits.LATB1 = 0; LATBbits.LATB2 = 1; LATBbits.LATB3 =
      +                           0; LATBbits.LATB4 = 0; LATBbits.LATB5 = 0;
 15479  00C2BE  908A               	bcf	3978,0,c	;volatile
 15480  00C2C0  928A               	bcf	3978,1,c	;volatile
 15481  00C2C2  848A               	bsf	3978,2,c	;volatile
 15482  00C2C4  968A               	bcf	3978,3,c	;volatile
 15483  00C2C6  988A               	bcf	3978,4,c	;volatile
 15484  00C2C8  9A8A               	bcf	3978,5,c	;volatile
 15485                           
 15486                           ;lcd.h: 73: LATBbits.LATB0 = 0; LATBbits.LATB1 = 0; LATBbits.LATB2 = 1; LATBbits.LATB3 =
      +                           0; LATBbits.LATB4 = 1; LATBbits.LATB5 = 0;
 15487  00C2CA  908A               	bcf	3978,0,c	;volatile
 15488  00C2CC  928A               	bcf	3978,1,c	;volatile
 15489  00C2CE  848A               	bsf	3978,2,c	;volatile
 15490  00C2D0  968A               	bcf	3978,3,c	;volatile
 15491  00C2D2  888A               	bsf	3978,4,c	;volatile
 15492  00C2D4  9A8A               	bcf	3978,5,c	;volatile
 15493                           
 15494                           ;lcd.h: 74: _delay((unsigned long)((5)*(8000000/4000000.0)));
 15495  00C2D6  0E03               	movlw	3
 15496  00C2D8                     u8027:
 15497  00C2D8  2EE8               	decfsz	wreg,f,c
 15498  00C2DA  D7FE               	goto	u8027
 15499  00C2DC  F000               	nop	
 15500                           
 15501                           ;lcd.h: 75: LATBbits.LATB0 = 0; LATBbits.LATB1 = 0; LATBbits.LATB2 = 1; LATBbits.LATB3 =
      +                           0; LATBbits.LATB4 = 0; LATBbits.LATB5 = 0;
 15502  00C2DE  908A               	bcf	3978,0,c	;volatile
 15503  00C2E0  928A               	bcf	3978,1,c	;volatile
 15504  00C2E2  848A               	bsf	3978,2,c	;volatile
 15505  00C2E4  968A               	bcf	3978,3,c	;volatile
 15506  00C2E6  988A               	bcf	3978,4,c	;volatile
 15507  00C2E8  9A8A               	bcf	3978,5,c	;volatile
 15508                           
 15509                           ;lcd.h: 76: _delay((unsigned long)((5500)*(8000000/4000000.0)));
 15510  00C2EA  0E0F               	movlw	15
 15511  00C2EC  6E04               	movwf	??_Lcd_Init& (0+255),c
 15512  00C2EE  0E48               	movlw	72
 15513  00C2F0                     u8037:
 15514  00C2F0  2EE8               	decfsz	wreg,f,c
 15515  00C2F2  D7FE               	goto	u8037
 15516  00C2F4  2E04               	decfsz	??_Lcd_Init& (0+255),f,c
 15517  00C2F6  D7FC               	goto	u8037
 15518                           
 15519                           ;lcd.h: 77: data = 40; Lcd_Cmd(data);
 15520  00C2F8  0E28               	movlw	40
 15521  00C2FA  6E05               	movwf	Lcd_Init@data,c
 15522  00C2FC  5005               	movf	Lcd_Init@data,w,c
 15523  00C2FE  EC20  F062         	call	_Lcd_Cmd
 15524                           
 15525                           ;lcd.h: 78: data = 16; Lcd_Cmd(data);
 15526  00C302  0E10               	movlw	16
 15527  00C304  6E05               	movwf	Lcd_Init@data,c
 15528  00C306  5005               	movf	Lcd_Init@data,w,c
 15529  00C308  EC20  F062         	call	_Lcd_Cmd
 15530                           
 15531                           ;lcd.h: 79: data = 1; Lcd_Cmd(data);
 15532  00C30C  0E01               	movlw	1
 15533  00C30E  6E05               	movwf	Lcd_Init@data,c
 15534  00C310  5005               	movf	Lcd_Init@data,w,c
 15535  00C312  EC20  F062         	call	_Lcd_Cmd
 15536                           
 15537                           ;lcd.h: 80: data = 15; Lcd_Cmd(data);
 15538  00C316  0E0F               	movlw	15
 15539  00C318  6E05               	movwf	Lcd_Init@data,c
 15540  00C31A  5005               	movf	Lcd_Init@data,w,c
 15541  00C31C  EC20  F062         	call	_Lcd_Cmd
 15542  00C320  0012               	return		;funcret
 15543  00C322                     __end_of_Lcd_Init:
 15544                           	opt stack 0
 15545                           tblptru	equ	0xFF8
 15546                           tblptrh	equ	0xFF7
 15547                           tblptrl	equ	0xFF6
 15548                           tablat	equ	0xFF5
 15549                           prodh	equ	0xFF4
 15550                           prodl	equ	0xFF3
 15551                           intcon	equ	0xFF2
 15552                           indf0	equ	0xFEF
 15553                           postinc0	equ	0xFEE
 15554                           fsr0h	equ	0xFEA
 15555                           fsr0l	equ	0xFE9
 15556                           wreg	equ	0xFE8
 15557                           postdec1	equ	0xFE5
 15558                           fsr1l	equ	0xFE1
 15559                           indf2	equ	0xFDF
 15560                           postinc2	equ	0xFDE
 15561                           postdec2	equ	0xFDD
 15562                           fsr2h	equ	0xFDA
 15563                           fsr2l	equ	0xFD9
 15564                           status	equ	0xFD8
 15565                           
 15566 ;; *************** function _Lcd_Cmd *****************
 15567 ;; Defined at:
 15568 ;;		line 140 in file "../lcd.h"
 15569 ;; Parameters:    Size  Location     Type
 15570 ;;  data            1    wreg     unsigned char 
 15571 ;; Auto vars:     Size  Location     Type
 15572 ;;  data            1    2[COMRAM] unsigned char 
 15573 ;; Return value:  Size  Location     Type
 15574 ;;		None               void
 15575 ;; Registers used:
 15576 ;;		wreg, status,2, status,0
 15577 ;; Tracked objects:
 15578 ;;		On entry : 0/0
 15579 ;;		On exit  : 0/0
 15580 ;;		Unchanged: 0/0
 15581 ;; Data sizes:     COMRAM   BANK0   BANK1   BANK2   BANK3   BANK4   BANK5   BANK6   BANK7   BANK8   BANK9  BANK10  BANK1
      +1  BANK12  BANK13  BANK14
 15582 ;;      Params:         0       0       0       0       0       0       0       0       0       0       0       0       
      +0       0       0       0
 15583 ;;      Locals:         1       0       0       0       0       0       0       0       0       0       0       0       
      +0       0       0       0
 15584 ;;      Temps:          2       0       0       0       0       0       0       0       0       0       0       0       
      +0       0       0       0
 15585 ;;      Totals:         3       0       0       0       0       0       0       0       0       0       0       0       
      +0       0       0       0
 15586 ;;Total ram usage:        3 bytes
 15587 ;; Hardware stack levels used:    1
 15588 ;; This function calls:
 15589 ;;		Nothing
 15590 ;; This function is called by:
 15591 ;;		_Lcd_Init
 15592 ;;		_Lcd_Out
 15593 ;;		_main
 15594 ;;		_V_ProgReloj
 15595 ;;		_V_ProgRiegoIlum
 15596 ;;		_V_ProgTempAgua
 15597 ;;		_V_Reiniciar
 15598 ;;		_escribir
 15599 ;;		_Lcd_Out2
 15600 ;; This function uses a non-reentrant model
 15601 ;;
 15602                           
 15603                           	psect	text44
 15604  00C440                     __ptext44:
 15605                           	opt stack 0
 15606  00C440                     _Lcd_Cmd:
 15607                           	opt stack 28
 15608                           
 15609                           ;incstack = 0
 15610                           ;Lcd_Cmd@data stored from wreg
 15611  00C440  6E03               	movwf	Lcd_Cmd@data,c
 15612                           
 15613                           ;lcd.h: 141: LATBbits.LATB4 = 0; LATBbits.LATB5 = 0;
 15614  00C442  988A               	bcf	3978,4,c	;volatile
 15615  00C444  9A8A               	bcf	3978,5,c	;volatile
 15616                           
 15617                           ;lcd.h: 142: LATBbits.LATB0 = (data & 0b10000000)>>7; LATBbits.LATB1 = (data & 0b0100000
      +                          0)>>6;
 15618  00C446  6A01               	clrf	??_Lcd_Cmd& (0+255),c
 15619  00C448  AE03               	btfss	Lcd_Cmd@data,7,c
 15620  00C44A  D001               	bra	u4355
 15621  00C44C  2A01               	incf	??_Lcd_Cmd& (0+255),f,c
 15622  00C44E                     u4355:
 15623  00C44E  0E01               	movlw	1
 15624  00C450  1601               	andwf	??_Lcd_Cmd,f,c
 15625  00C452  508A               	movf	3978,w,c	;volatile
 15626  00C454  1801               	xorwf	??_Lcd_Cmd,w,c
 15627  00C456  0BFE               	andlw	-2
 15628  00C458  1801               	xorwf	??_Lcd_Cmd,w,c
 15629  00C45A  6E8A               	movwf	3978,c	;volatile
 15630  00C45C  C003  F001         	movff	Lcd_Cmd@data,??_Lcd_Cmd
 15631  00C460  0E06               	movlw	6
 15632  00C462  6E02               	movwf	(??_Lcd_Cmd+1)& (0+255),c
 15633  00C464                     u4365:
 15634  00C464  90D8               	bcf	status,0,c
 15635  00C466  3201               	rrcf	??_Lcd_Cmd,f,c
 15636  00C468  2E02               	decfsz	(??_Lcd_Cmd+1)& (0+255),f,c
 15637  00C46A  D7FC               	goto	u4365
 15638  00C46C  0E01               	movlw	1
 15639  00C46E  1601               	andwf	??_Lcd_Cmd,f,c
 15640  00C470  4601               	rlncf	??_Lcd_Cmd,f,c
 15641  00C472  508A               	movf	3978,w,c	;volatile
 15642  00C474  1801               	xorwf	??_Lcd_Cmd,w,c
 15643  00C476  0BFD               	andlw	-3
 15644  00C478  1801               	xorwf	??_Lcd_Cmd,w,c
 15645  00C47A  6E8A               	movwf	3978,c	;volatile
 15646                           
 15647                           ;lcd.h: 143: LATBbits.LATB2 = (data & 0b00100000)>>5; LATBbits.LATB3 = (data & 0b0001000
      +                          0)>>4;
 15648  00C47C  C003  F001         	movff	Lcd_Cmd@data,??_Lcd_Cmd
 15649  00C480  0E05               	movlw	5
 15650  00C482  6E02               	movwf	(??_Lcd_Cmd+1)& (0+255),c
 15651  00C484                     u4375:
 15652  00C484  90D8               	bcf	status,0,c
 15653  00C486  3201               	rrcf	??_Lcd_Cmd,f,c
 15654  00C488  2E02               	decfsz	(??_Lcd_Cmd+1)& (0+255),f,c
 15655  00C48A  D7FC               	goto	u4375
 15656  00C48C  0E01               	movlw	1
 15657  00C48E  1601               	andwf	??_Lcd_Cmd,f,c
 15658  00C490  4601               	rlncf	??_Lcd_Cmd,f,c
 15659  00C492  4601               	rlncf	??_Lcd_Cmd,f,c
 15660  00C494  508A               	movf	3978,w,c	;volatile
 15661  00C496  1801               	xorwf	??_Lcd_Cmd,w,c
 15662  00C498  0BFB               	andlw	-5
 15663  00C49A  1801               	xorwf	??_Lcd_Cmd,w,c
 15664  00C49C  6E8A               	movwf	3978,c	;volatile
 15665  00C49E  C003  F001         	movff	Lcd_Cmd@data,??_Lcd_Cmd
 15666  00C4A2  3A01               	swapf	??_Lcd_Cmd,f,c
 15667  00C4A4  0E0F               	movlw	15
 15668  00C4A6  1601               	andwf	??_Lcd_Cmd,f,c
 15669  00C4A8  0E01               	movlw	1
 15670  00C4AA  1601               	andwf	??_Lcd_Cmd,f,c
 15671  00C4AC  4601               	rlncf	??_Lcd_Cmd,f,c
 15672  00C4AE  4601               	rlncf	??_Lcd_Cmd,f,c
 15673  00C4B0  4601               	rlncf	??_Lcd_Cmd,f,c
 15674  00C4B2  508A               	movf	3978,w,c	;volatile
 15675  00C4B4  1801               	xorwf	??_Lcd_Cmd,w,c
 15676  00C4B6  0BF7               	andlw	-9
 15677  00C4B8  1801               	xorwf	??_Lcd_Cmd,w,c
 15678  00C4BA  6E8A               	movwf	3978,c	;volatile
 15679                           
 15680                           ;lcd.h: 144: _delay(10);
 15681  00C4BC  0E03               	movlw	3
 15682  00C4BE                     u8047:
 15683  00C4BE  2EE8               	decfsz	wreg,f,c
 15684  00C4C0  D7FE               	goto	u8047
 15685  00C4C2  F000               	nop	
 15686                           
 15687                           ;lcd.h: 145: LATBbits.LATB4 = 1; _delay((unsigned long)((5)*(8000000/4000000.0))); LATBb
      +                          its.LATB4 = 0;
 15688  00C4C4  888A               	bsf	3978,4,c	;volatile
 15689  00C4C6  0E03               	movlw	3
 15690  00C4C8                     u8057:
 15691  00C4C8  2EE8               	decfsz	wreg,f,c
 15692  00C4CA  D7FE               	goto	u8057
 15693  00C4CC  F000               	nop	
 15694  00C4CE  988A               	bcf	3978,4,c	;volatile
 15695                           
 15696                           ;lcd.h: 146: LATBbits.LATB0 = (data & 0b00001000)>>3; LATBbits.LATB1 = (data & 0b0000010
      +                          0)>>2;
 15697  00C4D0  C003  F001         	movff	Lcd_Cmd@data,??_Lcd_Cmd
 15698  00C4D4  90D8               	bcf	status,0,c
 15699  00C4D6  3201               	rrcf	??_Lcd_Cmd,f,c
 15700  00C4D8  90D8               	bcf	status,0,c
 15701  00C4DA  3201               	rrcf	??_Lcd_Cmd,f,c
 15702  00C4DC  90D8               	bcf	status,0,c
 15703  00C4DE  3201               	rrcf	??_Lcd_Cmd,f,c
 15704  00C4E0  0E01               	movlw	1
 15705  00C4E2  1601               	andwf	??_Lcd_Cmd,f,c
 15706  00C4E4  508A               	movf	3978,w,c	;volatile
 15707  00C4E6  1801               	xorwf	??_Lcd_Cmd,w,c
 15708  00C4E8  0BFE               	andlw	-2
 15709  00C4EA  1801               	xorwf	??_Lcd_Cmd,w,c
 15710  00C4EC  6E8A               	movwf	3978,c	;volatile
 15711  00C4EE  C003  F001         	movff	Lcd_Cmd@data,??_Lcd_Cmd
 15712  00C4F2  90D8               	bcf	status,0,c
 15713  00C4F4  3201               	rrcf	??_Lcd_Cmd,f,c
 15714  00C4F6  90D8               	bcf	status,0,c
 15715  00C4F8  3201               	rrcf	??_Lcd_Cmd,f,c
 15716  00C4FA  0E01               	movlw	1
 15717  00C4FC  1601               	andwf	??_Lcd_Cmd,f,c
 15718  00C4FE  4601               	rlncf	??_Lcd_Cmd,f,c
 15719  00C500  508A               	movf	3978,w,c	;volatile
 15720  00C502  1801               	xorwf	??_Lcd_Cmd,w,c
 15721  00C504  0BFD               	andlw	-3
 15722  00C506  1801               	xorwf	??_Lcd_Cmd,w,c
 15723  00C508  6E8A               	movwf	3978,c	;volatile
 15724                           
 15725                           ;lcd.h: 147: LATBbits.LATB2 = (data & 0b00000010)>>1; LATBbits.LATB3 = (data & 0b0000000
      +                          1);
 15726  00C50A  C003  F001         	movff	Lcd_Cmd@data,??_Lcd_Cmd
 15727  00C50E  90D8               	bcf	status,0,c
 15728  00C510  3201               	rrcf	??_Lcd_Cmd,f,c
 15729  00C512  0E01               	movlw	1
 15730  00C514  1601               	andwf	??_Lcd_Cmd,f,c
 15731  00C516  4601               	rlncf	??_Lcd_Cmd,f,c
 15732  00C518  4601               	rlncf	??_Lcd_Cmd,f,c
 15733  00C51A  508A               	movf	3978,w,c	;volatile
 15734  00C51C  1801               	xorwf	??_Lcd_Cmd,w,c
 15735  00C51E  0BFB               	andlw	-5
 15736  00C520  1801               	xorwf	??_Lcd_Cmd,w,c
 15737  00C522  6E8A               	movwf	3978,c	;volatile
 15738  00C524  C003  F001         	movff	Lcd_Cmd@data,??_Lcd_Cmd
 15739  00C528  0E01               	movlw	1
 15740  00C52A  1601               	andwf	??_Lcd_Cmd,f,c
 15741  00C52C  4601               	rlncf	??_Lcd_Cmd,f,c
 15742  00C52E  4601               	rlncf	??_Lcd_Cmd,f,c
 15743  00C530  4601               	rlncf	??_Lcd_Cmd,f,c
 15744  00C532  508A               	movf	3978,w,c	;volatile
 15745  00C534  1801               	xorwf	??_Lcd_Cmd,w,c
 15746  00C536  0BF7               	andlw	-9
 15747  00C538  1801               	xorwf	??_Lcd_Cmd,w,c
 15748  00C53A  6E8A               	movwf	3978,c	;volatile
 15749                           
 15750                           ;lcd.h: 148: _delay(10);
 15751  00C53C  0E03               	movlw	3
 15752  00C53E                     u8067:
 15753  00C53E  2EE8               	decfsz	wreg,f,c
 15754  00C540  D7FE               	goto	u8067
 15755  00C542  F000               	nop	
 15756                           
 15757                           ;lcd.h: 149: LATBbits.LATB4 = 1; _delay((unsigned long)((5)*(8000000/4000000.0))); LATBb
      +                          its.LATB4 = 0;
 15758  00C544  888A               	bsf	3978,4,c	;volatile
 15759  00C546  0E03               	movlw	3
 15760  00C548                     u8077:
 15761  00C548  2EE8               	decfsz	wreg,f,c
 15762  00C54A  D7FE               	goto	u8077
 15763  00C54C  F000               	nop	
 15764  00C54E  988A               	bcf	3978,4,c	;volatile
 15765                           
 15766                           ;lcd.h: 150: _delay((unsigned long)((5500)*(8000000/4000000.0)));
 15767  00C550  0E0F               	movlw	15
 15768  00C552  6E01               	movwf	??_Lcd_Cmd& (0+255),c
 15769  00C554  0E48               	movlw	72
 15770  00C556                     u8087:
 15771  00C556  2EE8               	decfsz	wreg,f,c
 15772  00C558  D7FE               	goto	u8087
 15773  00C55A  2E01               	decfsz	??_Lcd_Cmd& (0+255),f,c
 15774  00C55C  D7FC               	goto	u8087
 15775  00C55E  0012               	return		;funcret
 15776  00C560                     __end_of_Lcd_Cmd:
 15777                           	opt stack 0
 15778                           tblptru	equ	0xFF8
 15779                           tblptrh	equ	0xFF7
 15780                           tblptrl	equ	0xFF6
 15781                           tablat	equ	0xFF5
 15782                           prodh	equ	0xFF4
 15783                           prodl	equ	0xFF3
 15784                           intcon	equ	0xFF2
 15785                           indf0	equ	0xFEF
 15786                           postinc0	equ	0xFEE
 15787                           fsr0h	equ	0xFEA
 15788                           fsr0l	equ	0xFE9
 15789                           wreg	equ	0xFE8
 15790                           postdec1	equ	0xFE5
 15791                           fsr1l	equ	0xFE1
 15792                           indf2	equ	0xFDF
 15793                           postinc2	equ	0xFDE
 15794                           postdec2	equ	0xFDD
 15795                           fsr2h	equ	0xFDA
 15796                           fsr2l	equ	0xFD9
 15797                           status	equ	0xFD8
 15798                           tblptru	equ	0xFF8
 15799                           tblptrh	equ	0xFF7
 15800                           tblptrl	equ	0xFF6
 15801                           tablat	equ	0xFF5
 15802                           prodh	equ	0xFF4
 15803                           prodl	equ	0xFF3
 15804                           intcon	equ	0xFF2
 15805                           indf0	equ	0xFEF
 15806                           postinc0	equ	0xFEE
 15807                           fsr0h	equ	0xFEA
 15808                           fsr0l	equ	0xFE9
 15809                           wreg	equ	0xFE8
 15810                           postdec1	equ	0xFE5
 15811                           fsr1l	equ	0xFE1
 15812                           indf2	equ	0xFDF
 15813                           postinc2	equ	0xFDE
 15814                           postdec2	equ	0xFDD
 15815                           fsr2h	equ	0xFDA
 15816                           fsr2l	equ	0xFD9
 15817                           status	equ	0xFD8
 15818                           
 15819                           	psect	rparam
 15820  0000                     tblptru	equ	0xFF8
 15821                           tblptrh	equ	0xFF7
 15822                           tblptrl	equ	0xFF6
 15823                           tablat	equ	0xFF5
 15824                           prodh	equ	0xFF4
 15825                           prodl	equ	0xFF3
 15826                           intcon	equ	0xFF2
 15827                           indf0	equ	0xFEF
 15828                           postinc0	equ	0xFEE
 15829                           fsr0h	equ	0xFEA
 15830                           fsr0l	equ	0xFE9
 15831                           wreg	equ	0xFE8
 15832                           postdec1	equ	0xFE5
 15833                           fsr1l	equ	0xFE1
 15834                           indf2	equ	0xFDF
 15835                           postinc2	equ	0xFDE
 15836                           postdec2	equ	0xFDD
 15837                           fsr2h	equ	0xFDA
 15838                           fsr2l	equ	0xFD9
 15839                           status	equ	0xFD8


Data Sizes:
    Strings     562
    Constant    198
    Data        77
    BSS         74
    Persistent  13
    Stack       0

Auto Spaces:
    Space          Size  Autos    Used
    COMRAM           95     93      95
    BANK0           160     74     156
    BANK1           256      0      80
    BANK2           256      0       0
    BANK3           256      0       0
    BANK4           256      0       0
    BANK5           256      0       0
    BANK6           256      0       0
    BANK7           256      0       0
    BANK8           256      0       0
    BANK9           256      0       0
    BANK10          256      0       0
    BANK11          256      0       0
    BANK12          256      0       0
    BANK13          256      0       0
    BANK14          192      0       0

Pointer List with Targets:

    RtccWriteTime@pTm	PTR const struct . size(2) Largest target is 4
		 -> RtccTime(BANK0[4]), 

    RtccWriteDate@pDt	PTR const struct . size(2) Largest target is 4
		 -> RtccDate(BANK0[4]), 

    RtccReadTime@pTm	PTR struct . size(2) Largest target is 4
		 -> RtccTime(BANK0[4]), 

    RtccReadDate@pDt	PTR struct . size(2) Largest target is 4
		 -> RtccDate(BANK0[4]), 

    sprintf$1272	PTR const unsigned char  size(2) Largest target is 17
		 -> STR_82(CODE[17]), STR_81(CODE[17]), 

    sprintf@cp	PTR const unsigned char  size(2) Largest target is 21
		 -> STR_80(CODE[7]), sprintf@c(BANK0[1]), STR_78(CODE[21]), STR_76(CODE[21]), 
		 -> STR_74(CODE[21]), STR_72(CODE[21]), STR_70(CODE[21]), STR_68(CODE[21]), 
		 -> STR_66(CODE[21]), 

    sprintf@f	PTR const unsigned char  size(2) Largest target is 28
		 -> STR_77(CODE[3]), STR_75(CODE[3]), STR_73(CODE[3]), STR_71(CODE[3]), 
		 -> STR_69(CODE[3]), STR_67(CODE[3]), STR_65(CODE[3]), STR_56(CODE[5]), 
		 -> STR_54(CODE[6]), STR_52(CODE[21]), STR_48(CODE[5]), STR_47(CODE[5]), 
		 -> STR_46(CODE[5]), STR_45(CODE[5]), STR_44(CODE[5]), STR_43(CODE[5]), 
		 -> STR_42(CODE[5]), STR_41(CODE[5]), STR_38(CODE[5]), STR_37(CODE[5]), 
		 -> STR_36(CODE[5]), STR_35(CODE[5]), STR_34(CODE[5]), STR_33(CODE[5]), 
		 -> STR_32(CODE[5]), STR_31(CODE[5]), STR_29(CODE[14]), STR_28(CODE[15]), 
		 -> STR_26(CODE[14]), STR_25(CODE[15]), STR_23(CODE[5]), STR_22(CODE[5]), 
		 -> STR_21(CODE[5]), STR_20(CODE[5]), STR_19(CODE[5]), STR_15(CODE[5]), 
		 -> STR_14(CODE[5]), STR_13(CODE[5]), STR_12(CODE[5]), STR_11(CODE[5]), 
		 -> STR_9(CODE[3]), STR_7(CODE[17]), STR_6(CODE[28]), STR_4(CODE[14]), 
		 -> STR_3(CODE[17]), STR_2(CODE[28]), 

    sprintf@sp	PTR unsigned char  size(2) Largest target is 20
		 -> Convert_diasem@buffer_dia(BANK0[20]), buffer1(BANK0[20]), 

    sprintf@ap	PTR void [1] size(2) Largest target is 2
		 -> ?_sprintf(COMRAM[2]), 

    escribir@formato	PTR unsigned char  size(2) Largest target is 5
		 -> STR_48(CODE[5]), STR_47(CODE[5]), STR_46(CODE[5]), STR_45(CODE[5]), 
		 -> STR_44(CODE[5]), STR_43(CODE[5]), STR_42(CODE[5]), STR_41(CODE[5]), 
		 -> STR_38(CODE[5]), STR_37(CODE[5]), STR_36(CODE[5]), STR_35(CODE[5]), 
		 -> STR_34(CODE[5]), STR_33(CODE[5]), STR_32(CODE[5]), STR_31(CODE[5]), 
		 -> STR_23(CODE[5]), STR_22(CODE[5]), STR_21(CODE[5]), STR_20(CODE[5]), 
		 -> STR_19(CODE[5]), STR_15(CODE[5]), STR_14(CODE[5]), STR_13(CODE[5]), 
		 -> STR_12(CODE[5]), STR_11(CODE[5]), 

    V_ProgReloj@cte	PTR unsigned char  size(2) Largest target is 20
		 -> Convert_diasem@buffer_dia(BANK0[20]), 

    sp__Convert_diasem	PTR unsigned char  size(2) Largest target is 20
		 -> Convert_diasem@buffer_dia(BANK0[20]), 

    V_Principal@cte	PTR unsigned char  size(2) Largest target is 20
		 -> Convert_diasem@buffer_dia(BANK0[20]), 

    Lcd_Out@buffer	PTR const unsigned char  size(2) Largest target is 21
		 -> STR_79(CODE[1]), Convert_diasem@buffer_dia(BANK0[20]), STR_64(CODE[1]), STR_63(CODE[1]), 
		 -> STR_62(CODE[1]), STR_61(CODE[21]), STR_60(CODE[21]), STR_59(CODE[21]), 
		 -> STR_58(CODE[21]), STR_57(CODE[1]), STR_55(CODE[1]), STR_53(CODE[1]), 
		 -> STR_51(CODE[21]), STR_50(CODE[21]), STR_49(CODE[21]), STR_40(CODE[1]), 
		 -> STR_39(CODE[1]), STR_30(CODE[1]), STR_27(CODE[21]), STR_24(CODE[21]), 
		 -> STR_18(CODE[1]), STR_17(CODE[1]), STR_16(CODE[1]), STR_10(CODE[1]), 
		 -> STR_8(CODE[1]), STR_5(CODE[21]), buffer1(BANK0[20]), STR_1(CODE[21]), 


Critical Paths under _main in COMRAM

    _main->_V_ProgTempAgua
    _control_temperatura_agua->___ftdiv
    ___lbtoft->___ftpack
    ___ftdiv->___awtoft
    ___awtoft->___fttol
    _V_Reiniciar->_Lcd_Out
    _V_ProgTempAgua->_Lcd_Out
    _V_ProgRiegoIlum->_escribir
    _V_ProgReloj->_escribir
    _escribir->_Lcd_Out
    _Write_RTC->___awdiv
    _V_Principal->_Lcd_Out
    _Read_RTC->_RtccReadDate
    _Read_RTC->_RtccReadTime
    _Lcd_Out->_Convert_diasem
    _Convert_diasem->_sprintf
    _sprintf->___ftsub
    _scale->___ftmul
    _fround->___ftmul
    ___wmul->___awdiv
    ___ftmul->___wmul
    ___awdiv->___awmod
    ___lltoft->___ftpack
    ___llmod->___lldiv
    ___fttol->_scale
    ___ftsub->___ftadd
    ___ftadd->_fround
    _Lcd_Init->_Lcd_Cmd

Critical Paths under _main in BANK0

    _main->_V_ProgReloj
    _main->_V_ProgRiegoIlum
    _V_ProgRiegoIlum->_escribir
    _V_ProgReloj->_escribir
    _V_Principal->_Convert_diasem
    _Lcd_Out->_Convert_diasem
    _Convert_diasem->_sprintf

Critical Paths under _main in BANK1

    None.

Critical Paths under _main in BANK2

    None.

Critical Paths under _main in BANK3

    None.

Critical Paths under _main in BANK4

    None.

Critical Paths under _main in BANK5

    None.

Critical Paths under _main in BANK6

    None.

Critical Paths under _main in BANK7

    None.

Critical Paths under _main in BANK8

    None.

Critical Paths under _main in BANK9

    None.

Critical Paths under _main in BANK10

    None.

Critical Paths under _main in BANK11

    None.

Critical Paths under _main in BANK12

    None.

Critical Paths under _main in BANK13

    None.

Critical Paths under _main in BANK14

    None.

Call Graph Tables:

 ---------------------------------------------------------------------------------
 (Depth) Function   	        Calls       Base Space   Used Autos Params    Refs
 ---------------------------------------------------------------------------------
 (0) _main                                                 1     1      0  528308
                                             92 COMRAM     1     1      0
                            _Lcd_Cmd
                           _Lcd_Init
                        _V_Principal
                        _V_ProgReloj
                    _V_ProgRiegoIlum
                     _V_ProgTempAgua
                        _V_Reiniciar
                          _Write_RTC
           _control_leds_iluminacion
                 _control_leds_riego
           _control_temperatura_agua
 ---------------------------------------------------------------------------------
 (1) _control_temperatura_agua                             9     9      0   17245
                                             76 COMRAM     9     9      0
                           ___awtoft
                            ___ftadd
                            ___ftdiv
                             ___ftge
                            ___ftmul
                            ___fttol
                           ___lbtoft
                    _lee_temperatura
 ---------------------------------------------------------------------------------
 (2) _lee_temperatura                                      1     1      0       0
                                              0 COMRAM     1     1      0
 ---------------------------------------------------------------------------------
 (2) ___lbtoft                                             4     1      3    2170
                                              8 COMRAM     4     1      3
                           ___ftpack
 ---------------------------------------------------------------------------------
 (2) ___ftdiv                                             15     9      6    2658
                                             61 COMRAM    15     9      6
                           ___awtoft (ARG)
                            ___ftmul (ARG)
                           ___ftpack
                            ___fttol (ARG)
 ---------------------------------------------------------------------------------
 (2) ___awtoft                                             4     1      3    2303
                                             57 COMRAM     4     1      3
                            ___ftmul (ARG)
                           ___ftpack
                            ___fttol (ARG)
 ---------------------------------------------------------------------------------
 (1) _control_leds_riego                                   2     2      0       0
                                              0 COMRAM     2     2      0
 ---------------------------------------------------------------------------------
 (1) _control_leds_iluminacion                             2     2      0       0
                                              0 COMRAM     2     2      0
 ---------------------------------------------------------------------------------
 (1) _V_Reiniciar                                          2     2      0    9795
                                             88 COMRAM     2     2      0
                            _Lcd_Cmd
                            _Lcd_Out
                          _Write_RTC
 ---------------------------------------------------------------------------------
 (1) _V_ProgTempAgua                                       4     4      0   69487
                                             88 COMRAM     4     4      0
                            _Lcd_Cmd
                            _Lcd_Out
                            ___ftadd
                             ___ftge
                            ___ftsub
                            _sprintf
 ---------------------------------------------------------------------------------
 (1) _V_ProgRiegoIlum                                     12    12      0  127085
                                             89 COMRAM     2     2      0
                                             64 BANK0     10    10      0
                            _Lcd_Cmd
                            _Lcd_Out
                           _escribir
                            _sprintf
 ---------------------------------------------------------------------------------
 (1) _V_ProgReloj                                         12    12      0  184961
                                             89 COMRAM     2     2      0
                                             64 BANK0     10    10      0
                     _Convert_diasem
                            _Lcd_Cmd
                            _Lcd_Out
                          _Write_RTC
                           _escribir
                            _sprintf
 ---------------------------------------------------------------------------------
 (2) _escribir                                             5     1      4   65409
                                             88 COMRAM     1     1      0
                                             60 BANK0      4     0      4
                            _Lcd_Cmd
                            _Lcd_Out
                            _sprintf
 ---------------------------------------------------------------------------------
 (1) _Write_RTC                                            0     0      0    3557
                           _RtccWrOn
                      _RtccWriteDate
                      _RtccWriteTime
                            ___awdiv
 ---------------------------------------------------------------------------------
 (2) _RtccWriteTime                                       11     8      3     537
                                              0 COMRAM    11     8      3
                           _RtccWrOn
 ---------------------------------------------------------------------------------
 (2) _RtccWriteDate                                       13    10      3     672
                                              0 COMRAM    13    10      3
                           _RtccWrOn
 ---------------------------------------------------------------------------------
 (3) _RtccWrOn                                             2     2      0       0
 ---------------------------------------------------------------------------------
 (1) _V_Principal                                          2     2      0  115688
                                             88 COMRAM     2     2      0
                     _Convert_diasem
                            _Lcd_Out
                           _Read_RTC
                            _sprintf
 ---------------------------------------------------------------------------------
 (2) _Read_RTC                                             0     0      0     968
                       _RtccReadDate
                       _RtccReadTime
 ---------------------------------------------------------------------------------
 (3) _RtccReadTime                                        18    16      2     437
                                              0 COMRAM    18    16      2
 ---------------------------------------------------------------------------------
 (3) _RtccReadDate                                        18    16      2     531
                                              0 COMRAM    18    16      2
 ---------------------------------------------------------------------------------
 (2) _Lcd_Out                                              5     2      3    6037
                                             83 COMRAM     5     2      3
                     _Convert_diasem (ARG)
                         _Lcd_Chr_CP
                            _Lcd_Cmd
 ---------------------------------------------------------------------------------
 (3) _Lcd_Chr_CP                                           3     3      0     176
                                              0 COMRAM     3     3      0
 ---------------------------------------------------------------------------------
 (2) _Convert_diasem                                      24    22      2   54588
                                             79 COMRAM     4     2      2
                                             40 BANK0     20    20      0
                            _sprintf
 ---------------------------------------------------------------------------------
 (2) _sprintf                                             57    47     10   54072
                                             63 COMRAM    16     6     10
                                              0 BANK0     40    40      0
                            ___awdiv
                            ___ftadd
                             ___ftge
                            ___ftmul
                            ___ftneg
                            ___ftsub
                            ___fttol
                            ___lldiv
                            ___llmod
                           ___lltoft
                             ___wmul
                         __div_to_l_
                        __tdiv_to_l_
                             _fround
                            _isdigit
                              _scale
 ---------------------------------------------------------------------------------
 (3) _scale                                               10     7      3   11372
                                             35 COMRAM     7     4      3
                            ___awdiv
                            ___awmod
                            ___ftmul
                             ___wmul
 ---------------------------------------------------------------------------------
 (3) _isdigit                                              3     3      0      68
                                              0 COMRAM     3     3      0
 ---------------------------------------------------------------------------------
 (3) _fround                                              13    10      3   11174
                                             35 COMRAM    10     7      3
                            ___awdiv
                            ___awmod
                            ___ftmul
                             ___wmul
 ---------------------------------------------------------------------------------
 (4) ___wmul                                               6     2      4    2463
                                             14 COMRAM     6     2      4
                            ___awdiv (ARG)
                            ___awmod (ARG)
 ---------------------------------------------------------------------------------
 (2) ___ftmul                                             15     9      6    4624
                                             20 COMRAM    15     9      6
                            ___awdiv (ARG)
                            ___awmod (ARG)
                           ___ftpack
                           ___lbtoft (ARG)
                             ___wmul (ARG)
 ---------------------------------------------------------------------------------
 (4) ___awmod                                              6     2      4    1448
                                              0 COMRAM     6     2      4
 ---------------------------------------------------------------------------------
 (2) ___awdiv                                              8     4      4    2348
                                              6 COMRAM     8     4      4
                            ___awmod (ARG)
 ---------------------------------------------------------------------------------
 (3) __tdiv_to_l_                                         15     9      6     431
                                              0 COMRAM    15     9      6
 ---------------------------------------------------------------------------------
 (3) __div_to_l_                                          12     6      6     574
                                              0 COMRAM    12     6      6
 ---------------------------------------------------------------------------------
 (3) ___lltoft                                             9     5      4    2281
                                              8 COMRAM     9     5      4
                           ___ftpack
 ---------------------------------------------------------------------------------
 (3) ___llmod                                              9     1      8     671
                                             13 COMRAM     9     1      8
                            ___lldiv (ARG)
 ---------------------------------------------------------------------------------
 (3) ___lldiv                                             13     5      8     802
                                              0 COMRAM    13     5      8
 ---------------------------------------------------------------------------------
 (2) ___fttol                                             15    11      4     508
                                             42 COMRAM    15    11      4
                            ___ftmul (ARG)
                              _scale (ARG)
 ---------------------------------------------------------------------------------
 (3) ___ftsub                                              6     0      6    4155
                                             57 COMRAM     6     0      6
                            ___ftadd
                           ___lltoft (ARG)
 ---------------------------------------------------------------------------------
 (2) ___ftadd                                             12     6      6    3730
                                             45 COMRAM    12     6      6
                           ___ftpack
                             _fround (ARG)
 ---------------------------------------------------------------------------------
 (3) ___ftpack                                             8     3      5    2148
                                              0 COMRAM     8     3      5
 ---------------------------------------------------------------------------------
 (3) ___ftneg                                              3     0      3     109
                                              0 COMRAM     3     0      3
 ---------------------------------------------------------------------------------
 (2) ___ftge                                               9     3      6    1160
                                              0 COMRAM     9     3      6
 ---------------------------------------------------------------------------------
 (1) _Lcd_Init                                             2     2      0     314
                                              3 COMRAM     2     2      0
                            _Lcd_Cmd
 ---------------------------------------------------------------------------------
 (3) _Lcd_Cmd                                              3     3      0     176
                                              0 COMRAM     3     3      0
 ---------------------------------------------------------------------------------
 Estimated maximum stack depth 4
 ---------------------------------------------------------------------------------

 Call Graph Graphs:

 _main (ROOT)
   _Lcd_Cmd
   _Lcd_Init
     _Lcd_Cmd
   _V_Principal
     _Convert_diasem
       _sprintf
         ___awdiv
           ___awmod (ARG)
         ___ftadd
           ___ftpack
           _fround (ARG)
             ___awdiv
               ___awmod (ARG)
             ___awmod
             ___ftmul
               ___awdiv (ARG)
                 ___awmod (ARG)
               ___awmod (ARG)
               ___ftpack (ARG)
               ___lbtoft (ARG)
                 ___ftpack
               ___wmul (ARG)
                 ___awdiv (ARG)
                   ___awmod (ARG)
                 ___awmod (ARG)
             ___wmul
               ___awdiv (ARG)
                 ___awmod (ARG)
               ___awmod (ARG)
         ___ftge
         ___ftmul
           ___awdiv (ARG)
             ___awmod (ARG)
           ___awmod (ARG)
           ___ftpack (ARG)
           ___lbtoft (ARG)
             ___ftpack
           ___wmul (ARG)
             ___awdiv (ARG)
               ___awmod (ARG)
             ___awmod (ARG)
         ___ftneg
         ___ftsub
           ___ftadd
             ___ftpack
             _fround (ARG)
               ___awdiv
                 ___awmod (ARG)
               ___awmod
               ___ftmul
                 ___awdiv (ARG)
                   ___awmod (ARG)
                 ___awmod (ARG)
                 ___ftpack (ARG)
                 ___lbtoft (ARG)
                   ___ftpack
                 ___wmul (ARG)
                   ___awdiv (ARG)
                     ___awmod (ARG)
                   ___awmod (ARG)
               ___wmul
                 ___awdiv (ARG)
                   ___awmod (ARG)
                 ___awmod (ARG)
           ___lltoft (ARG)
             ___ftpack
         ___fttol
           ___ftmul (ARG)
             ___awdiv (ARG)
               ___awmod (ARG)
             ___awmod (ARG)
             ___ftpack (ARG)
             ___lbtoft (ARG)
               ___ftpack
             ___wmul (ARG)
               ___awdiv (ARG)
                 ___awmod (ARG)
               ___awmod (ARG)
           _scale (ARG)
             ___awdiv
               ___awmod (ARG)
             ___awmod
             ___ftmul
               ___awdiv (ARG)
                 ___awmod (ARG)
               ___awmod (ARG)
               ___ftpack (ARG)
               ___lbtoft (ARG)
                 ___ftpack
               ___wmul (ARG)
                 ___awdiv (ARG)
                   ___awmod (ARG)
                 ___awmod (ARG)
             ___wmul
               ___awdiv (ARG)
                 ___awmod (ARG)
               ___awmod (ARG)
         ___lldiv
         ___llmod
           ___lldiv (ARG)
         ___lltoft
           ___ftpack
         ___wmul
           ___awdiv (ARG)
             ___awmod (ARG)
           ___awmod (ARG)
         __div_to_l_
         __tdiv_to_l_
         _fround
           ___awdiv
             ___awmod (ARG)
           ___awmod
           ___ftmul
             ___awdiv (ARG)
               ___awmod (ARG)
             ___awmod (ARG)
             ___ftpack (ARG)
             ___lbtoft (ARG)
               ___ftpack
             ___wmul (ARG)
               ___awdiv (ARG)
                 ___awmod (ARG)
               ___awmod (ARG)
           ___wmul
             ___awdiv (ARG)
               ___awmod (ARG)
             ___awmod (ARG)
         _isdigit
         _scale
           ___awdiv
             ___awmod (ARG)
           ___awmod
           ___ftmul
             ___awdiv (ARG)
               ___awmod (ARG)
             ___awmod (ARG)
             ___ftpack (ARG)
             ___lbtoft (ARG)
               ___ftpack
             ___wmul (ARG)
               ___awdiv (ARG)
                 ___awmod (ARG)
               ___awmod (ARG)
           ___wmul
             ___awdiv (ARG)
               ___awmod (ARG)
             ___awmod (ARG)
     _Lcd_Out
       _Convert_diasem (ARG)
         _sprintf
           ___awdiv
             ___awmod (ARG)
           ___ftadd
             ___ftpack
             _fround (ARG)
               ___awdiv
                 ___awmod (ARG)
               ___awmod
               ___ftmul
                 ___awdiv (ARG)
                   ___awmod (ARG)
                 ___awmod (ARG)
                 ___ftpack (ARG)
                 ___lbtoft (ARG)
                   ___ftpack
                 ___wmul (ARG)
                   ___awdiv (ARG)
                     ___awmod (ARG)
                   ___awmod (ARG)
               ___wmul
                 ___awdiv (ARG)
                   ___awmod (ARG)
                 ___awmod (ARG)
           ___ftge
           ___ftmul
             ___awdiv (ARG)
               ___awmod (ARG)
             ___awmod (ARG)
             ___ftpack (ARG)
             ___lbtoft (ARG)
               ___ftpack
             ___wmul (ARG)
               ___awdiv (ARG)
                 ___awmod (ARG)
               ___awmod (ARG)
           ___ftneg
           ___ftsub
             ___ftadd
               ___ftpack
               _fround (ARG)
                 ___awdiv
                   ___awmod (ARG)
                 ___awmod
                 ___ftmul
                   ___awdiv (ARG)
                     ___awmod (ARG)
                   ___awmod (ARG)
                   ___ftpack (ARG)
                   ___lbtoft (ARG)
                     ___ftpack
                   ___wmul (ARG)
                     ___awdiv (ARG)
                       ___awmod (ARG)
                     ___awmod (ARG)
                 ___wmul
                   ___awdiv (ARG)
                     ___awmod (ARG)
                   ___awmod (ARG)
             ___lltoft (ARG)
               ___ftpack
           ___fttol
             ___ftmul (ARG)
               ___awdiv (ARG)
                 ___awmod (ARG)
               ___awmod (ARG)
               ___ftpack (ARG)
               ___lbtoft (ARG)
                 ___ftpack
               ___wmul (ARG)
                 ___awdiv (ARG)
                   ___awmod (ARG)
                 ___awmod (ARG)
             _scale (ARG)
               ___awdiv
                 ___awmod (ARG)
               ___awmod
               ___ftmul
                 ___awdiv (ARG)
                   ___awmod (ARG)
                 ___awmod (ARG)
                 ___ftpack (ARG)
                 ___lbtoft (ARG)
                   ___ftpack
                 ___wmul (ARG)
                   ___awdiv (ARG)
                     ___awmod (ARG)
                   ___awmod (ARG)
               ___wmul
                 ___awdiv (ARG)
                   ___awmod (ARG)
                 ___awmod (ARG)
           ___lldiv
           ___llmod
             ___lldiv (ARG)
           ___lltoft
             ___ftpack
           ___wmul
             ___awdiv (ARG)
               ___awmod (ARG)
             ___awmod (ARG)
           __div_to_l_
           __tdiv_to_l_
           _fround
             ___awdiv
               ___awmod (ARG)
             ___awmod
             ___ftmul
               ___awdiv (ARG)
                 ___awmod (ARG)
               ___awmod (ARG)
               ___ftpack (ARG)
               ___lbtoft (ARG)
                 ___ftpack
               ___wmul (ARG)
                 ___awdiv (ARG)
                   ___awmod (ARG)
                 ___awmod (ARG)
             ___wmul
               ___awdiv (ARG)
                 ___awmod (ARG)
               ___awmod (ARG)
           _isdigit
           _scale
             ___awdiv
               ___awmod (ARG)
             ___awmod
             ___ftmul
               ___awdiv (ARG)
                 ___awmod (ARG)
               ___awmod (ARG)
               ___ftpack (ARG)
               ___lbtoft (ARG)
                 ___ftpack
               ___wmul (ARG)
                 ___awdiv (ARG)
                   ___awmod (ARG)
                 ___awmod (ARG)
             ___wmul
               ___awdiv (ARG)
                 ___awmod (ARG)
               ___awmod (ARG)
       _Lcd_Chr_CP (ARG)
       _Lcd_Cmd (ARG)
     _Read_RTC
       _RtccReadDate
       _RtccReadTime
     _sprintf
       ___awdiv
         ___awmod (ARG)
       ___ftadd
         ___ftpack
         _fround (ARG)
           ___awdiv
             ___awmod (ARG)
           ___awmod
           ___ftmul
             ___awdiv (ARG)
               ___awmod (ARG)
             ___awmod (ARG)
             ___ftpack (ARG)
             ___lbtoft (ARG)
               ___ftpack
             ___wmul (ARG)
               ___awdiv (ARG)
                 ___awmod (ARG)
               ___awmod (ARG)
           ___wmul
             ___awdiv (ARG)
               ___awmod (ARG)
             ___awmod (ARG)
       ___ftge
       ___ftmul
         ___awdiv (ARG)
           ___awmod (ARG)
         ___awmod (ARG)
         ___ftpack (ARG)
         ___lbtoft (ARG)
           ___ftpack
         ___wmul (ARG)
           ___awdiv (ARG)
             ___awmod (ARG)
           ___awmod (ARG)
       ___ftneg
       ___ftsub
         ___ftadd
           ___ftpack
           _fround (ARG)
             ___awdiv
               ___awmod (ARG)
             ___awmod
             ___ftmul
               ___awdiv (ARG)
                 ___awmod (ARG)
               ___awmod (ARG)
               ___ftpack (ARG)
               ___lbtoft (ARG)
                 ___ftpack
               ___wmul (ARG)
                 ___awdiv (ARG)
                   ___awmod (ARG)
                 ___awmod (ARG)
             ___wmul
               ___awdiv (ARG)
                 ___awmod (ARG)
               ___awmod (ARG)
         ___lltoft (ARG)
           ___ftpack
       ___fttol
         ___ftmul (ARG)
           ___awdiv (ARG)
             ___awmod (ARG)
           ___awmod (ARG)
           ___ftpack (ARG)
           ___lbtoft (ARG)
             ___ftpack
           ___wmul (ARG)
             ___awdiv (ARG)
               ___awmod (ARG)
             ___awmod (ARG)
         _scale (ARG)
           ___awdiv
             ___awmod (ARG)
           ___awmod
           ___ftmul
             ___awdiv (ARG)
               ___awmod (ARG)
             ___awmod (ARG)
             ___ftpack (ARG)
             ___lbtoft (ARG)
               ___ftpack
             ___wmul (ARG)
               ___awdiv (ARG)
                 ___awmod (ARG)
               ___awmod (ARG)
           ___wmul
             ___awdiv (ARG)
               ___awmod (ARG)
             ___awmod (ARG)
       ___lldiv
       ___llmod
         ___lldiv (ARG)
       ___lltoft
         ___ftpack
       ___wmul
         ___awdiv (ARG)
           ___awmod (ARG)
         ___awmod (ARG)
       __div_to_l_
       __tdiv_to_l_
       _fround
         ___awdiv
           ___awmod (ARG)
         ___awmod
         ___ftmul
           ___awdiv (ARG)
             ___awmod (ARG)
           ___awmod (ARG)
           ___ftpack (ARG)
           ___lbtoft (ARG)
             ___ftpack
           ___wmul (ARG)
             ___awdiv (ARG)
               ___awmod (ARG)
             ___awmod (ARG)
         ___wmul
           ___awdiv (ARG)
             ___awmod (ARG)
           ___awmod (ARG)
       _isdigit
       _scale
         ___awdiv
           ___awmod (ARG)
         ___awmod
         ___ftmul
           ___awdiv (ARG)
             ___awmod (ARG)
           ___awmod (ARG)
           ___ftpack (ARG)
           ___lbtoft (ARG)
             ___ftpack
           ___wmul (ARG)
             ___awdiv (ARG)
               ___awmod (ARG)
             ___awmod (ARG)
         ___wmul
           ___awdiv (ARG)
             ___awmod (ARG)
           ___awmod (ARG)
   _V_ProgReloj
     _Convert_diasem
       _sprintf
         ___awdiv
           ___awmod (ARG)
         ___ftadd
           ___ftpack
           _fround (ARG)
             ___awdiv
               ___awmod (ARG)
             ___awmod
             ___ftmul
               ___awdiv (ARG)
                 ___awmod (ARG)
               ___awmod (ARG)
               ___ftpack (ARG)
               ___lbtoft (ARG)
                 ___ftpack
               ___wmul (ARG)
                 ___awdiv (ARG)
                   ___awmod (ARG)
                 ___awmod (ARG)
             ___wmul
               ___awdiv (ARG)
                 ___awmod (ARG)
               ___awmod (ARG)
         ___ftge
         ___ftmul
           ___awdiv (ARG)
             ___awmod (ARG)
           ___awmod (ARG)
           ___ftpack (ARG)
           ___lbtoft (ARG)
             ___ftpack
           ___wmul (ARG)
             ___awdiv (ARG)
               ___awmod (ARG)
             ___awmod (ARG)
         ___ftneg
         ___ftsub
           ___ftadd
             ___ftpack
             _fround (ARG)
               ___awdiv
                 ___awmod (ARG)
               ___awmod
               ___ftmul
                 ___awdiv (ARG)
                   ___awmod (ARG)
                 ___awmod (ARG)
                 ___ftpack (ARG)
                 ___lbtoft (ARG)
                   ___ftpack
                 ___wmul (ARG)
                   ___awdiv (ARG)
                     ___awmod (ARG)
                   ___awmod (ARG)
               ___wmul
                 ___awdiv (ARG)
                   ___awmod (ARG)
                 ___awmod (ARG)
           ___lltoft (ARG)
             ___ftpack
         ___fttol
           ___ftmul (ARG)
             ___awdiv (ARG)
               ___awmod (ARG)
             ___awmod (ARG)
             ___ftpack (ARG)
             ___lbtoft (ARG)
               ___ftpack
             ___wmul (ARG)
               ___awdiv (ARG)
                 ___awmod (ARG)
               ___awmod (ARG)
           _scale (ARG)
             ___awdiv
               ___awmod (ARG)
             ___awmod
             ___ftmul
               ___awdiv (ARG)
                 ___awmod (ARG)
               ___awmod (ARG)
               ___ftpack (ARG)
               ___lbtoft (ARG)
                 ___ftpack
               ___wmul (ARG)
                 ___awdiv (ARG)
                   ___awmod (ARG)
                 ___awmod (ARG)
             ___wmul
               ___awdiv (ARG)
                 ___awmod (ARG)
               ___awmod (ARG)
         ___lldiv
         ___llmod
           ___lldiv (ARG)
         ___lltoft
           ___ftpack
         ___wmul
           ___awdiv (ARG)
             ___awmod (ARG)
           ___awmod (ARG)
         __div_to_l_
         __tdiv_to_l_
         _fround
           ___awdiv
             ___awmod (ARG)
           ___awmod
           ___ftmul
             ___awdiv (ARG)
               ___awmod (ARG)
             ___awmod (ARG)
             ___ftpack (ARG)
             ___lbtoft (ARG)
               ___ftpack
             ___wmul (ARG)
               ___awdiv (ARG)
                 ___awmod (ARG)
               ___awmod (ARG)
           ___wmul
             ___awdiv (ARG)
               ___awmod (ARG)
             ___awmod (ARG)
         _isdigit
         _scale
           ___awdiv
             ___awmod (ARG)
           ___awmod
           ___ftmul
             ___awdiv (ARG)
               ___awmod (ARG)
             ___awmod (ARG)
             ___ftpack (ARG)
             ___lbtoft (ARG)
               ___ftpack
             ___wmul (ARG)
               ___awdiv (ARG)
                 ___awmod (ARG)
               ___awmod (ARG)
           ___wmul
             ___awdiv (ARG)
               ___awmod (ARG)
             ___awmod (ARG)
     _Lcd_Cmd
     _Lcd_Out
       _Convert_diasem (ARG)
         _sprintf
           ___awdiv
             ___awmod (ARG)
           ___ftadd
             ___ftpack
             _fround (ARG)
               ___awdiv
                 ___awmod (ARG)
               ___awmod
               ___ftmul
                 ___awdiv (ARG)
                   ___awmod (ARG)
                 ___awmod (ARG)
                 ___ftpack (ARG)
                 ___lbtoft (ARG)
                   ___ftpack
                 ___wmul (ARG)
                   ___awdiv (ARG)
                     ___awmod (ARG)
                   ___awmod (ARG)
               ___wmul
                 ___awdiv (ARG)
                   ___awmod (ARG)
                 ___awmod (ARG)
           ___ftge
           ___ftmul
             ___awdiv (ARG)
               ___awmod (ARG)
             ___awmod (ARG)
             ___ftpack (ARG)
             ___lbtoft (ARG)
               ___ftpack
             ___wmul (ARG)
               ___awdiv (ARG)
                 ___awmod (ARG)
               ___awmod (ARG)
           ___ftneg
           ___ftsub
             ___ftadd
               ___ftpack
               _fround (ARG)
                 ___awdiv
                   ___awmod (ARG)
                 ___awmod
                 ___ftmul
                   ___awdiv (ARG)
                     ___awmod (ARG)
                   ___awmod (ARG)
                   ___ftpack (ARG)
                   ___lbtoft (ARG)
                     ___ftpack
                   ___wmul (ARG)
                     ___awdiv (ARG)
                       ___awmod (ARG)
                     ___awmod (ARG)
                 ___wmul
                   ___awdiv (ARG)
                     ___awmod (ARG)
                   ___awmod (ARG)
             ___lltoft (ARG)
               ___ftpack
           ___fttol
             ___ftmul (ARG)
               ___awdiv (ARG)
                 ___awmod (ARG)
               ___awmod (ARG)
               ___ftpack (ARG)
               ___lbtoft (ARG)
                 ___ftpack
               ___wmul (ARG)
                 ___awdiv (ARG)
                   ___awmod (ARG)
                 ___awmod (ARG)
             _scale (ARG)
               ___awdiv
                 ___awmod (ARG)
               ___awmod
               ___ftmul
                 ___awdiv (ARG)
                   ___awmod (ARG)
                 ___awmod (ARG)
                 ___ftpack (ARG)
                 ___lbtoft (ARG)
                   ___ftpack
                 ___wmul (ARG)
                   ___awdiv (ARG)
                     ___awmod (ARG)
                   ___awmod (ARG)
               ___wmul
                 ___awdiv (ARG)
                   ___awmod (ARG)
                 ___awmod (ARG)
           ___lldiv
           ___llmod
             ___lldiv (ARG)
           ___lltoft
             ___ftpack
           ___wmul
             ___awdiv (ARG)
               ___awmod (ARG)
             ___awmod (ARG)
           __div_to_l_
           __tdiv_to_l_
           _fround
             ___awdiv
               ___awmod (ARG)
             ___awmod
             ___ftmul
               ___awdiv (ARG)
                 ___awmod (ARG)
               ___awmod (ARG)
               ___ftpack (ARG)
               ___lbtoft (ARG)
                 ___ftpack
               ___wmul (ARG)
                 ___awdiv (ARG)
                   ___awmod (ARG)
                 ___awmod (ARG)
             ___wmul
               ___awdiv (ARG)
                 ___awmod (ARG)
               ___awmod (ARG)
           _isdigit
           _scale
             ___awdiv
               ___awmod (ARG)
             ___awmod
             ___ftmul
               ___awdiv (ARG)
                 ___awmod (ARG)
               ___awmod (ARG)
               ___ftpack (ARG)
               ___lbtoft (ARG)
                 ___ftpack
               ___wmul (ARG)
                 ___awdiv (ARG)
                   ___awmod (ARG)
                 ___awmod (ARG)
             ___wmul
               ___awdiv (ARG)
                 ___awmod (ARG)
               ___awmod (ARG)
       _Lcd_Chr_CP (ARG)
       _Lcd_Cmd (ARG)
     _Write_RTC
       _RtccWrOn
       _RtccWriteDate
         _RtccWrOn
       _RtccWriteTime
         _RtccWrOn
       ___awdiv
         ___awmod (ARG)
     _escribir
       _Lcd_Cmd
       _Lcd_Out
         _Convert_diasem (ARG)
           _sprintf
             ___awdiv
               ___awmod (ARG)
             ___ftadd
               ___ftpack
               _fround (ARG)
                 ___awdiv
                   ___awmod (ARG)
                 ___awmod
                 ___ftmul
                   ___awdiv (ARG)
                     ___awmod (ARG)
                   ___awmod (ARG)
                   ___ftpack (ARG)
                   ___lbtoft (ARG)
                     ___ftpack
                   ___wmul (ARG)
                     ___awdiv (ARG)
                       ___awmod (ARG)
                     ___awmod (ARG)
                 ___wmul
                   ___awdiv (ARG)
                     ___awmod (ARG)
                   ___awmod (ARG)
             ___ftge
             ___ftmul
               ___awdiv (ARG)
                 ___awmod (ARG)
               ___awmod (ARG)
               ___ftpack (ARG)
               ___lbtoft (ARG)
                 ___ftpack
               ___wmul (ARG)
                 ___awdiv (ARG)
                   ___awmod (ARG)
                 ___awmod (ARG)
             ___ftneg
             ___ftsub
               ___ftadd
                 ___ftpack
                 _fround (ARG)
                   ___awdiv
                     ___awmod (ARG)
                   ___awmod
                   ___ftmul
                     ___awdiv (ARG)
                       ___awmod (ARG)
                     ___awmod (ARG)
                     ___ftpack (ARG)
                     ___lbtoft (ARG)
                       ___ftpack
                     ___wmul (ARG)
                       ___awdiv (ARG)
                         ___awmod (ARG)
                       ___awmod (ARG)
                   ___wmul
                     ___awdiv (ARG)
                       ___awmod (ARG)
                     ___awmod (ARG)
               ___lltoft (ARG)
                 ___ftpack
             ___fttol
               ___ftmul (ARG)
                 ___awdiv (ARG)
                   ___awmod (ARG)
                 ___awmod (ARG)
                 ___ftpack (ARG)
                 ___lbtoft (ARG)
                   ___ftpack
                 ___wmul (ARG)
                   ___awdiv (ARG)
                     ___awmod (ARG)
                   ___awmod (ARG)
               _scale (ARG)
                 ___awdiv
                   ___awmod (ARG)
                 ___awmod
                 ___ftmul
                   ___awdiv (ARG)
                     ___awmod (ARG)
                   ___awmod (ARG)
                   ___ftpack (ARG)
                   ___lbtoft (ARG)
                     ___ftpack
                   ___wmul (ARG)
                     ___awdiv (ARG)
                       ___awmod (ARG)
                     ___awmod (ARG)
                 ___wmul
                   ___awdiv (ARG)
                     ___awmod (ARG)
                   ___awmod (ARG)
             ___lldiv
             ___llmod
               ___lldiv (ARG)
             ___lltoft
               ___ftpack
             ___wmul
               ___awdiv (ARG)
                 ___awmod (ARG)
               ___awmod (ARG)
             __div_to_l_
             __tdiv_to_l_
             _fround
               ___awdiv
                 ___awmod (ARG)
               ___awmod
               ___ftmul
                 ___awdiv (ARG)
                   ___awmod (ARG)
                 ___awmod (ARG)
                 ___ftpack (ARG)
                 ___lbtoft (ARG)
                   ___ftpack
                 ___wmul (ARG)
                   ___awdiv (ARG)
                     ___awmod (ARG)
                   ___awmod (ARG)
               ___wmul
                 ___awdiv (ARG)
                   ___awmod (ARG)
                 ___awmod (ARG)
             _isdigit
             _scale
               ___awdiv
                 ___awmod (ARG)
               ___awmod
               ___ftmul
                 ___awdiv (ARG)
                   ___awmod (ARG)
                 ___awmod (ARG)
                 ___ftpack (ARG)
                 ___lbtoft (ARG)
                   ___ftpack
                 ___wmul (ARG)
                   ___awdiv (ARG)
                     ___awmod (ARG)
                   ___awmod (ARG)
               ___wmul
                 ___awdiv (ARG)
                   ___awmod (ARG)
                 ___awmod (ARG)
         _Lcd_Chr_CP (ARG)
         _Lcd_Cmd (ARG)
       _sprintf
         ___awdiv
           ___awmod (ARG)
         ___ftadd
           ___ftpack
           _fround (ARG)
             ___awdiv
               ___awmod (ARG)
             ___awmod
             ___ftmul
               ___awdiv (ARG)
                 ___awmod (ARG)
               ___awmod (ARG)
               ___ftpack (ARG)
               ___lbtoft (ARG)
                 ___ftpack
               ___wmul (ARG)
                 ___awdiv (ARG)
                   ___awmod (ARG)
                 ___awmod (ARG)
             ___wmul
               ___awdiv (ARG)
                 ___awmod (ARG)
               ___awmod (ARG)
         ___ftge
         ___ftmul
           ___awdiv (ARG)
             ___awmod (ARG)
           ___awmod (ARG)
           ___ftpack (ARG)
           ___lbtoft (ARG)
             ___ftpack
           ___wmul (ARG)
             ___awdiv (ARG)
               ___awmod (ARG)
             ___awmod (ARG)
         ___ftneg
         ___ftsub
           ___ftadd
             ___ftpack
             _fround (ARG)
               ___awdiv
                 ___awmod (ARG)
               ___awmod
               ___ftmul
                 ___awdiv (ARG)
                   ___awmod (ARG)
                 ___awmod (ARG)
                 ___ftpack (ARG)
                 ___lbtoft (ARG)
                   ___ftpack
                 ___wmul (ARG)
                   ___awdiv (ARG)
                     ___awmod (ARG)
                   ___awmod (ARG)
               ___wmul
                 ___awdiv (ARG)
                   ___awmod (ARG)
                 ___awmod (ARG)
           ___lltoft (ARG)
             ___ftpack
         ___fttol
           ___ftmul (ARG)
             ___awdiv (ARG)
               ___awmod (ARG)
             ___awmod (ARG)
             ___ftpack (ARG)
             ___lbtoft (ARG)
               ___ftpack
             ___wmul (ARG)
               ___awdiv (ARG)
                 ___awmod (ARG)
               ___awmod (ARG)
           _scale (ARG)
             ___awdiv
               ___awmod (ARG)
             ___awmod
             ___ftmul
               ___awdiv (ARG)
                 ___awmod (ARG)
               ___awmod (ARG)
               ___ftpack (ARG)
               ___lbtoft (ARG)
                 ___ftpack
               ___wmul (ARG)
                 ___awdiv (ARG)
                   ___awmod (ARG)
                 ___awmod (ARG)
             ___wmul
               ___awdiv (ARG)
                 ___awmod (ARG)
               ___awmod (ARG)
         ___lldiv
         ___llmod
           ___lldiv (ARG)
         ___lltoft
           ___ftpack
         ___wmul
           ___awdiv (ARG)
             ___awmod (ARG)
           ___awmod (ARG)
         __div_to_l_
         __tdiv_to_l_
         _fround
           ___awdiv
             ___awmod (ARG)
           ___awmod
           ___ftmul
             ___awdiv (ARG)
               ___awmod (ARG)
             ___awmod (ARG)
             ___ftpack (ARG)
             ___lbtoft (ARG)
               ___ftpack
             ___wmul (ARG)
               ___awdiv (ARG)
                 ___awmod (ARG)
               ___awmod (ARG)
           ___wmul
             ___awdiv (ARG)
               ___awmod (ARG)
             ___awmod (ARG)
         _isdigit
         _scale
           ___awdiv
             ___awmod (ARG)
           ___awmod
           ___ftmul
             ___awdiv (ARG)
               ___awmod (ARG)
             ___awmod (ARG)
             ___ftpack (ARG)
             ___lbtoft (ARG)
               ___ftpack
             ___wmul (ARG)
               ___awdiv (ARG)
                 ___awmod (ARG)
               ___awmod (ARG)
           ___wmul
             ___awdiv (ARG)
               ___awmod (ARG)
             ___awmod (ARG)
     _sprintf
       ___awdiv
         ___awmod (ARG)
       ___ftadd
         ___ftpack
         _fround (ARG)
           ___awdiv
             ___awmod (ARG)
           ___awmod
           ___ftmul
             ___awdiv (ARG)
               ___awmod (ARG)
             ___awmod (ARG)
             ___ftpack (ARG)
             ___lbtoft (ARG)
               ___ftpack
             ___wmul (ARG)
               ___awdiv (ARG)
                 ___awmod (ARG)
               ___awmod (ARG)
           ___wmul
             ___awdiv (ARG)
               ___awmod (ARG)
             ___awmod (ARG)
       ___ftge
       ___ftmul
         ___awdiv (ARG)
           ___awmod (ARG)
         ___awmod (ARG)
         ___ftpack (ARG)
         ___lbtoft (ARG)
           ___ftpack
         ___wmul (ARG)
           ___awdiv (ARG)
             ___awmod (ARG)
           ___awmod (ARG)
       ___ftneg
       ___ftsub
         ___ftadd
           ___ftpack
           _fround (ARG)
             ___awdiv
               ___awmod (ARG)
             ___awmod
             ___ftmul
               ___awdiv (ARG)
                 ___awmod (ARG)
               ___awmod (ARG)
               ___ftpack (ARG)
               ___lbtoft (ARG)
                 ___ftpack
               ___wmul (ARG)
                 ___awdiv (ARG)
                   ___awmod (ARG)
                 ___awmod (ARG)
             ___wmul
               ___awdiv (ARG)
                 ___awmod (ARG)
               ___awmod (ARG)
         ___lltoft (ARG)
           ___ftpack
       ___fttol
         ___ftmul (ARG)
           ___awdiv (ARG)
             ___awmod (ARG)
           ___awmod (ARG)
           ___ftpack (ARG)
           ___lbtoft (ARG)
             ___ftpack
           ___wmul (ARG)
             ___awdiv (ARG)
               ___awmod (ARG)
             ___awmod (ARG)
         _scale (ARG)
           ___awdiv
             ___awmod (ARG)
           ___awmod
           ___ftmul
             ___awdiv (ARG)
               ___awmod (ARG)
             ___awmod (ARG)
             ___ftpack (ARG)
             ___lbtoft (ARG)
               ___ftpack
             ___wmul (ARG)
               ___awdiv (ARG)
                 ___awmod (ARG)
               ___awmod (ARG)
           ___wmul
             ___awdiv (ARG)
               ___awmod (ARG)
             ___awmod (ARG)
       ___lldiv
       ___llmod
         ___lldiv (ARG)
       ___lltoft
         ___ftpack
       ___wmul
         ___awdiv (ARG)
           ___awmod (ARG)
         ___awmod (ARG)
       __div_to_l_
       __tdiv_to_l_
       _fround
         ___awdiv
           ___awmod (ARG)
         ___awmod
         ___ftmul
           ___awdiv (ARG)
             ___awmod (ARG)
           ___awmod (ARG)
           ___ftpack (ARG)
           ___lbtoft (ARG)
             ___ftpack
           ___wmul (ARG)
             ___awdiv (ARG)
               ___awmod (ARG)
             ___awmod (ARG)
         ___wmul
           ___awdiv (ARG)
             ___awmod (ARG)
           ___awmod (ARG)
       _isdigit
       _scale
         ___awdiv
           ___awmod (ARG)
         ___awmod
         ___ftmul
           ___awdiv (ARG)
             ___awmod (ARG)
           ___awmod (ARG)
           ___ftpack (ARG)
           ___lbtoft (ARG)
             ___ftpack
           ___wmul (ARG)
             ___awdiv (ARG)
               ___awmod (ARG)
             ___awmod (ARG)
         ___wmul
           ___awdiv (ARG)
             ___awmod (ARG)
           ___awmod (ARG)
   _V_ProgRiegoIlum
     _Lcd_Cmd
     _Lcd_Out
       _Convert_diasem (ARG)
         _sprintf
           ___awdiv
             ___awmod (ARG)
           ___ftadd
             ___ftpack
             _fround (ARG)
               ___awdiv
                 ___awmod (ARG)
               ___awmod
               ___ftmul
                 ___awdiv (ARG)
                   ___awmod (ARG)
                 ___awmod (ARG)
                 ___ftpack (ARG)
                 ___lbtoft (ARG)
                   ___ftpack
                 ___wmul (ARG)
                   ___awdiv (ARG)
                     ___awmod (ARG)
                   ___awmod (ARG)
               ___wmul
                 ___awdiv (ARG)
                   ___awmod (ARG)
                 ___awmod (ARG)
           ___ftge
           ___ftmul
             ___awdiv (ARG)
               ___awmod (ARG)
             ___awmod (ARG)
             ___ftpack (ARG)
             ___lbtoft (ARG)
               ___ftpack
             ___wmul (ARG)
               ___awdiv (ARG)
                 ___awmod (ARG)
               ___awmod (ARG)
           ___ftneg
           ___ftsub
             ___ftadd
               ___ftpack
               _fround (ARG)
                 ___awdiv
                   ___awmod (ARG)
                 ___awmod
                 ___ftmul
                   ___awdiv (ARG)
                     ___awmod (ARG)
                   ___awmod (ARG)
                   ___ftpack (ARG)
                   ___lbtoft (ARG)
                     ___ftpack
                   ___wmul (ARG)
                     ___awdiv (ARG)
                       ___awmod (ARG)
                     ___awmod (ARG)
                 ___wmul
                   ___awdiv (ARG)
                     ___awmod (ARG)
                   ___awmod (ARG)
             ___lltoft (ARG)
               ___ftpack
           ___fttol
             ___ftmul (ARG)
               ___awdiv (ARG)
                 ___awmod (ARG)
               ___awmod (ARG)
               ___ftpack (ARG)
               ___lbtoft (ARG)
                 ___ftpack
               ___wmul (ARG)
                 ___awdiv (ARG)
                   ___awmod (ARG)
                 ___awmod (ARG)
             _scale (ARG)
               ___awdiv
                 ___awmod (ARG)
               ___awmod
               ___ftmul
                 ___awdiv (ARG)
                   ___awmod (ARG)
                 ___awmod (ARG)
                 ___ftpack (ARG)
                 ___lbtoft (ARG)
                   ___ftpack
                 ___wmul (ARG)
                   ___awdiv (ARG)
                     ___awmod (ARG)
                   ___awmod (ARG)
               ___wmul
                 ___awdiv (ARG)
                   ___awmod (ARG)
                 ___awmod (ARG)
           ___lldiv
           ___llmod
             ___lldiv (ARG)
           ___lltoft
             ___ftpack
           ___wmul
             ___awdiv (ARG)
               ___awmod (ARG)
             ___awmod (ARG)
           __div_to_l_
           __tdiv_to_l_
           _fround
             ___awdiv
               ___awmod (ARG)
             ___awmod
             ___ftmul
               ___awdiv (ARG)
                 ___awmod (ARG)
               ___awmod (ARG)
               ___ftpack (ARG)
               ___lbtoft (ARG)
                 ___ftpack
               ___wmul (ARG)
                 ___awdiv (ARG)
                   ___awmod (ARG)
                 ___awmod (ARG)
             ___wmul
               ___awdiv (ARG)
                 ___awmod (ARG)
               ___awmod (ARG)
           _isdigit
           _scale
             ___awdiv
               ___awmod (ARG)
             ___awmod
             ___ftmul
               ___awdiv (ARG)
                 ___awmod (ARG)
               ___awmod (ARG)
               ___ftpack (ARG)
               ___lbtoft (ARG)
                 ___ftpack
               ___wmul (ARG)
                 ___awdiv (ARG)
                   ___awmod (ARG)
                 ___awmod (ARG)
             ___wmul
               ___awdiv (ARG)
                 ___awmod (ARG)
               ___awmod (ARG)
       _Lcd_Chr_CP (ARG)
       _Lcd_Cmd (ARG)
     _escribir
       _Lcd_Cmd
       _Lcd_Out
         _Convert_diasem (ARG)
           _sprintf
             ___awdiv
               ___awmod (ARG)
             ___ftadd
               ___ftpack
               _fround (ARG)
                 ___awdiv
                   ___awmod (ARG)
                 ___awmod
                 ___ftmul
                   ___awdiv (ARG)
                     ___awmod (ARG)
                   ___awmod (ARG)
                   ___ftpack (ARG)
                   ___lbtoft (ARG)
                     ___ftpack
                   ___wmul (ARG)
                     ___awdiv (ARG)
                       ___awmod (ARG)
                     ___awmod (ARG)
                 ___wmul
                   ___awdiv (ARG)
                     ___awmod (ARG)
                   ___awmod (ARG)
             ___ftge
             ___ftmul
               ___awdiv (ARG)
                 ___awmod (ARG)
               ___awmod (ARG)
               ___ftpack (ARG)
               ___lbtoft (ARG)
                 ___ftpack
               ___wmul (ARG)
                 ___awdiv (ARG)
                   ___awmod (ARG)
                 ___awmod (ARG)
             ___ftneg
             ___ftsub
               ___ftadd
                 ___ftpack
                 _fround (ARG)
                   ___awdiv
                     ___awmod (ARG)
                   ___awmod
                   ___ftmul
                     ___awdiv (ARG)
                       ___awmod (ARG)
                     ___awmod (ARG)
                     ___ftpack (ARG)
                     ___lbtoft (ARG)
                       ___ftpack
                     ___wmul (ARG)
                       ___awdiv (ARG)
                         ___awmod (ARG)
                       ___awmod (ARG)
                   ___wmul
                     ___awdiv (ARG)
                       ___awmod (ARG)
                     ___awmod (ARG)
               ___lltoft (ARG)
                 ___ftpack
             ___fttol
               ___ftmul (ARG)
                 ___awdiv (ARG)
                   ___awmod (ARG)
                 ___awmod (ARG)
                 ___ftpack (ARG)
                 ___lbtoft (ARG)
                   ___ftpack
                 ___wmul (ARG)
                   ___awdiv (ARG)
                     ___awmod (ARG)
                   ___awmod (ARG)
               _scale (ARG)
                 ___awdiv
                   ___awmod (ARG)
                 ___awmod
                 ___ftmul
                   ___awdiv (ARG)
                     ___awmod (ARG)
                   ___awmod (ARG)
                   ___ftpack (ARG)
                   ___lbtoft (ARG)
                     ___ftpack
                   ___wmul (ARG)
                     ___awdiv (ARG)
                       ___awmod (ARG)
                     ___awmod (ARG)
                 ___wmul
                   ___awdiv (ARG)
                     ___awmod (ARG)
                   ___awmod (ARG)
             ___lldiv
             ___llmod
               ___lldiv (ARG)
             ___lltoft
               ___ftpack
             ___wmul
               ___awdiv (ARG)
                 ___awmod (ARG)
               ___awmod (ARG)
             __div_to_l_
             __tdiv_to_l_
             _fround
               ___awdiv
                 ___awmod (ARG)
               ___awmod
               ___ftmul
                 ___awdiv (ARG)
                   ___awmod (ARG)
                 ___awmod (ARG)
                 ___ftpack (ARG)
                 ___lbtoft (ARG)
                   ___ftpack
                 ___wmul (ARG)
                   ___awdiv (ARG)
                     ___awmod (ARG)
                   ___awmod (ARG)
               ___wmul
                 ___awdiv (ARG)
                   ___awmod (ARG)
                 ___awmod (ARG)
             _isdigit
             _scale
               ___awdiv
                 ___awmod (ARG)
               ___awmod
               ___ftmul
                 ___awdiv (ARG)
                   ___awmod (ARG)
                 ___awmod (ARG)
                 ___ftpack (ARG)
                 ___lbtoft (ARG)
                   ___ftpack
                 ___wmul (ARG)
                   ___awdiv (ARG)
                     ___awmod (ARG)
                   ___awmod (ARG)
               ___wmul
                 ___awdiv (ARG)
                   ___awmod (ARG)
                 ___awmod (ARG)
         _Lcd_Chr_CP (ARG)
         _Lcd_Cmd (ARG)
       _sprintf
         ___awdiv
           ___awmod (ARG)
         ___ftadd
           ___ftpack
           _fround (ARG)
             ___awdiv
               ___awmod (ARG)
             ___awmod
             ___ftmul
               ___awdiv (ARG)
                 ___awmod (ARG)
               ___awmod (ARG)
               ___ftpack (ARG)
               ___lbtoft (ARG)
                 ___ftpack
               ___wmul (ARG)
                 ___awdiv (ARG)
                   ___awmod (ARG)
                 ___awmod (ARG)
             ___wmul
               ___awdiv (ARG)
                 ___awmod (ARG)
               ___awmod (ARG)
         ___ftge
         ___ftmul
           ___awdiv (ARG)
             ___awmod (ARG)
           ___awmod (ARG)
           ___ftpack (ARG)
           ___lbtoft (ARG)
             ___ftpack
           ___wmul (ARG)
             ___awdiv (ARG)
               ___awmod (ARG)
             ___awmod (ARG)
         ___ftneg
         ___ftsub
           ___ftadd
             ___ftpack
             _fround (ARG)
               ___awdiv
                 ___awmod (ARG)
               ___awmod
               ___ftmul
                 ___awdiv (ARG)
                   ___awmod (ARG)
                 ___awmod (ARG)
                 ___ftpack (ARG)
                 ___lbtoft (ARG)
                   ___ftpack
                 ___wmul (ARG)
                   ___awdiv (ARG)
                     ___awmod (ARG)
                   ___awmod (ARG)
               ___wmul
                 ___awdiv (ARG)
                   ___awmod (ARG)
                 ___awmod (ARG)
           ___lltoft (ARG)
             ___ftpack
         ___fttol
           ___ftmul (ARG)
             ___awdiv (ARG)
               ___awmod (ARG)
             ___awmod (ARG)
             ___ftpack (ARG)
             ___lbtoft (ARG)
               ___ftpack
             ___wmul (ARG)
               ___awdiv (ARG)
                 ___awmod (ARG)
               ___awmod (ARG)
           _scale (ARG)
             ___awdiv
               ___awmod (ARG)
             ___awmod
             ___ftmul
               ___awdiv (ARG)
                 ___awmod (ARG)
               ___awmod (ARG)
               ___ftpack (ARG)
               ___lbtoft (ARG)
                 ___ftpack
               ___wmul (ARG)
                 ___awdiv (ARG)
                   ___awmod (ARG)
                 ___awmod (ARG)
             ___wmul
               ___awdiv (ARG)
                 ___awmod (ARG)
               ___awmod (ARG)
         ___lldiv
         ___llmod
           ___lldiv (ARG)
         ___lltoft
           ___ftpack
         ___wmul
           ___awdiv (ARG)
             ___awmod (ARG)
           ___awmod (ARG)
         __div_to_l_
         __tdiv_to_l_
         _fround
           ___awdiv
             ___awmod (ARG)
           ___awmod
           ___ftmul
             ___awdiv (ARG)
               ___awmod (ARG)
             ___awmod (ARG)
             ___ftpack (ARG)
             ___lbtoft (ARG)
               ___ftpack
             ___wmul (ARG)
               ___awdiv (ARG)
                 ___awmod (ARG)
               ___awmod (ARG)
           ___wmul
             ___awdiv (ARG)
               ___awmod (ARG)
             ___awmod (ARG)
         _isdigit
         _scale
           ___awdiv
             ___awmod (ARG)
           ___awmod
           ___ftmul
             ___awdiv (ARG)
               ___awmod (ARG)
             ___awmod (ARG)
             ___ftpack (ARG)
             ___lbtoft (ARG)
               ___ftpack
             ___wmul (ARG)
               ___awdiv (ARG)
                 ___awmod (ARG)
               ___awmod (ARG)
           ___wmul
             ___awdiv (ARG)
               ___awmod (ARG)
             ___awmod (ARG)
     _sprintf
       ___awdiv
         ___awmod (ARG)
       ___ftadd
         ___ftpack
         _fround (ARG)
           ___awdiv
             ___awmod (ARG)
           ___awmod
           ___ftmul
             ___awdiv (ARG)
               ___awmod (ARG)
             ___awmod (ARG)
             ___ftpack (ARG)
             ___lbtoft (ARG)
               ___ftpack
             ___wmul (ARG)
               ___awdiv (ARG)
                 ___awmod (ARG)
               ___awmod (ARG)
           ___wmul
             ___awdiv (ARG)
               ___awmod (ARG)
             ___awmod (ARG)
       ___ftge
       ___ftmul
         ___awdiv (ARG)
           ___awmod (ARG)
         ___awmod (ARG)
         ___ftpack (ARG)
         ___lbtoft (ARG)
           ___ftpack
         ___wmul (ARG)
           ___awdiv (ARG)
             ___awmod (ARG)
           ___awmod (ARG)
       ___ftneg
       ___ftsub
         ___ftadd
           ___ftpack
           _fround (ARG)
             ___awdiv
               ___awmod (ARG)
             ___awmod
             ___ftmul
               ___awdiv (ARG)
                 ___awmod (ARG)
               ___awmod (ARG)
               ___ftpack (ARG)
               ___lbtoft (ARG)
                 ___ftpack
               ___wmul (ARG)
                 ___awdiv (ARG)
                   ___awmod (ARG)
                 ___awmod (ARG)
             ___wmul
               ___awdiv (ARG)
                 ___awmod (ARG)
               ___awmod (ARG)
         ___lltoft (ARG)
           ___ftpack
       ___fttol
         ___ftmul (ARG)
           ___awdiv (ARG)
             ___awmod (ARG)
           ___awmod (ARG)
           ___ftpack (ARG)
           ___lbtoft (ARG)
             ___ftpack
           ___wmul (ARG)
             ___awdiv (ARG)
               ___awmod (ARG)
             ___awmod (ARG)
         _scale (ARG)
           ___awdiv
             ___awmod (ARG)
           ___awmod
           ___ftmul
             ___awdiv (ARG)
               ___awmod (ARG)
             ___awmod (ARG)
             ___ftpack (ARG)
             ___lbtoft (ARG)
               ___ftpack
             ___wmul (ARG)
               ___awdiv (ARG)
                 ___awmod (ARG)
               ___awmod (ARG)
           ___wmul
             ___awdiv (ARG)
               ___awmod (ARG)
             ___awmod (ARG)
       ___lldiv
       ___llmod
         ___lldiv (ARG)
       ___lltoft
         ___ftpack
       ___wmul
         ___awdiv (ARG)
           ___awmod (ARG)
         ___awmod (ARG)
       __div_to_l_
       __tdiv_to_l_
       _fround
         ___awdiv
           ___awmod (ARG)
         ___awmod
         ___ftmul
           ___awdiv (ARG)
             ___awmod (ARG)
           ___awmod (ARG)
           ___ftpack (ARG)
           ___lbtoft (ARG)
             ___ftpack
           ___wmul (ARG)
             ___awdiv (ARG)
               ___awmod (ARG)
             ___awmod (ARG)
         ___wmul
           ___awdiv (ARG)
             ___awmod (ARG)
           ___awmod (ARG)
       _isdigit
       _scale
         ___awdiv
           ___awmod (ARG)
         ___awmod
         ___ftmul
           ___awdiv (ARG)
             ___awmod (ARG)
           ___awmod (ARG)
           ___ftpack (ARG)
           ___lbtoft (ARG)
             ___ftpack
           ___wmul (ARG)
             ___awdiv (ARG)
               ___awmod (ARG)
             ___awmod (ARG)
         ___wmul
           ___awdiv (ARG)
             ___awmod (ARG)
           ___awmod (ARG)
   _V_ProgTempAgua
     _Lcd_Cmd
     _Lcd_Out
       _Convert_diasem (ARG)
         _sprintf
           ___awdiv
             ___awmod (ARG)
           ___ftadd
             ___ftpack
             _fround (ARG)
               ___awdiv
                 ___awmod (ARG)
               ___awmod
               ___ftmul
                 ___awdiv (ARG)
                   ___awmod (ARG)
                 ___awmod (ARG)
                 ___ftpack (ARG)
                 ___lbtoft (ARG)
                   ___ftpack
                 ___wmul (ARG)
                   ___awdiv (ARG)
                     ___awmod (ARG)
                   ___awmod (ARG)
               ___wmul
                 ___awdiv (ARG)
                   ___awmod (ARG)
                 ___awmod (ARG)
           ___ftge
           ___ftmul
             ___awdiv (ARG)
               ___awmod (ARG)
             ___awmod (ARG)
             ___ftpack (ARG)
             ___lbtoft (ARG)
               ___ftpack
             ___wmul (ARG)
               ___awdiv (ARG)
                 ___awmod (ARG)
               ___awmod (ARG)
           ___ftneg
           ___ftsub
             ___ftadd
               ___ftpack
               _fround (ARG)
                 ___awdiv
                   ___awmod (ARG)
                 ___awmod
                 ___ftmul
                   ___awdiv (ARG)
                     ___awmod (ARG)
                   ___awmod (ARG)
                   ___ftpack (ARG)
                   ___lbtoft (ARG)
                     ___ftpack
                   ___wmul (ARG)
                     ___awdiv (ARG)
                       ___awmod (ARG)
                     ___awmod (ARG)
                 ___wmul
                   ___awdiv (ARG)
                     ___awmod (ARG)
                   ___awmod (ARG)
             ___lltoft (ARG)
               ___ftpack
           ___fttol
             ___ftmul (ARG)
               ___awdiv (ARG)
                 ___awmod (ARG)
               ___awmod (ARG)
               ___ftpack (ARG)
               ___lbtoft (ARG)
                 ___ftpack
               ___wmul (ARG)
                 ___awdiv (ARG)
                   ___awmod (ARG)
                 ___awmod (ARG)
             _scale (ARG)
               ___awdiv
                 ___awmod (ARG)
               ___awmod
               ___ftmul
                 ___awdiv (ARG)
                   ___awmod (ARG)
                 ___awmod (ARG)
                 ___ftpack (ARG)
                 ___lbtoft (ARG)
                   ___ftpack
                 ___wmul (ARG)
                   ___awdiv (ARG)
                     ___awmod (ARG)
                   ___awmod (ARG)
               ___wmul
                 ___awdiv (ARG)
                   ___awmod (ARG)
                 ___awmod (ARG)
           ___lldiv
           ___llmod
             ___lldiv (ARG)
           ___lltoft
             ___ftpack
           ___wmul
             ___awdiv (ARG)
               ___awmod (ARG)
             ___awmod (ARG)
           __div_to_l_
           __tdiv_to_l_
           _fround
             ___awdiv
               ___awmod (ARG)
             ___awmod
             ___ftmul
               ___awdiv (ARG)
                 ___awmod (ARG)
               ___awmod (ARG)
               ___ftpack (ARG)
               ___lbtoft (ARG)
                 ___ftpack
               ___wmul (ARG)
                 ___awdiv (ARG)
                   ___awmod (ARG)
                 ___awmod (ARG)
             ___wmul
               ___awdiv (ARG)
                 ___awmod (ARG)
               ___awmod (ARG)
           _isdigit
           _scale
             ___awdiv
               ___awmod (ARG)
             ___awmod
             ___ftmul
               ___awdiv (ARG)
                 ___awmod (ARG)
               ___awmod (ARG)
               ___ftpack (ARG)
               ___lbtoft (ARG)
                 ___ftpack
               ___wmul (ARG)
                 ___awdiv (ARG)
                   ___awmod (ARG)
                 ___awmod (ARG)
             ___wmul
               ___awdiv (ARG)
                 ___awmod (ARG)
               ___awmod (ARG)
       _Lcd_Chr_CP (ARG)
       _Lcd_Cmd (ARG)
     ___ftadd
       ___ftpack
       _fround (ARG)
         ___awdiv
           ___awmod (ARG)
         ___awmod
         ___ftmul
           ___awdiv (ARG)
             ___awmod (ARG)
           ___awmod (ARG)
           ___ftpack (ARG)
           ___lbtoft (ARG)
             ___ftpack
           ___wmul (ARG)
             ___awdiv (ARG)
               ___awmod (ARG)
             ___awmod (ARG)
         ___wmul
           ___awdiv (ARG)
             ___awmod (ARG)
           ___awmod (ARG)
     ___ftge
     ___ftsub
       ___ftadd
         ___ftpack
         _fround (ARG)
           ___awdiv
             ___awmod (ARG)
           ___awmod
           ___ftmul
             ___awdiv (ARG)
               ___awmod (ARG)
             ___awmod (ARG)
             ___ftpack (ARG)
             ___lbtoft (ARG)
               ___ftpack
             ___wmul (ARG)
               ___awdiv (ARG)
                 ___awmod (ARG)
               ___awmod (ARG)
           ___wmul
             ___awdiv (ARG)
               ___awmod (ARG)
             ___awmod (ARG)
       ___lltoft (ARG)
         ___ftpack
     _sprintf
       ___awdiv
         ___awmod (ARG)
       ___ftadd
         ___ftpack
         _fround (ARG)
           ___awdiv
             ___awmod (ARG)
           ___awmod
           ___ftmul
             ___awdiv (ARG)
               ___awmod (ARG)
             ___awmod (ARG)
             ___ftpack (ARG)
             ___lbtoft (ARG)
               ___ftpack
             ___wmul (ARG)
               ___awdiv (ARG)
                 ___awmod (ARG)
               ___awmod (ARG)
           ___wmul
             ___awdiv (ARG)
               ___awmod (ARG)
             ___awmod (ARG)
       ___ftge
       ___ftmul
         ___awdiv (ARG)
           ___awmod (ARG)
         ___awmod (ARG)
         ___ftpack (ARG)
         ___lbtoft (ARG)
           ___ftpack
         ___wmul (ARG)
           ___awdiv (ARG)
             ___awmod (ARG)
           ___awmod (ARG)
       ___ftneg
       ___ftsub
         ___ftadd
           ___ftpack
           _fround (ARG)
             ___awdiv
               ___awmod (ARG)
             ___awmod
             ___ftmul
               ___awdiv (ARG)
                 ___awmod (ARG)
               ___awmod (ARG)
               ___ftpack (ARG)
               ___lbtoft (ARG)
                 ___ftpack
               ___wmul (ARG)
                 ___awdiv (ARG)
                   ___awmod (ARG)
                 ___awmod (ARG)
             ___wmul
               ___awdiv (ARG)
                 ___awmod (ARG)
               ___awmod (ARG)
         ___lltoft (ARG)
           ___ftpack
       ___fttol
         ___ftmul (ARG)
           ___awdiv (ARG)
             ___awmod (ARG)
           ___awmod (ARG)
           ___ftpack (ARG)
           ___lbtoft (ARG)
             ___ftpack
           ___wmul (ARG)
             ___awdiv (ARG)
               ___awmod (ARG)
             ___awmod (ARG)
         _scale (ARG)
           ___awdiv
             ___awmod (ARG)
           ___awmod
           ___ftmul
             ___awdiv (ARG)
               ___awmod (ARG)
             ___awmod (ARG)
             ___ftpack (ARG)
             ___lbtoft (ARG)
               ___ftpack
             ___wmul (ARG)
               ___awdiv (ARG)
                 ___awmod (ARG)
               ___awmod (ARG)
           ___wmul
             ___awdiv (ARG)
               ___awmod (ARG)
             ___awmod (ARG)
       ___lldiv
       ___llmod
         ___lldiv (ARG)
       ___lltoft
         ___ftpack
       ___wmul
         ___awdiv (ARG)
           ___awmod (ARG)
         ___awmod (ARG)
       __div_to_l_
       __tdiv_to_l_
       _fround
         ___awdiv
           ___awmod (ARG)
         ___awmod
         ___ftmul
           ___awdiv (ARG)
             ___awmod (ARG)
           ___awmod (ARG)
           ___ftpack (ARG)
           ___lbtoft (ARG)
             ___ftpack
           ___wmul (ARG)
             ___awdiv (ARG)
               ___awmod (ARG)
             ___awmod (ARG)
         ___wmul
           ___awdiv (ARG)
             ___awmod (ARG)
           ___awmod (ARG)
       _isdigit
       _scale
         ___awdiv
           ___awmod (ARG)
         ___awmod
         ___ftmul
           ___awdiv (ARG)
             ___awmod (ARG)
           ___awmod (ARG)
           ___ftpack (ARG)
           ___lbtoft (ARG)
             ___ftpack
           ___wmul (ARG)
             ___awdiv (ARG)
               ___awmod (ARG)
             ___awmod (ARG)
         ___wmul
           ___awdiv (ARG)
             ___awmod (ARG)
           ___awmod (ARG)
   _V_Reiniciar
     _Lcd_Cmd
     _Lcd_Out
       _Convert_diasem (ARG)
         _sprintf
           ___awdiv
             ___awmod (ARG)
           ___ftadd
             ___ftpack
             _fround (ARG)
               ___awdiv
                 ___awmod (ARG)
               ___awmod
               ___ftmul
                 ___awdiv (ARG)
                   ___awmod (ARG)
                 ___awmod (ARG)
                 ___ftpack (ARG)
                 ___lbtoft (ARG)
                   ___ftpack
                 ___wmul (ARG)
                   ___awdiv (ARG)
                     ___awmod (ARG)
                   ___awmod (ARG)
               ___wmul
                 ___awdiv (ARG)
                   ___awmod (ARG)
                 ___awmod (ARG)
           ___ftge
           ___ftmul
             ___awdiv (ARG)
               ___awmod (ARG)
             ___awmod (ARG)
             ___ftpack (ARG)
             ___lbtoft (ARG)
               ___ftpack
             ___wmul (ARG)
               ___awdiv (ARG)
                 ___awmod (ARG)
               ___awmod (ARG)
           ___ftneg
           ___ftsub
             ___ftadd
               ___ftpack
               _fround (ARG)
                 ___awdiv
                   ___awmod (ARG)
                 ___awmod
                 ___ftmul
                   ___awdiv (ARG)
                     ___awmod (ARG)
                   ___awmod (ARG)
                   ___ftpack (ARG)
                   ___lbtoft (ARG)
                     ___ftpack
                   ___wmul (ARG)
                     ___awdiv (ARG)
                       ___awmod (ARG)
                     ___awmod (ARG)
                 ___wmul
                   ___awdiv (ARG)
                     ___awmod (ARG)
                   ___awmod (ARG)
             ___lltoft (ARG)
               ___ftpack
           ___fttol
             ___ftmul (ARG)
               ___awdiv (ARG)
                 ___awmod (ARG)
               ___awmod (ARG)
               ___ftpack (ARG)
               ___lbtoft (ARG)
                 ___ftpack
               ___wmul (ARG)
                 ___awdiv (ARG)
                   ___awmod (ARG)
                 ___awmod (ARG)
             _scale (ARG)
               ___awdiv
                 ___awmod (ARG)
               ___awmod
               ___ftmul
                 ___awdiv (ARG)
                   ___awmod (ARG)
                 ___awmod (ARG)
                 ___ftpack (ARG)
                 ___lbtoft (ARG)
                   ___ftpack
                 ___wmul (ARG)
                   ___awdiv (ARG)
                     ___awmod (ARG)
                   ___awmod (ARG)
               ___wmul
                 ___awdiv (ARG)
                   ___awmod (ARG)
                 ___awmod (ARG)
           ___lldiv
           ___llmod
             ___lldiv (ARG)
           ___lltoft
             ___ftpack
           ___wmul
             ___awdiv (ARG)
               ___awmod (ARG)
             ___awmod (ARG)
           __div_to_l_
           __tdiv_to_l_
           _fround
             ___awdiv
               ___awmod (ARG)
             ___awmod
             ___ftmul
               ___awdiv (ARG)
                 ___awmod (ARG)
               ___awmod (ARG)
               ___ftpack (ARG)
               ___lbtoft (ARG)
                 ___ftpack
               ___wmul (ARG)
                 ___awdiv (ARG)
                   ___awmod (ARG)
                 ___awmod (ARG)
             ___wmul
               ___awdiv (ARG)
                 ___awmod (ARG)
               ___awmod (ARG)
           _isdigit
           _scale
             ___awdiv
               ___awmod (ARG)
             ___awmod
             ___ftmul
               ___awdiv (ARG)
                 ___awmod (ARG)
               ___awmod (ARG)
               ___ftpack (ARG)
               ___lbtoft (ARG)
                 ___ftpack
               ___wmul (ARG)
                 ___awdiv (ARG)
                   ___awmod (ARG)
                 ___awmod (ARG)
             ___wmul
               ___awdiv (ARG)
                 ___awmod (ARG)
               ___awmod (ARG)
       _Lcd_Chr_CP (ARG)
       _Lcd_Cmd (ARG)
     _Write_RTC
       _RtccWrOn
       _RtccWriteDate
         _RtccWrOn
       _RtccWriteTime
         _RtccWrOn
       ___awdiv
         ___awmod (ARG)
   _Write_RTC
     _RtccWrOn
     _RtccWriteDate
       _RtccWrOn
     _RtccWriteTime
       _RtccWrOn
     ___awdiv
       ___awmod (ARG)
   _control_leds_iluminacion
   _control_leds_riego
   _control_temperatura_agua
     ___awtoft
       ___ftmul (ARG)
         ___awdiv (ARG)
           ___awmod (ARG)
         ___awmod (ARG)
         ___ftpack (ARG)
         ___lbtoft (ARG)
           ___ftpack
         ___wmul (ARG)
           ___awdiv (ARG)
             ___awmod (ARG)
           ___awmod (ARG)
       ___ftpack (ARG)
       ___fttol (ARG)
         ___ftmul (ARG)
           ___awdiv (ARG)
             ___awmod (ARG)
           ___awmod (ARG)
           ___ftpack (ARG)
           ___lbtoft (ARG)
             ___ftpack
           ___wmul (ARG)
             ___awdiv (ARG)
               ___awmod (ARG)
             ___awmod (ARG)
         _scale (ARG)
           ___awdiv
             ___awmod (ARG)
           ___awmod
           ___ftmul
             ___awdiv (ARG)
               ___awmod (ARG)
             ___awmod (ARG)
             ___ftpack (ARG)
             ___lbtoft (ARG)
               ___ftpack
             ___wmul (ARG)
               ___awdiv (ARG)
                 ___awmod (ARG)
               ___awmod (ARG)
           ___wmul
             ___awdiv (ARG)
               ___awmod (ARG)
             ___awmod (ARG)
     ___ftadd
       ___ftpack
       _fround (ARG)
         ___awdiv
           ___awmod (ARG)
         ___awmod
         ___ftmul
           ___awdiv (ARG)
             ___awmod (ARG)
           ___awmod (ARG)
           ___ftpack (ARG)
           ___lbtoft (ARG)
             ___ftpack
           ___wmul (ARG)
             ___awdiv (ARG)
               ___awmod (ARG)
             ___awmod (ARG)
         ___wmul
           ___awdiv (ARG)
             ___awmod (ARG)
           ___awmod (ARG)
     ___ftdiv
       ___awtoft (ARG)
         ___ftmul (ARG)
           ___awdiv (ARG)
             ___awmod (ARG)
           ___awmod (ARG)
           ___ftpack (ARG)
           ___lbtoft (ARG)
             ___ftpack
           ___wmul (ARG)
             ___awdiv (ARG)
               ___awmod (ARG)
             ___awmod (ARG)
         ___ftpack (ARG)
         ___fttol (ARG)
           ___ftmul (ARG)
             ___awdiv (ARG)
               ___awmod (ARG)
             ___awmod (ARG)
             ___ftpack (ARG)
             ___lbtoft (ARG)
               ___ftpack
             ___wmul (ARG)
               ___awdiv (ARG)
                 ___awmod (ARG)
               ___awmod (ARG)
           _scale (ARG)
             ___awdiv
               ___awmod (ARG)
             ___awmod
             ___ftmul
               ___awdiv (ARG)
                 ___awmod (ARG)
               ___awmod (ARG)
               ___ftpack (ARG)
               ___lbtoft (ARG)
                 ___ftpack
               ___wmul (ARG)
                 ___awdiv (ARG)
                   ___awmod (ARG)
                 ___awmod (ARG)
             ___wmul
               ___awdiv (ARG)
                 ___awmod (ARG)
               ___awmod (ARG)
       ___ftmul (ARG)
         ___awdiv (ARG)
           ___awmod (ARG)
         ___awmod (ARG)
         ___ftpack (ARG)
         ___lbtoft (ARG)
           ___ftpack
         ___wmul (ARG)
           ___awdiv (ARG)
             ___awmod (ARG)
           ___awmod (ARG)
       ___ftpack (ARG)
       ___fttol (ARG)
         ___ftmul (ARG)
           ___awdiv (ARG)
             ___awmod (ARG)
           ___awmod (ARG)
           ___ftpack (ARG)
           ___lbtoft (ARG)
             ___ftpack
           ___wmul (ARG)
             ___awdiv (ARG)
               ___awmod (ARG)
             ___awmod (ARG)
         _scale (ARG)
           ___awdiv
             ___awmod (ARG)
           ___awmod
           ___ftmul
             ___awdiv (ARG)
               ___awmod (ARG)
             ___awmod (ARG)
             ___ftpack (ARG)
             ___lbtoft (ARG)
               ___ftpack
             ___wmul (ARG)
               ___awdiv (ARG)
                 ___awmod (ARG)
               ___awmod (ARG)
           ___wmul
             ___awdiv (ARG)
               ___awmod (ARG)
             ___awmod (ARG)
     ___ftge
     ___ftmul
       ___awdiv (ARG)
         ___awmod (ARG)
       ___awmod (ARG)
       ___ftpack (ARG)
       ___lbtoft (ARG)
         ___ftpack
       ___wmul (ARG)
         ___awdiv (ARG)
           ___awmod (ARG)
         ___awmod (ARG)
     ___fttol
       ___ftmul (ARG)
         ___awdiv (ARG)
           ___awmod (ARG)
         ___awmod (ARG)
         ___ftpack (ARG)
         ___lbtoft (ARG)
           ___ftpack
         ___wmul (ARG)
           ___awdiv (ARG)
             ___awmod (ARG)
           ___awmod (ARG)
       _scale (ARG)
         ___awdiv
           ___awmod (ARG)
         ___awmod
         ___ftmul
           ___awdiv (ARG)
             ___awmod (ARG)
           ___awmod (ARG)
           ___ftpack (ARG)
           ___lbtoft (ARG)
             ___ftpack
           ___wmul (ARG)
             ___awdiv (ARG)
               ___awmod (ARG)
             ___awmod (ARG)
         ___wmul
           ___awdiv (ARG)
             ___awmod (ARG)
           ___awmod (ARG)
     ___lbtoft
       ___ftpack
     _lee_temperatura

 Address spaces:
Name               Size   Autos  Total    Cost      Usage
BIGRAM             EBF      0       0      35        0.0%
BITBANK13          100      0       0      31        0.0%
BANK13             100      0       0      32        0.0%
BITBANK12          100      0       0      29        0.0%
BANK12             100      0       0      30        0.0%
BITBANK11          100      0       0      27        0.0%
BANK11             100      0       0      28        0.0%
BITBANK10          100      0       0      25        0.0%
BANK10             100      0       0      26        0.0%
BITBANK9           100      0       0      23        0.0%
BANK9              100      0       0      24        0.0%
BITBANK8           100      0       0      21        0.0%
BANK8              100      0       0      22        0.0%
BITBANK7           100      0       0      19        0.0%
BANK7              100      0       0      20        0.0%
BITBANK6           100      0       0      17        0.0%
BANK6              100      0       0      18        0.0%
BITBANK5           100      0       0      15        0.0%
BANK5              100      0       0      16        0.0%
BITBANK4           100      0       0      13        0.0%
BANK4              100      0       0      14        0.0%
BITBANK3           100      0       0      11        0.0%
BANK3              100      0       0      12        0.0%
BITBANK2           100      0       0       9        0.0%
BANK2              100      0       0      10        0.0%
BITBANK1           100      0       0       7        0.0%
BANK1              100      0      50       8       31.3%
BITBANK14           C0      0       0      33        0.0%
BANK14              C0      0       0      34        0.0%
BITBANK0            A0      0       0       4        0.0%
BANK0               A0     4A      9C       5       97.5%
BITCOMRAM           5F      0       0       0        0.0%
COMRAM              5F     5D      5F       1      100.0%
BITSFR_2             0      0       0      40        0.0%
SFR_2                0      0       0      40        0.0%
BITSFR_1             0      0       0      40        0.0%
SFR_1                0      0       0      40        0.0%
BITSFR               0      0       0      40        0.0%
SFR                  0      0       0      40        0.0%
STACK                0      0       0       2        0.0%
NULL                 0      0       0       0        0.0%
ABS                  0      0     14B       6        0.0%
DATA                 0      0     14B       3        0.0%
CODE                 0      0       0       0        0.0%


Microchip Technology PIC18 Macro Assembler V1.34 build -361300703 
Symbol Table                                                                                   Wed Dec 02 20:29:44 2020

                        V_Principal@cte 0059                                       _i 00B0  
                                    l83 C27C                                      l84 C2BE  
                  V_ProgReloj@minuto_tr 00A6                            ___awdiv@sign 000C  
                   ___wmul@multiplicand 0011                     V_ProgReloj@posicion 00A8  
                          __CFG_CP0$OFF 000000                 __size_of_V_ProgTempAgua 0284  
                          ___ftadd@exp1 0039                            ___ftadd@exp2 0038  
                          ___ftadd@sign 0037                                     l340 D7C2  
                                   l361 B4A0                                     l522 F214  
                                   l338 D708                                     l381 B71C  
                                   l550 F39A                                     l615 FA2C  
                                   l472 EB2A                                     l537 F292  
                                   l449 E998                                     l394 CE2E  
                                   l387 B8F4                                     l599 F91E  
                                   _dia 00E4                                     _mes 00E6  
                          ___awmod@sign 0006                                     wreg 000FE8  
                       RtccReadDate@pDt 0001                __size_of_V_ProgRiegoIlum 06C6  
                          ___ftdiv@cntr 0047                            ___ftdiv@sign 004C  
                                  l1103 D03C                                    l1114 D0FE  
                                  l1123 D11A                                    l1027 C7AA  
                                  l1141 C84E                                    l1070 BCEE  
                                  l1142 C876                                    l1134 BDCE  
                                  l1228 B9F2                                    l1148 C8E4  
                                  l1173 B4F2                                    l1238 B7EA  
                                  l1099 D012                                    l4110 B4D2  
                                  l4120 C7E8                                    l4220 C77C  
                                  l4204 C73A                                    l4060 D590  
                                  l4052 D4CC                                    l5020 C1FC  
                                  l5012 C1E4                                    l4302 BFE6  
                                  l4126 C814                                    l4312 B99A  
                                  l4216 C76C                                    l4208 C74A  
                                  l4160 C8B6                                    l4080 DA34  
                                  l4400 E9A4                                    l5016 C1F0  
                                  l4242 BB58                                    l4234 B5DA  
                                  l4314 B9A8                                    l4226 C796  
                                  l4074 D98C                                    l5122 BA04  
                                  l5042 CAD4                                    l6002 E8F0  
                                  l4252 BBB6                                    l4324 B9E2  
                                  l4316 B9B0                                    l4340 B7DA  
                                  l4332 B79E                                    l4228 C7A4  
                                  l4156 C8A6                                    l4148 C884  
                                  l4092 DB86                                    l4084 DA58  
                                  l4500 ECB2                                    l4420 EA5A  
                                  l4404 E9C4                                    l4412 EA28  
                                  l5052 CB04                                    l5036 CA9A  
                                  l4246 BB8A                                    l4334 B7AC  
                                  l4182 C6C4                                    l4166 C8D0  
                                  l4510 ED02                                    l4502 ECD0  
                                  l5046 CAE8                                    l6006 E906  
                                  l4336 B7B4                                    l4176 C6A6  
                                  l4168 C8DE                                    l4600 F10C  
                                  l4432 EAA6                                    l4440 EB06  
                                  l4360 BAA2                                    l5304 BD68  
                                  l3810 D056                                    l4266 BF24  
                                  l4346 B65A                                    l4098 DC2E  
                                  l4610 F152                                    l4522 ED7E  
                                  l4506 ECEA                                    l4450 EB30  
                                  l4434 EAB2                                    l4514 ED0A  
                                  l5250 C342                                    l4370 BAD4  
                                  l4362 BAA8                                    l3820 D07E  
                                  l3804 D04A                                    l4284 BF8C  
                                  l4348 B668                                    l4196 C708  
                                  l3900 C0BE                                    l4612 F15C  
                                  l4604 F112                                    l4532 EDC6  
                                  l4460 EB70                                    l4516 ED60  
                                  l4444 EB1A                                    l5260 C3D8  
                                  l5252 C360                                    l4356 BA96  
                                  l5092 CB72                                    l5084 CB5A  
                                  l5324 BDA8                                    l3830 D0BA  
                                  l4294 BFB6                                    l4702 F3D6  
                                  l4630 F1CA                                    l4470 EBE0  
                                  l4462 EB78                                    l4446 EB20  
                                  l4438 EAEE                                    l4390 E95E  
                                  l5254 C37E                                    l4374 BAFE  
                                  l4358 BA9C                                    l4366 BAB0  
                                  l5334 BDDC                                    l3760 BC9E  
                                  l3752 BC62                                    l3840 D0F2  
                                  l3832 D0C2                                    l4296 BFC4  
                                  l4288 BF9C                                    l3904 C0D4  
                                  l4800 F73E                                    l4624 F1AC  
                                  l4616 F17E                                    l4560 EEFA  
                                  l4480 EC1C                                    l4464 EBB6  
                                  l4448 EB26                                    l4392 E964  
                                  l4384 E93C                                    l5256 C39C  
                                  l5248 C324                                    l5264 C3F6  
                                  l4368 BACC                                    l5096 B71E  
                                  l5088 CB66                                    l5600 E042  
                                  l6080 CC96                                    l6064 CC4E  
                                  l3826 D0A2                                    l4298 BFCE  
                                  l3930 BC04                                    l3922 BBE4  
                                  l4810 F7B0                                    l4802 F75E  
                                  l4706 F428                                    l4642 F1FC  
                                  l4626 F1B8                                    l4562 EF10  
                                  l4474 EC06                                    l4458 EB64  
                                  l4386 E952                                    l4378 E91E  
                                  l5258 C3BA                                    l5266 C434  
                                  l5610 E07E                                    l5450 B8C0  
                                  l5346 B59C                                    l3780 BD08  
                                  l3764 BCB6                                    l3756 BC72  
                                  l3828 D0AE                                    l3940 BC2A  
                                  l3932 BC0C                                    l3916 BBD2  
                                  l4900 FA42                                    l4724 F538  
                                  l4716 F50E                                    l4660 F278  
                                  l4652 F238                                    l4636 F1E2  
                                  l4572 EF9E                                    l4564 EF42  
                                  l4556 EED2                                    l4548 EE6A  
                                  l4484 EC2E                                    l4492 EC7E  
                                  l4476 EC12                                    l4388 E958  
                                  l4396 E970                                    l5532 DDC8  
                                  l5540 DE04                                    l5700 D268  
                                  l5436 B6E8                                    l6084 CCB2  
                                  l6076 CC7A                                    l3774 BCF6  
                                  l3766 BCD6                                    l3758 BC7E  
                                  l3846 D138                                    l3838 D0E6  
                                  l4830 F85A                                    l4822 F812  
                                  l4806 F782                                    l4750 F612  
                                  l4718 F51E                                    l4670 F2AA  
                                  l4662 F284                                    l4646 F21E  
                                  l4654 F250                                    l4590 F0BE  
                                  l4582 F014                                    l4566 EF58  
                                  l4734 F58A                                    l4486 EC48  
                                  l5518 DD64                                    l5470 CDE6  
                                  l3768 BCE2                                    l3856 D16A  
                                  l3928 BBFA                                    l3944 BC36  
                                  l3960 B90C                                    l3872 C04A  
                                  l4824 F81E                                    l4816 F7DE  
                                  l4728 F562                                    l4680 F34E  
                                  l4592 F0C4                                    l4584 F042  
                                  l4576 EFC4                                    l4496 ECA0  
                                  l5640 E14A                                    l5632 E110  
                                  l5624 E0D6                                    l5720 D37C  
                                  l3970 B932                                    l3890 C090  
                                  l3866 C022                                    l4930 FBB4  
                                  l4922 FADC                                    l4906 FA76  
                                  l4850 F918                                    l4842 F8E2  
                                  l4770 F692                                    l4762 F650  
                                  l4746 F5E8                                    l4578 EFD0  
                                  l4586 F056                                    l5650 E1A4  
                                  l5642 E168                                    l5634 E12E  
                                  l5626 E0F4                                    l5618 E0BA  
                                  l5570 DECE                                    l5562 DE94  
                                  l5554 DE5A                                    l5546 DE20  
                                  l5706 D2A0                                    l5298 BD40  
                                  l5474 CE0A                                    l3948 BC46  
                                  l3972 B93A                                    l3980 B95C  
                                  l3964 B91A                                    l4932 FBC2  
                                  l4924 FB50                                    l4940 FC60  
                                  l4916 FABC                                    l4844 F8EE  
                                  l4836 F8A2                                    l4780 F6E0  
                                  l4772 F698                                    l4756 F63C  
                                  l4692 F3A0                                    l4668 F2A4  
                                  l4596 F0D2                                    l5572 DEEC  
                                  l5564 DEB2                                    l5556 DE78  
                                  l5548 DE3E                                    l5580 DF26  
                                  l5900 E546                                    l5716 D366  
                                  l5468 CDD8                                    l3798 D020  
                                  l3894 C0A6                                    l3886 C07E  
                                  l4942 FC6C                                    l4934 FBE8  
                                  l4918 FAC8                                    l4838 F8AE  
                                  l4790 F6FC                                    l4766 F68A  
                                  l4758 F642                                    l4686 F368  
                                  l4678 F33E                                    l5590 DFB4  
                                  l5902 E564                                    l5910 E59E  
                                  l3984 B96C                                    l3976 B950  
                                  l3968 B928                                    l3896 C0AC  
                                  l4944 FC72                                    l4856 F932  
                                  l4872 F994                                    l4880 F9C8  
                                  l4784 F6E8                                    l4776 F6A6  
                                  l4688 F37C                                    l5664 E22A  
                                  l5656 E1C2                                    l5648 E186  
                                  l5584 DF52                                    l5920 E62C  
                                  l5840 E3A0                                    l4938 FC40  
                                  l4890 FA02                                    l4874 F9A0  
                                  l4866 F978                                    l4794 F736  
                                  l4786 F6EE                                    l4698 F3C4  
                                  l4954 FCCE                                    l5658 E1E0  
                                  l5586 DF5E                                    l5578 DF08  
                                  l5930 E6BA                                    l5914 E5CA  
                                  l5746 D690                                    l4948 FCA6  
                                  l4884 F9DA                                    l4868 F984  
                                  l4956 FCEE                                    l5596 DFEC  
                                  l5668 E240                                    l5940 E6F6  
                                  l5916 E5D6                                    l5908 E580  
                                  l5860 E424                                    l5852 E3EA  
                                  l5780 D814                                    l5764 D75A  
                                  l5692 D220                                    l4894 FA26  
                                  l4974 C164                                    l5950 E750  
                                  l5942 E714                                    l5926 E664  
                                  l5870 E47C                                    l5862 E442  
                                  l5854 E408                                    l4984 C194  
                                  l4968 C13A                                    l5784 D838  
                                  l4978 C178                                    l5980 E822  
                                  l5972 E7E6                                    l5964 E7AA  
                                  l5956 E76E                                    l5948 E732  
                                  l5892 E50C                                    l5884 E4D2  
                                  l5876 E498                                    l5868 E45E  
                                  l5788 D84E                                    l5990 E87C  
                                  l5982 E840                                    l5974 E804  
                                  l5966 E7C8                                    l5958 E78C  
                                  l5894 E52A                                    l5886 E4F0  
                                  l5878 E4B6                                    l5996 E89A  
                                  l5988 E85E                                    l5998 E8B8  
                                  STR_1 FEF2                                    STR_2 FDC5  
                                  STR_3 FFA3                                    STR_4 FFC3  
                                  STR_5 FEDD                                    STR_6 FDC5  
                                  STR_7 FF92                                    STR_8 FDF5  
                                  STR_9 FFF1                                    u5130 EE06  
                                  u5050 EC70                                    u4171 C00A  
                                  u4501 C7CC                                    u4405 C5A4  
                                  u4191 C032                                    u5135 EDFC  
                                  u7000 D6AA                                    u4521 C7F8  
                                  u5057 EC66                                    u5410 F392  
                                  u4355 C44E                                    u6211 BD28  
                                  u4365 C464                                    u7110 E39E  
                                  u7030 D762                                    u4375 C484  
                                  u4711 BF08                                    u6231 BD50  
                                  u7120 E3B8                                    u7040 D764  
                                  u4385 C56E                                    u4730 BF42  
                                  u7130 E3BA                                    u4395 C584  
                                  u5710 F896                                    u6430 DD62  
                                  u7310 E5A6                                    u7070 D81C  
                                  u6350 B8AE                                    u8007 C296  
                                  u4735 BF3A                                    u6600 DF30  
                                  u6440 DD96                                    u7400 E6C4  
                                  u7320 E5A8                                    u7080 D81E  
                                  u6360 B8B0                                    u8017 C2AE  
                                  u3961 CFDE                                    u6450 DD98  
                                  u8027 C2D8                                    u3971 CFF2  
                                  u4860 BAF4                                    u8037 C2F0  
                                  u4870 BB1E                                    u6630 DFBC  
                                  u7350 E634                                    u8047 C4BE  
                                  u6640 DFBE                                    u7360 E636  
                                  u8057 C4C8                                    u8067 C53E  
                                  u4867 BAEA                                    u4980 EBAC  
                                  u6820 E1E8                                    u6660 DFE0  
                                  u7380 E658                                    u6900 D270  
                                  u7700 CCA0                                    u8077 C548  
                                  u5861 FA9A                                    u4877 BB14  
                                  u6830 E1EA                                    u6670 E04A  
                                  u6590 DF2E                                    u7390 E6C2  
                                  u6910 D272                                    u7630 CC66  
                                  u8087 C556                                    u6680 E04C  
                                  u7720 CCBA                                    u7640 CC68  
                                  u6930 D2A8                                    u7730 CCBC  
                                  u4987 EBA2                                    u7580 E8C0  
                                  u6940 D2AA                                    u6860 D21E  
                                  u7660 CC82                                    u7590 E8C2  
                                  u6870 D238                                    u7670 CC84  
                                  u7807 CC1C                                    u6880 D23A  
                                  u7817 CC2C                                    u7690 CC9E  
                                  u7907 C65E                                    u7827 CC3C  
                                  u6980 D68E                                    u7917 C668  
                                  u7837 B4AA                                    u7757 CBCC  
                                  u6990 D6A8                                    u7927 C672  
                                  u7847 D226                                    u7767 CBDC  
                                  u7937 C67E                                    u7857 D696  
                                  u7777 CBEC                                    u7947 C226  
                                  u7867 E3A6                                    u7787 CBFC  
                                  u7957 C234                                    u7877 DD84  
                                  u7797 CC0C                                    u7967 C242  
                                  u7887 C5DE                                    u7977 C250  
                                  u7897 C5E8                                    u7987 C25E  
                                  u7997 C26C          V_ProgRiegoIlum@i_hora_riego_tr 00A4  
                                  _anio 00E2                                    _main CB7E  
                                  _hora 005E                            ___ftpack@arg 0001  
                          ___ftpack@exp 0004                                    fsr0h 000FEA  
                                  indf0 000FEF                                    fsr0l 000FE9  
                                  fsr2h 000FDA                                    fsr1l 000FE1  
                                  indf2 000FDF                                    fsr2l 000FD9  
                         __CFG_T1DIG$ON 000000                           ??_V_Reiniciar 0059  
                                  prodh 000FF4                                    prodl 000FF3  
                                  start 0000                           __CFG_IESO$OFF 000000  
                      RtccReadDate@rTD0 000B                        RtccReadDate@rTD1 0003  
                          _sprintf$1263 0063                            _sprintf$1272 006B  
                          _sprintf$1264 0065                            _sprintf$1265 0067  
                          _sprintf$1266 0069                         __end_of_Lcd_Cmd C560  
                          _sprintf$2476 0060                         __end_of_Lcd_Out BB26  
                          ___ftmul@cntr 0022                            ___param_bank 000010  
                          ___ftmul@sign 0023                         RtccReadTime@pTm 0001  
                            _Lcd_Chr_CP C560                           ??_V_ProgReloj 005A  
                          ___fttol@exp1 0039                           ??_V_Principal 0059  
                          ___fttol@lval 0035                           __CFG_PLLDIV$1 000000  
                                 ?_main 0001                         __end_of___awdiv BC52  
                       __end_of___ftadd D192                                   STR_10 FDF5  
                                 STR_11 FFBE                                   STR_20 FFBE  
                                 STR_12 FFBE                                   STR_21 FFBE  
                                 STR_13 FFBE                                   STR_30 FDF5  
                                 STR_22 FFBE                                   STR_14 FFBE  
                                 STR_31 FFBE                                   STR_23 FFBE  
                                 STR_15 FFBE                                   STR_40 FDF5  
                                 STR_16 FDF5                                   STR_32 FFBE  
                                 STR_24 FDF6                                   STR_17 FDF5  
                                 STR_41 FFBE                                   STR_33 FFBE  
                                 STR_25 FFB4                                   STR_18 FDF5  
                                 STR_42 FFBE                                   STR_34 FFBE  
                                 STR_26 FFD1                                   STR_50 FF46  
                                 STR_43 FFBE                                   STR_35 FFBE  
                                 STR_19 FFBE                                   STR_27 FE9E  
                                 STR_51 FDE1                                   STR_44 FFBE  
                                 STR_36 FFBE                                   STR_28 FFB4  
                                 STR_52 FF31                                   STR_60 FEB3  
                       __end_of___awmod B978                                   STR_53 FDF5  
                                 STR_45 FFBE                                   STR_37 FFBE  
                                 STR_29 FFD1                                   STR_61 FEC8  
                                 STR_62 FDF5                                   STR_46 FFBE  
                                 STR_38 FFBE                                   STR_54 FFE6  
                                 STR_70 FE35                                   STR_63 FDF5  
                                 STR_55 FDF5                                   STR_39 FDF5  
                                 STR_71 FFF4                                   STR_47 FFBE  
                                 STR_64 FDF5                                   STR_48 FFBE  
                                 STR_56 FFEC                                   STR_80 FFDF  
                                 STR_72 FE89                                   STR_57 FDF5  
                                 STR_73 FFF4                                   STR_65 FFF4  
                                 STR_81 FF70                                   STR_49 FF07  
                                 STR_82 FF81                                   STR_58 FF5B  
                                 STR_66 FE5F                                   STR_74 FE4A  
                                 STR_75 FFF4                                   STR_67 FFF4  
                                 STR_59 FF1C                                   STR_76 FE74  
                                 STR_68 FE0B                                   STR_77 FFF4  
                                 STR_69 FFF4                                   STR_78 FE20  
                                 STR_79 FDF5                         __end_of___ftdiv BE04  
                       __end_of___ftneg B500                         __end_of___lldiv BA04  
                       __end_of___ftmul C0FC                         ___awdiv@divisor 0009  
                       __end_of___llmod B7FC                         __end_of___ftsub B606  
                       __end_of___fttol BFFA                         ___awdiv@counter 000B  
                                 _TRISA 000F92                                   _TRISB 000F93  
                                 _TRISC 000F94                            ___lltoft@exp 0011  
                        __CFG_FCMEN$OFF 000000                                   _Sw_Up 00BB  
                         ___awtoft@sign 003D                         __end_of_dpowers FD57  
                                 _mes_d 00F6                                   _mes_u 00F7  
                                 _scale D856                         __end_of_isdigit B4DC  
                         ___ftpack@sign 0005                                   tablat 000FF5  
                            _CuentamSeg 00B4              ??_control_temperatura_agua 004D  
                                 status 000FD8                         __end_of_sprintf FCFE  
                      __end_of_Lcd_Init C322                 __CFG_DSWDTOSC$INTOSCREF 000000  
                       __initialization B7FC                            __end_of_main CCD2  
                      RtccReadTime@rTD0 000B                        RtccReadTime@rTD1 0003  
                   __end_of_V_Reiniciar D384                        __end_of_Read_RTC CA38  
            __end_of_control_leds_riego B8F6                                  ??_main 005D  
                         ___fttol@sign1 0034                           __activetblptr 000002  
                   __end_of_V_ProgReloj E248                    __size_of__tdiv_to_l_ 013A  
                   __end_of_V_Principal BEF8                        __end_of_RtccWrOn B486  
                                _ADCON0 000FC2                                  _ADCON1 000FC1  
                      ___llmod@dividend 000E                                  ?_scale 0024  
                                _ADRESH 000FC4                                  _EECON2 000FA7  
                                _ANCON0 000F48                                  _ANCON1 000F49  
                      ___awdiv@dividend 0007                        __end_of___awtoft B5C2  
                      __end_of___ftpack BD18                        __end_of___lbtoft B526  
                      __end_of___lltoft B6B4                          __CFG_WDTEN$OFF 000000  
                       _lee_temperatura B49A                               ??_Lcd_Cmd 0001  
                     ??_V_ProgRiegoIlum 005A                        RtccWriteDate@pDt 0001  
                                _RTCCFG 000F3F                               ??_Lcd_Out 0057  
                        __CFG_WPCFG$OFF 000000                                  _Flag_1 00B5  
                        __CFG_WPDIS$OFF 000000                          __CFG_XINST$OFF 000000  
                      __end_of__powers_ FDA5                                  ___ftge BB26  
                           ?_Lcd_Chr_CP 0001                                  ___wmul B526  
                             ??___awdiv 000B                               ??___ftadd 0034  
                        __CFG_STVREN$ON 000000                               ??___awmod 0005  
                      __end_of_escribir B654                               ??___ftdiv 0044  
                             ??___ftneg 0004                               ??___lldiv 0009  
                                _diasem 00AE                               ??___ftmul 001B  
                                _anio_d 00EF                               ??___llmod 0016  
                             ??___ftsub 0040                               ??___fttol 002F  
                                _anio_u 00F0                        ??_Convert_diasem 0052  
                                _grados 00DC                                  _hora_d 00F4  
                                _hora_u 00F5                                  _fround D384  
                                clear_0 B802                                  clear_1 B80E  
                      ___awdiv@quotient 000D                                  _minuto 00E8  
                       ___awmod@divisor 0003                          _V_ProgTempAgua D5D2  
                       ___awmod@counter 0005                   __end_of_RtccWriteDate CB7E  
                 __end_of_RtccWriteTime C208                   ___ftmul@f3_as_product 001F  
                      RtccWriteTime@pTm 0001           V_ProgRiegoIlum@i_hora_ilum_tr 00A0  
                          __pdataCOMRAM 005E                               ??_isdigit 0001  
                          __mediumconst FCFE                                  tblptrh 000FF7  
                                tblptrl 000FF6                                  tblptru 000FF8  
        V_ProgRiegoIlum@f_hora_riego_tr 00A6                            escribir@fila 0059  
                             ??_sprintf 004A                _control_leds_iluminacion B6B4  
                            __accesstop 0060                 __end_of__initialization B86C  
                            ___ftadd@f1 002E                              ___ftadd@f2 0031  
                    __size_of_Write_RTC 019A                              ___ftge@ff1 0001  
                            ___ftge@ff2 0004                           ___rparam_used 000001  
                            ___ftdiv@f1 003E                              ___ftdiv@f2 0041  
                            ___ftdiv@f3 0048                             _V_Reiniciar D192  
                            ___ftneg@f1 0001                              ___awtoft@c 003A  
                            ___lbtoft@c 000C                              ___ftmul@f1 0015  
                            ___ftmul@f2 0018                              ___ftsub@f1 003A  
                            ___ftsub@f2 003D                              ___fttol@f1 002B  
                        __pcstackCOMRAM 0001                            __pidataBANK0 B487  
                          __pidataBANK1 B54E                              ___lltoft@c 0009  
                __end_of_V_ProgTempAgua D856                             _V_ProgReloj DC54  
                         __end_of_scale DC54                             _V_Principal BE04  
                       __CFG_DSWDTPS$G2 000000           V_ProgRiegoIlum@i_min_riego_tr 00A5  
                            __div_to_l_ C688                         __CFG_OSC$INTOSC 000000  
               __end_of_lee_temperatura B4BA                       _inicio_hora_riego 00EE  
                             ?_Lcd_Init 0001                         __div_to_l_@exp1 000C  
                       __div_to_l_@cntr 000B                                 ??_scale 0027  
                       __div_to_l_@quot 0007                            sprintf@width 0083  
                   __size_of_Lcd_Chr_CP 0128                              __pbssBANK0 00AA  
                            __pbssBANK1 0138        __end_of_control_temperatura_agua CE34  
                             ?_Read_RTC 0001                              _dia_semana 00F1  
             RtccWriteTime@tempHourWDay 000A                           __div_to_l_@f1 0001  
                         __div_to_l_@f2 0004                               ?_RtccWrOn 0001  
                               ?___ftge 0001                                 ?___wmul 000F  
                         ?_RtccReadDate 0001                         ?_V_ProgTempAgua 0001  
                         ?_RtccReadTime 0001                                 ?_fround 0024  
                             ?___awtoft 003A                               ?___ftpack 0001  
                             ?___lbtoft 0009                               ?___lltoft 0009  
                     __end_of_Write_RTC CFCE                              ??_Lcd_Init 0004  
                               _RTCVALH 000F99                                 _RTCVALL 000F98  
                             ?_escribir 009C                              ??_Read_RTC 0013  
                               _Lcd_Cmd C440                                 _Lcd_Out BA92  
                               _Humedad 00B6                       __end_of__npowers_ FD7E  
                               __Hparam 0000                              _scale$2475 0027  
                               __Lparam 0000                                 _Sw_Left 00B9  
                               _Sw_Down 00B8                              ??_RtccWrOn 0001  
                        ??_RtccReadDate 0003                         __size_of___ftge 0096  
                        ??_RtccReadTime 0003                                 ___awdiv BBBC  
                               ___ftadd CFCE                                 ___awmod B8F6  
                               ___ftdiv BD18                                 ___ftneg B4DC  
                               ___lldiv B978                         __size_of___wmul 0028  
                               ___ftmul BFFA                                 ___llmod B78C  
                               ___ftsub B5C2                                 ___fttol BEF8  
                           _RtccTimeVal 00AA                                 __pcinit B7FC  
                               _fecha_d 00F2                                 _fecha_u 00F3  
                            ??___awtoft 003D                              ??___ftpack 0006  
                            ??___lbtoft 000C                         __size_of_fround 024E  
                               __ramtop 0F00                              ??___lltoft 000D  
                               __ptext0 CB7E                                 __ptext1 CCD2  
                               __ptext2 B49A                                 __ptext3 B500  
                               __ptext4 BD18                                 __ptext5 B586  
                               __ptext6 B876                                 __ptext7 B6B4  
                               __ptext8 D192                                 __ptext9 D5D2  
                               _buffer1 00C0                       __end_of_hexpowers FDC5  
                             _T1CONbits 000FCD                             ?__div_to_l_ 0001  
                               _lectura 00BF                                 _dpowers FD2F  
                               _isdigit B4BA                         _V_ProgRiegoIlum E248  
                      ___awmod@dividend 0001                                 _segundo 00B2  
                      ?_lee_temperatura 0001            V_ProgRiegoIlum@f_min_ilum_tr 00A3  
                               _sprintf E90E                      _control_leds_riego B876  
                  end_of_initialization B86C                       __end_of_octpowers FD2F  
                            ??_escribir 0059                            _fin_min_ilum 00BC  
                         __Lmediumconst FCFE                     ?_control_leds_riego 0001  
                       ___lldiv@divisor 0005                         ___lldiv@counter 000D  
control_temperatura_agua@grados_medidos 0053                            ??_Lcd_Chr_CP 0001  
                               postdec1 000FE5                                 postdec2 000FDD  
                               postinc0 000FEE                                 postinc2 000FDE  
                        __tdiv_to_l_@f1 0001                          __tdiv_to_l_@f2 0004  
     __size_of_control_temperatura_agua 0162                           ??__tdiv_to_l_ 0007  
             ?_control_temperatura_agua 0001                               _PORTAbits 000F80  
                             _PORTCbits 000F82                        __CFG_DSBOREN$OFF 000000  
                    V_ProgReloj@anio_tr 00A4                    ??_control_leds_riego 0001  
            ??_control_leds_iluminacion 0001                        __CFG_CPUDIV$OSC1 000000  
                    V_ProgReloj@hora_tr 00A5                               _TRISBbits 000F93  
                    __end_of_Lcd_Chr_CP C688                             ___ftdiv@exp 004B  
                      __CFG_IOL1WAY$OFF 000000               RtccWriteDate@tempDayMonth 000A  
                          ?_V_Reiniciar 0001                     __size_of__div_to_l_ 0134  
                   __CFG_MSSP7B_EN$MSK7 000000                             ___ftmul@exp 001E  
                          ?_V_ProgReloj 0001                          __end_of___ftge BBBC  
                          ?_V_Principal 0001                 __end_of_V_ProgRiegoIlum E90E  
                        __end_of___wmul B54E              V_ProgTempAgua@temp_prog_tr 005A  
                         __pidataCOMRAM B472               RtccWriteDate@tempHourWDay 000C  
                        __end_of_fround D5D2                        __CFG_DSWDTEN$OFF 000000  
                   start_initialization B7FC                     __end_of__tdiv_to_l_ C8F6  
                  __end_of_RtccReadDate BA92                           Lcd_Out@buffer 0055  
                  __end_of_RtccReadTime B78C                       __size_of_Lcd_Init 011A  
                  RtccWriteTime@wasAlrm 0006                    RtccWriteTime@wasWrEn 0007  
                       ___llmod@divisor 0012                         ___llmod@counter 0016  
                __size_of_RtccWriteDate 0146                         RtccWriteDate@di 0003  
                __size_of_RtccWriteTime 010C                       __size_of_Read_RTC 0142  
                      ??_V_ProgTempAgua 0059                               _Sw_Center 00B7  
                              ??___ftge 0007                                ??___wmul 0013  
                           __pdataBANK0 00DC                             __pdataBANK1 0100  
                     __size_of_RtccWrOn 0012                         RtccWriteTime@di 0003  
                      __CFG_LPT1OSC$OFF 000000                                ??_fround 0027  
                         sprintf@tmpval 0074                       Convert_diasem@dia 0050  
                           _ALRMCFGbits 000F91                              fround@prec 002D  
                     __size_of___awtoft 003C                       __size_of___ftpack 00C6  
                     __size_of___lbtoft 0026                       __size_of___lltoft 0060  
                         __pcstackBANK0 0060                 __size_of_Convert_diasem 011E  
                             _Write_RTC CE34            V_ProgRiegoIlum@i_min_ilum_tr 00A1  
                          _isdigit$2240 0002                       V_Reiniciar@borrar 005A  
                      _inicio_hora_ilum 00ED                                ?_Lcd_Cmd 0001  
                           sprintf@flag 0086                                ?_Lcd_Out 0054  
                           sprintf@fval 007A                             sprintf@prec 0081  
                     __size_of_escribir 004E                        _inicio_min_riego 00BE  
                             __pnvBANK0 00EF                           __pmediumconst FCFE  
                              ?___awdiv 0007                                ?___ftadd 002E  
                              ?___awmod 0001                                ?___ftdiv 003E  
                              ?___ftneg 0001                                ?___lldiv 0001  
                              ?___ftmul 0015                                ?___llmod 000E  
                              ?___ftsub 003A                               __npowers_ FD57  
                              ?___fttol 002B                        ?_V_ProgRiegoIlum 0001  
               RtccWriteTime@tempMinSec 0008                             __tdiv_to_l_ C7BC  
      __end_of_control_leds_iluminacion B71E                           _RtccWriteDate CA38  
                          ??__div_to_l_ 0007                           _RtccWriteTime C0FC  
                              ?_isdigit 0001                 V_ProgRiegoIlum@posicion 00A8  
                  __CFG_RTCOSC$T1OSCREF 000000        control_temperatura_agua@temp_max 004D  
      control_temperatura_agua@temp_min 0050                Convert_diasem@buffer_dia 0088  
                            ?_Write_RTC 0001                               _hexpowers FDA5  
                              ?_sprintf 0040                          __size_of_scale 03FE  
                      _RtccAlrmTimeDate 0138                          ___wmul@product 0013  
                              _LATAbits 000F89                                _LATBbits 000F8A  
                             _octpowers FCFF                                _PIE3bits 000FA3  
                             _segundo_d 00FA                               _segundo_u 00FB  
                    __end_of__div_to_l_ C7BC                    __size_of_V_Reiniciar 01F2  
                              Lcd_Out@x 0054                        __CFG_WDTPS$32768 000000  
                              Lcd_Out@y 0057                               _temp_prog 00DF  
                    RtccWriteDate@wasOn 0005                       V_ProgReloj@dia_tr 00A2  
                     V_ProgReloj@mes_tr 00A3                      _Rtcc_read_TimeDate 0148  
                          Lcd_Init@data 0005                          ?_RtccWriteDate 0001  
                  __size_of_V_ProgReloj 05F4                              _ADCON0bits 000FC2  
                     ___wmul@multiplier 000F                    __size_of_V_Principal 00F4  
                        ?_RtccWriteTime 0001                   __size_of_RtccReadDate 008E  
                 __size_of_RtccReadTime 006E                                _Lcd_Init C208  
                             copy_data0 B828                               copy_data1 B848  
                              _Read_RTC C8F6                          _fin_hora_riego 00EB  
              __size_of_lee_temperatura 0020                        __size_of_Lcd_Cmd 0120  
                      __size_of_Lcd_Out 0094                                __Hrparam 0000  
                              _RtccDate 00D4                                __Lrparam 0000  
                              _RtccTime 00D8                                _RtccWrOn B474  
                              _Sw_Right 00BA                            _RtccReadDate BA04  
                      __size_of___awdiv 0096                        __size_of___ftadd 01C4  
                      __size_of___awmod 0082                            _RtccReadTime B71E  
                      __size_of___ftdiv 00EC                        __size_of___ftneg 0024  
                      __size_of___lldiv 008C                        __size_of___ftmul 0102  
                      __size_of___llmod 0070                        __size_of___ftsub 0044  
                      __size_of___fttol 0102                                ___awtoft B586  
                              ___ftpack BC52                                ___lbtoft B500  
                           _fround$2473 002A                             _fround$2474 0027  
                              ___lltoft B654           V_ProgRiegoIlum@f_hora_ilum_tr 00A2  
                        _posicionesLeft 0120                            _RtccTimeDate 0140  
           __size_of_control_leds_riego 0080                              sprintf@idx 006D  
                            sprintf@len 0070                              sprintf@exp 0078  
                            sprintf@val 007D                         _inicio_min_ilum 00BD  
                        _Convert_diasem C322                        __size_of_isdigit 0022  
                        Lcd_Chr_CP@data 0003                             ??_Write_RTC 000F  
                              __ptext10 E248                                __ptext11 DC54  
                              __ptext20 BA04                                __ptext12 B606  
                              __ptext21 BA92                                __ptext13 CE34  
                              __ptext30 B8F6                                __ptext22 C560  
                              __ptext14 C0FC                                __ptext31 BBBC  
                              __ptext23 C322                                __ptext15 CA38  
                              __ptext40 BC52                                __ptext32 C7BC  
                              __ptext24 E90E                                __ptext16 B474  
                              __ptext41 B4DC                                __ptext33 C688  
                              __ptext25 D856                                __ptext17 BE04  
                              __ptext42 BB26                                __ptext34 B654  
                              __ptext26 B4BA                                __ptext18 C8F6  
                              __ptext43 C208                                __ptext35 B78C  
                              __ptext27 D384                                __ptext19 B71E  
                              __ptext44 C440                                __ptext36 B978  
                              __ptext28 B526                                __ptext37 BEF8  
                              __ptext29 BFFA                                __ptext38 B5C2  
                              __ptext39 CFCE                                __powers_ FD7E  
                      __size_of_sprintf 13F0                                _escribir B606  
                           Lcd_Cmd@data 0003                           __size_of_main 0154  
     __size_of_control_leds_iluminacion 006A               ?_control_leds_iluminacion 0001  
                              _minuto_d 00F8                                _minuto_u 00F9  
              _control_temperatura_agua CCD2                        escribir@variable 009F  
         V_ProgRiegoIlum@f_min_riego_tr 00A7                         ??_RtccWriteDate 0004  
                       ??_RtccWriteTime 0004                  __end_of_Convert_diasem C440  
                         _fin_hora_ilum 00EA                             Lcd_Out@data 0058  
                           _OSCTUNEbits 000F9B                              _INTCONbits 000FF2  
                    RtccWriteTime@wasOn 0005                           _fin_min_riego 00EC  
                              isdigit@c 0003                                scale@scl 002A  
                             sprintf@ap 0072                               sprintf@cp 006E  
                      __tdiv_to_l_@exp1 000F                               sprintf@sp 0040  
                      __tdiv_to_l_@cntr 000E                        __tdiv_to_l_@quot 000A  
                      ___lldiv@dividend 0001                         escribir@columna 009C  
                       escribir@formato 009D                              _OSCCONbits 000FD3  
                 RtccWriteDate@tempYear 0007                       ??_lee_temperatura 0001  
                          ?__tdiv_to_l_ 0001                              _RTCCFGbits 000F3F  
                  V_ProgReloj@diasem_tr 00A7                                sprintf@c 0085  
                              sprintf@f 0042                            _posicionesUp 0100  
                       ?_Convert_diasem 0050                        ___lldiv@quotient 0009  
                  RtccWriteDate@wasAlrm 0006                    RtccWriteDate@wasWrEn 0009  
                        V_ProgReloj@cte 00A0  
